ccollections
defaultdict
p1
(c__builtin__
list
p2
tRp3
S'latin_1_encode'
p4
(lp5
S'codecs'
p6
asS'paInt8'
p7
(lp8
S'pyaudio'
p9
asS'ewmvol'
p10
(lp11
S'pandas'
p12
asS'disk_usage'
p13
(lp14
S'psutil'
p15
asS'enable_debugging'
p16
(lp17
S'pyopencl'
p18
asS'frucht_graph'
p19
(lp20
S'networkx'
p21
asS'idct'
p22
(lp23
S'cv2'
p24
asS'issubsctype'
p25
(lp26
S'numpy'
p27
asS'findDataMatrix'
p28
(lp29
g24
asS'savez'
p30
(lp31
g27
asS'Laplacian'
p32
(lp33
g24
asS'clgl'
p34
(lp35
S'opencl'
p36
asS'prefix'
p37
(lp38
S'sys'
p39
asS'generated_version'
p40
(lp41
S'theano'
p42
asS'sleep'
p43
(lp44
S'gevent'
p45
asS'restoredot'
p46
(lp47
g27
asS'pids'
p48
(lp49
g15
asS'pyzmq_version'
p50
(lp51
S'zmq'
p52
asS'pyobjc_id'
p53
(lp54
S'objc'
p55
asS'findall'
p56
(lp57
S're'
p58
aS'setuptools'
p59
asS'render_template'
p60
(lp61
S'flask'
p62
asS'aliases'
p63
(lp64
S'encodings'
p65
asS'fnmatch'
p66
(lp67
S'pathlib'
p68
asS'phaseCorrelate'
p69
(lp70
g24
asS'pprint'
p71
(lp72
g42
aS'mock'
p73
asS'umask'
p74
(lp75
S'os'
p76
asS'fixup_egg_link'
p77
(lp78
S'virtualenv'
p79
asS'convertPointsToHomogeneous'
p80
(lp81
g24
asS'index_type'
p82
(lp83
S'Cython'
p84
asS'vcs'
p85
(lp86
S'pip'
p87
asS'add_metaclass'
p88
(lp89
S'six'
p90
asS'biconnected_components'
p91
(lp92
g21
asS'GetRectSubPix'
p93
(lp94
S'cv'
p95
asS'FindHomography'
p96
(lp97
g95
asS'CornerHarris'
p98
(lp99
g95
asS'random_powerlaw_tree'
p100
(lp101
g21
asS'is_text_serializer'
p102
(lp103
S'itsdangerous'
p104
asS'truncated_tetrahedron_graph'
p105
(lp106
g21
asS'get_level'
p107
(lp108
S'coloredlogs'
p109
asS'generate_unique_possibilities'
p110
(lp111
S'pytools'
p112
asS'void'
p113
(lp114
g84
asS'makeSuite'
p115
(lp116
S'unittest'
p117
asS'getppid'
p118
(lp119
g76
asS'exception'
p120
(lp121
g21
asS'getloadavg'
p122
(lp123
g76
asS'updates'
p124
(lp125
g42
asS'bilateralFilter'
p126
(lp127
g24
asS'createHanningWindow'
p128
(lp129
g24
asS'pyparser'
p130
(lp131
S'mako'
p132
asS'getmro'
p133
(lp134
S'inspect'
p135
asS'paBufferTooBig'
p136
(lp137
g9
asS'mach_o_change'
p138
(lp139
g79
asS'isdir'
p140
(lp141
S'os.path'
p142
asS'lchmod'
p143
(lp144
g76
asS'GetRows'
p145
(lp146
g95
asS'extmod'
p147
(lp148
S'shedskin'
p149
asS'filter2D'
p150
(lp151
g24
asS'word_wrap'
p152
(lp153
g112
asS'paInvalidHostApi'
p154
(lp155
g9
asS'string_types'
p156
(lp157
g90
aS'markupsafe'
p158
asS'ReshapeMatND'
p159
(lp160
g95
asS'Scalar'
p161
(lp162
g95
asS'is_directed'
p163
(lp164
g21
asS'cn_soundarajan_hopcroft'
p165
(lp166
g21
asS'parse_date'
p167
(lp168
S'humanfriendly'
p169
aS'werkzeug'
p170
asS'indices'
p171
(lp172
g27
asS'connected_components'
p173
(lp174
g21
asS'get_config_var'
p175
(lp176
S'sysconfig'
p177
asS'to_uncomplex_dtype'
p178
(lp179
g112
asS'zlib'
p180
(lp181
g104
ag79
asS'swap_memory'
p182
(lp183
g15
asS'adaptiveThreshold'
p184
(lp185
g24
asS'load_clusters'
p186
(lp187
S'word2vec'
p188
asS'calibrateCamera'
p189
(lp190
g24
asS'complement'
p191
(lp192
g21
asS'ellipse2Poly'
p193
(lp194
g24
asS'argpartition'
p195
(lp196
g27
asS'relabel_gexf_graph'
p197
(lp198
g21
asS'from_edgelist'
p199
(lp200
g21
asS'auwrite'
p201
(lp202
S'scikits.audiolab'
p203
asS'py_version'
p204
(lp205
g79
asS'grid_2d_graph'
p206
(lp207
g21
asS'ClearHist'
p208
(lp209
g95
asS'errors'
p210
(lp211
g36
aS'enchant'
p212
aS'sphinx'
p213
asS'bipartite_random_graph'
p214
(lp215
g21
asS'GBTrees'
p216
(lp217
g24
asS'neg'
p218
(lp219
S'operator'
p220
asS'RandShuffle'
p221
(lp222
g95
asS'lreshape'
p223
(lp224
g12
asS'load_module'
p225
(lp226
S'imp'
p227
asS'nanmin'
p228
(lp229
g27
asS'cmp_lt'
p230
(lp231
S'heapq'
p232
asS'GetCentralMoment'
p233
(lp234
g95
asS'addnodes'
p235
(lp236
g213
asS'getTickFrequency'
p237
(lp238
g24
asS'typeof'
p239
(lp240
g84
asS'PCACompute'
p241
(lp242
g24
asS'add_multi_representer'
p243
(lp244
S'yaml'
p245
asS'communicability_centrality_exp'
p246
(lp247
g21
asS'CV_BayerBG2BGR_VNG'
p248
(lp249
g95
asS'copysign'
p250
(lp251
g27
asS'Flip'
p252
(lp253
g95
asS'representer'
p254
(lp255
g245
asS'current_flow_betweenness_centrality'
p256
(lp257
g21
asS'edge_boundary'
p258
(lp259
g21
asS'GetWindowProperty'
p260
(lp261
g95
asg6
(lp262
g65
aS'BeautifulSoup'
p263
ag79
asS'path'
p264
(lp265
g76
asS'pathForFramework'
p266
(lp267
g55
asS'getFilledBBPoints'
p268
(lp269
S'mftracker'
p270
asS'paCoreAudio'
p271
(lp272
g9
asS'getsid'
p273
(lp274
g76
asS'CornerEigenValsAndVecs'
p275
(lp276
g95
asS'digits'
p277
(lp278
S'string'
p279
asS'classAddMethod'
p280
(lp281
g55
asS'expanding_quantile'
p282
(lp283
g12
asS'is_isolate'
p284
(lp285
g21
asS'url_encode'
p286
(lp287
g170
asS'ResizeWindow'
p288
(lp289
g95
asS'DestroyAllWindows'
p290
(lp291
g95
asVread_gml
p292
(lp293
g21
asS'anyCloseTag'
p294
(lp295
S'pyparsing'
p296
asS'register_stanza_plugin'
p297
(lp298
S'sleekxmpp'
p299
asS'search_function'
p300
(lp301
g65
asS'spawn'
p302
(lp303
g45
asS'originalTextFor'
p304
(lp305
g296
asS'divide'
p306
(lp307
g27
ag24
asS'read_sql'
p308
(lp309
g12
asS'serialize'
p310
(lp311
g245
asS'fastCopyAndTranspose'
p312
(lp313
g27
asS'replace'
p314
(lp315
g279
asS'interpolate'
p316
(lp317
S'scipy'
p318
asS'build_tzinfo'
p319
(lp320
S'pytz'
p321
asS'CalcOpticalFlowBM'
p322
(lp323
g95
asS'depth_first_search'
p324
(lp325
g21
asS'bipartite_alternating_havel_hakimi_graph'
p326
(lp327
g21
asS'srange'
p328
(lp329
g296
asS'average_shortest_path_length'
p330
(lp331
g21
asS'preload_module'
p332
(lp333
S'jedi'
p334
asS'enable_default_logging'
p335
(lp336
S'climate'
p337
asS'paStreamIsStopped'
p338
(lp339
g9
asS'getrecursionlimit'
p340
(lp341
g39
asS'negative'
p342
(lp343
g27
asS'print_'
p344
(lp345
g90
asS'mintypecode'
p346
(lp347
g27
asS'bipartite_configuration_model'
p348
(lp349
g21
asS'tokenize'
p350
(lp351
g135
ag350
asS'get_ros_package_path'
p352
(lp353
S'rospkg'
p354
asS'shortest_path_length'
p355
(lp356
g21
asS'GetReal3D'
p357
(lp358
g95
asS'annotations'
p359
(lp360
S'plac'
p361
asS'generate_decreasing_nonnegative_tuples_summing_to'
p362
(lp363
g112
asS'swap'
p364
(lp365
g21
asS'heappop'
p366
(lp367
g232
asS'isatty'
p368
(lp369
g76
asS'fromarray'
p370
(lp371
g95
asS'alphas'
p372
(lp373
g296
asS'smetric'
p374
(lp375
g21
asS'closerange'
p376
(lp377
g76
asS'pnow'
p378
(lp379
g12
asS'InRangeS'
p380
(lp381
g95
asS'warn'
p382
(lp383
S'warnings'
p384
asS'parse_accept_header'
p385
(lp386
g170
asS'install_wheel'
p387
(lp388
g79
asS'get_platform'
p389
(lp390
g177
asS'unescape'
p391
(lp392
g170
asS'soft_unicode'
p393
(lp394
g158
asS'nogil'
p395
(lp396
g84
asS'paNotInitialized'
p397
(lp398
g9
asS'disk_partitions'
p399
(lp400
g15
asS'TIOCM_zero_str'
p401
(lp402
S'serial'
p403
asS'join'
p404
(lp405
g142
ag279
ag79
asS'enqueue_read_image'
p406
(lp407
g18
asS'KNearest'
p408
(lp409
g24
asS'setup'
p410
(lp411
S'numpydoc'
p412
ag59
asS'true_divide'
p413
(lp414
g27
asS'dump_cookie'
p415
(lp416
g170
asS'strerror'
p417
(lp418
g76
asS'commaSeparatedList'
p419
(lp420
g296
asS'sndfile_version'
p421
(lp422
g203
asS'ContStr'
p423
(lp424
g350
asS'utf_16_le_encode'
p425
(lp426
g6
asS'indices_in_shape'
p427
(lp428
g112
asS'install'
p429
(lp430
g109
asS'unicode_internal_decode'
p431
(lp432
g6
asS'exceptions'
p433
(lp434
S'requests'
p435
aS'jmespath'
p436
aS'jsonschema'
p437
ag87
ag321
ag299
aS'jinja2'
p438
ag132
ag170
asS'PyCF_ONLY_AST'
p439
(lp440
S'ast'
p441
asS'cl_mem'
p442
(lp443
g36
asS'paInDevelopment'
p444
(lp445
g9
asS'triu_indices'
p446
(lp447
g27
asS'random_degree_sequence_graph'
p448
(lp449
g21
asS'windows_support'
p450
(lp451
g59
asS'packet'
p452
(lp453
S'paramiko'
p454
asS'logical_or'
p455
(lp456
g27
asS'make_fortune_data_file'
p457
(lp458
S'fortune'
p459
asS'Abs'
p460
(lp461
g95
asS'format_timespan'
p462
(lp463
g169
asS'url_fix'
p464
(lp465
g170
asS'draw_networkx_edges'
p466
(lp467
g21
asS'unichr'
p468
(lp469
g90
ag158
asS'nx_agraph'
p470
(lp471
g21
asS'urlescape'
p472
(lp473
S'panda'
p474
asS'supports_unicode_filenames'
p475
(lp476
g142
asS'moebius_kantor_graph'
p477
(lp478
g21
asS'absolute'
p479
(lp480
g27
asS'find_cores'
p481
(lp482
g21
asS'getgroups'
p483
(lp484
g76
asS'numarray'
p485
(lp486
g27
asS'verify'
p487
(lp488
S'rsa'
p489
asS'MoveWindow'
p490
(lp491
g95
asS'FindFundamentalMat'
p492
(lp493
g95
asS'compare_versions'
p494
(lp495
S'matplotlib'
p496
asS'print_errors'
p497
(lp498
g149
asS'CV_ErrModeParent'
p499
(lp500
g95
asS'Octnumber'
p501
(lp502
g350
asS'HOGDescriptor_getDaimlerPeopleDetector'
p503
(lp504
g24
asS'pkgload'
p505
(lp506
g27
asS'is_graphical'
p507
(lp508
g21
asS'array_str'
p509
(lp510
g27
asS'config'
p511
(lp512
g42
aS'nose'
p513
ag454
ag149
aS'tox'
p514
ag62
asS'sparse_grad'
p515
(lp516
g42
asS'ApproxPoly'
p517
(lp518
g95
asS'disassemble'
p519
(lp520
S'dis'
p521
asS'spawnle'
p522
(lp523
g76
asS'typedump'
p524
(lp525
g112
asS'intersection_array'
p526
(lp527
g21
asS'gnp_random_graph'
p528
(lp529
g21
asS'file_search_dirs'
p530
(lp531
g79
asS'register_error'
p532
(lp533
g6
asS'asanyarray'
p534
(lp535
g27
asS'unload_platform_compiler'
p536
(lp537
g18
asS'paInt32'
p538
(lp539
g9
asS'setgroups'
p540
(lp541
g76
asS'computation'
p542
(lp543
g12
asS'logaddexp'
p544
(lp545
g27
asS'spawnlp'
p546
(lp547
g76
asS'lineStart'
p548
(lp549
g296
asS'amin'
p550
(lp551
g27
asS'execusercustomize'
p552
(lp553
S'site'
p554
asS'is_pypy'
p555
(lp556
g79
asS'assortativity'
p557
(lp558
g21
asS'clientxmpp'
p559
(lp560
g299
asS'set_level'
p561
(lp562
g109
asS'registerMetaDataForSelector'
p563
(lp564
g55
asS'null_graph'
p565
(lp566
g21
asS'is_resource_modified'
p567
(lp568
g170
asS'environ'
p569
(lp570
g76
asS'dsskey'
p571
(lp572
g454
asS'correlation'
p573
(lp574
g21
asS'create_autospec'
p575
(lp576
g73
asS'msvc9_support'
p577
(lp578
g59
asS'eigen'
p579
(lp580
g24
asS'communicability'
p581
(lp582
g21
asS'load_source'
p583
(lp584
g227
asS'functools'
p585
(lp586
g90
aS'funcsigs'
p587
aS'lockfile'
p588
ag68
ag15
asS'imul'
p589
(lp590
g220
asS'CalcMotionGradient'
p591
(lp592
g95
asS'validators'
p593
(lp594
g437
asS'attrmatrix'
p595
(lp596
g21
asS'is_builtin'
p597
(lp598
g227
asS'CalcEMD2'
p599
(lp600
g95
asS'cumsum'
p601
(lp602
g27
asS'semiconnected'
p603
(lp604
g21
asS'streaminghttp'
p605
(lp606
S'poster'
p607
asS'FillPoly'
p608
(lp609
g95
asS'fix'
p610
(lp611
g27
asg227
(lp612
g135
asS'parse_options_header'
p613
(lp614
g170
asS'value_range'
p615
(lp616
g12
asS'setgid'
p617
(lp618
g76
asS'all_timezones'
p619
(lp620
g321
asS'fill_diagonal'
p621
(lp622
g27
asS'cartesian_product'
p623
(lp624
g21
ag112
asS'empty_like'
p625
(lp626
g27
asS'iwait'
p627
(lp628
g45
asS'paBufferTooSmall'
p629
(lp630
g9
asS'NaT'
p631
(lp632
g12
asS'available_encodings'
p633
(lp634
g203
asS'copy_current_request_context'
p635
(lp636
g62
asS'recursive_simple_cycles'
p637
(lp638
g21
asS'fchown'
p639
(lp640
g76
asS'read_gpickle'
p641
(lp642
g21
asS'value_counts'
p643
(lp644
g12
asS'out_degree_centrality'
p645
(lp646
g21
asS'set_edge_attributes'
p647
(lp648
g21
asS'ctypeslib'
p649
(lp650
g27
asS'clear_default_headers'
p651
(lp652
S'unirest'
p653
asS'Copy'
p654
(lp655
g95
asS'remove_move'
p656
(lp657
g90
asS'inpaint'
p658
(lp659
g24
asS'asfarray'
p660
(lp661
g27
asS'edge_betweenness_centrality_subset'
p662
(lp663
g21
asS'makepath'
p664
(lp665
g554
asS'flow_matrix'
p666
(lp667
g21
asS'CascadeClassifier'
p668
(lp669
g24
asS'alen'
p670
(lp671
g27
asS'raise_from'
p672
(lp673
g90
asS'timeout'
p674
(lp675
g45
ag653
asS'debug'
p676
(lp677
g334
aS'pyasn1'
p678
asS'mean'
p679
(lp680
g27
ag24
asS'charmap_build'
p681
(lp682
g6
asS'bull_graph'
p683
(lp684
g21
asS'CircEvent'
p685
(lp686
S'stem'
p687
asS'Reshape'
p688
(lp689
g95
asS'AbsDiff'
p690
(lp691
g95
asS'r_'
p692
(lp693
g27
asS'with_statement'
p694
(lp695
S'interpy.codec.register'
p696
aS'tornado'
p697
asS'make_exe'
p698
(lp699
g79
asS'hanning'
p700
(lp701
g27
asS'read_html'
p702
(lp703
g12
asS'LogPolar'
p704
(lp705
g95
asS'imwrite'
p706
(lp707
g24
asS'getsource'
p708
(lp709
g135
asS'setUseOptimized'
p710
(lp711
g24
asS'extract'
p712
(lp713
g27
asS'message'
p714
(lp715
g454
asS'number_attracting_components'
p716
(lp717
g21
asS'msgpack'
p718
(lp719
g12
asS'paContinue'
p720
(lp721
g9
asS'whitespace'
p722
(lp723
g279
asS'gradient'
p724
(lp725
g42
ag27
asS'chflags'
p726
(lp727
g76
asS'AdaptiveThreshold'
p728
(lp729
g95
asS'gof'
p730
(lp731
g42
asS'freeze'
p732
(lp733
g21
asS'inplace'
p734
(lp735
g73
asS'goldberg_radzik'
p736
(lp737
g21
asg58
(lp738
g135
ag350
aS'debugger'
p739
ag263
aS'botocore'
p740
ag109
aS'configobj'
p741
aS'decorator'
p742
aS'docopt'
p743
ag587
ag169
ag496
ag73
ag68
ag87
ag361
aS'pyasn'
p744
ag79
ag158
aS'sklearn'
p745
asS'run_symilar'
p746
(lp747
S'pylint'
p748
asS'magic_methods'
p749
(lp750
g73
asS'promote_types'
p751
(lp752
g27
asS'single_source_shortest_path_length'
p753
(lp754
g21
asS'FlannBasedMatcher'
p755
(lp756
g24
asS'irepeat'
p757
(lp758
g220
asS'log2'
p759
(lp760
g27
asS'flow_hierarchy'
p761
(lp762
g21
asS'InvSqrt'
p763
(lp764
g95
asS'dfs_predecessors'
p765
(lp766
g21
asS'is_semiconnected'
p767
(lp768
g21
asS'read_dot'
p769
(lp770
g21
asS'vstack'
p771
(lp772
g27
asS'getincrementalencoder'
p773
(lp774
g6
asS'with_metaclass'
p775
(lp776
g90
asS'column_stack'
p777
(lp778
g27
asS'paInsufficientMemory'
p779
(lp780
g9
asS'row_stack'
p781
(lp782
g27
asS'balanced_tree'
p783
(lp784
g21
asS'logging'
p785
(lp786
g435
ag42
ag739
ag740
ag337
ag109
aS'gensim'
p787
ag87
aS'rosdistro'
p788
ag299
aS'vcstools'
p789
ag79
asS'incidence_matrix'
p790
(lp791
g21
asS'traceback'
p792
(lp793
g554
ag739
ag149
asS'ismount'
p794
(lp795
g142
asS'phaseCorrelateRes'
p796
(lp797
g24
asS'request_finished'
p798
(lp799
g62
asS'newaxis'
p800
(lp801
g27
asS'arccos'
p802
(lp803
g27
asS'make_identity_dict'
p804
(lp805
g6
asS'status_codes'
p806
(lp807
g435
ag87
asS'get_param'
p808
(lp809
g212
asS'protocolsForProcess'
p810
(lp811
g55
asS'generate_edgelist'
p812
(lp813
g21
asS'distance_regular'
p814
(lp815
g21
asS'rand'
p816
(lp817
g318
asS'Exponent'
p818
(lp819
g350
asS'render_template_string'
p820
(lp821
g62
asS'Algorithm__create'
p822
(lp823
g24
asS'makefile'
p824
(lp825
g149
asS'rank'
p826
(lp827
g27
asS'ldexp'
p828
(lp829
g27
asS'get_config_vars'
p830
(lp831
g177
asS'accumulateSquare'
p832
(lp833
g24
asS'nx_yaml'
p834
(lp835
g21
asS'run_wsgi_app'
p836
(lp837
g170
asS'Feature2D_create'
p838
(lp839
g24
asS'RepairDB'
p840
(lp841
S'leveldb'
p842
asS'RandArr'
p843
(lp844
g95
asS'expand_to_packages'
p845
(lp846
g354
asS'iskeyword'
p847
(lp848
S'keyword'
p849
asS'all_neighbors'
p850
(lp851
g21
asS'geterrcall'
p852
(lp853
g27
asS'isbuiltin'
p854
(lp855
g135
asS'BoundingRect'
p856
(lp857
g95
asS'exp2'
p858
(lp859
g27
asS'bind_arguments'
p860
(lp861
g170
asS'compose_all'
p862
(lp863
g245
ag21
asS'loaders'
p864
(lp865
g438
asS'want_bytes'
p866
(lp867
g104
asS'bccache'
p868
(lp869
g438
asS'copyreg'
p870
(lp871
g36
asS'zeros'
p872
(lp873
g27
asS'CreateKalman'
p874
(lp875
g95
asS'False_'
p876
(lp877
g27
asS'setcheckinterval'
p878
(lp879
g39
asS'install_distutils'
p880
(lp881
g79
asS'cornerSubPix'
p882
(lp883
g24
asS'hasconst'
p884
(lp885
S'opcode'
p886
asS'CmpS'
p887
(lp888
g95
asS'CalcOpticalFlowPyrLK'
p889
(lp890
g95
asS'Hexnumber'
p891
(lp892
g350
asS'expanding_min'
p893
(lp894
g12
asS'plot_params'
p895
(lp896
g12
asS'tokens'
p897
(lp898
g245
asS'lookUpClass'
p899
(lp900
g55
asS'copyto'
p901
(lp902
g27
asS'gpickle'
p903
(lp904
g21
asS'bootstrap_install_from'
p905
(lp906
g59
asS'ProjectPoints2'
p907
(lp908
g95
asS'monkeypatch_method'
p909
(lp910
g112
asS'Filter2D'
p911
(lp912
g95
asS'jaccard_coefficient'
p913
(lp914
g21
asS'pluralize'
p915
(lp916
g169
asS'Set'
p917
(lp918
g95
asS'fromfunction'
p919
(lp920
g27
asg849
(lp921
g73
asS'format_exception'
p922
(lp923
g792
asS'increase_verbosity'
p924
(lp925
g109
asS'astutils'
p926
(lp927
S'asteval'
p928
asS'tree'
p929
(lp930
g21
asS'rate'
p931
(lp932
g27
asS'final'
p933
(lp934
g84
asS'project'
p935
(lp936
g21
asS'idle'
p937
(lp938
g45
asS'biconnected'
p939
(lp940
g21
asS'HOGDescriptor_getDefaultPeopleDetector'
p941
(lp942
g24
asS'utf_32_be_encode'
p943
(lp944
g6
asS'fastAtan2'
p945
(lp946
g24
asS'cmp_op'
p947
(lp948
g886
asS'minAreaRect'
p949
(lp950
g24
asS'information_centrality'
p951
(lp952
g21
asS'bfs_predecessors'
p953
(lp954
g21
asS'get_magic'
p955
(lp956
g227
asS'runner'
p957
(lp958
g117
asS'SQLiteFileLock'
p959
(lp960
g588
asS'spectrum'
p961
(lp962
g21
asS'morphologyEx'
p963
(lp964
g24
asS'triu_indices_from'
p965
(lp966
g27
asS'distance_measures'
p967
(lp968
g21
asS'iscode'
p969
(lp970
g135
asS'scaleAdd'
p971
(lp972
g24
asS'strongly_connected_component_subgraphs'
p973
(lp974
g21
asS'dyld_library'
p975
(lp976
g55
asS'get_option'
p977
(lp978
g12
asS'hub'
p979
(lp980
g45
asS'load_url'
p981
(lp982
g788
asS'InitLineIterator'
p983
(lp984
g95
asS'wait_procs'
p985
(lp986
g15
asS'setTrackbarPos'
p987
(lp988
g24
asS'all_timezones_set'
p989
(lp990
g321
asS'PCAComputeVar'
p991
(lp992
g24
asS'fname'
p993
(lp994
g296
asS'py_long'
p995
(lp996
g84
asS'add_group'
p997
(lp998
g337
asS'isolates'
p999
(lp1000
g21
asS'FindCornerSubPix'
p1001
(lp1002
g95
asS'fix_lib64'
p1003
(lp1004
g79
asS'getuserbase'
p1005
(lp1006
g554
asS'PyrUp'
p1007
(lp1008
g95
asS'Convert'
p1009
(lp1010
g95
asS'applyColorMap'
p1011
(lp1012
g24
asS'havel_hakimi_graph'
p1013
(lp1014
g21
asS'isclass'
p1015
(lp1016
g135
asS'default_test_modules'
p1017
(lp1018
g496
asS'to_msgpack'
p1019
(lp1020
g12
asS'glob'
p1021
(lp1022
g79
asS'writeTimeoutError'
p1023
(lp1024
g403
asS'normcase'
p1025
(lp1026
g142
asS'calcHist'
p1027
(lp1028
g24
asS'DMatch'
p1029
(lp1030
g24
asS'complex_types'
p1031
(lp1032
g84
asS'DecodeImage'
p1033
(lp1034
g95
asS'phase'
p1035
(lp1036
g24
asS'pid_exists'
p1037
(lp1038
g15
asS'multiline_adjlist'
p1039
(lp1040
g21
asS'all_pairs_shortest_path_length'
p1041
(lp1042
g21
asS'meanStdDev'
p1043
(lp1044
g24
asS'broadcast'
p1045
(lp1046
g36
asS'InitUndistortMap'
p1047
(lp1048
g95
asS'logical_not'
p1049
(lp1050
g27
asS'dump_options_header'
p1051
(lp1052
g170
asS'LCF_graph'
p1053
(lp1054
g21
asS'alarm'
p1055
(lp1056
S'signal'
p1057
asS'partition'
p1058
(lp1059
g27
ag112
asS'flow'
p1060
(lp1061
g21
asS'ansi_color_codes'
p1062
(lp1063
g109
asS'invoke_editor'
p1064
(lp1065
g112
asS'Single'
p1066
(lp1067
g350
asS'floordiv'
p1068
(lp1069
g220
asS'nbytes'
p1070
(lp1071
g27
asS'hamming'
p1072
(lp1073
g27
asS'replaceHTMLEntity'
p1074
(lp1075
g296
asS'CV_BayerGB2RGB'
p1076
(lp1077
g95
asS'icosahedral_graph'
p1078
(lp1079
g21
asS'get_log_dir'
p1080
(lp1081
g354
asS'sum'
p1082
(lp1083
g27
asS'dot'
p1084
(lp1085
g42
ag27
asS'boundingRect'
p1086
(lp1087
g24
asS'tarfile'
p1088
(lp1089
g79
asS'random'
p1090
(lp1091
g27
ag459
asS'with_setup'
p1092
(lp1093
g513
asS'colors'
p1094
(lp1095
g496
asS'cl_types'
p1096
(lp1097
g36
asS'once_registry'
p1098
(lp1099
g384
asS'k_core'
p1100
(lp1101
g21
asS'expanding_median'
p1102
(lp1103
g12
asS'enumerate_basic_directions'
p1104
(lp1105
g112
asS'isframe'
p1106
(lp1107
g135
asS'path_locations'
p1108
(lp1109
g79
asS'virtual_memory'
p1110
(lp1111
g15
asS'layout'
p1112
(lp1113
g21
asS'RetrieveFrame'
p1114
(lp1115
g95
asS'find_cliques'
p1116
(lp1117
g21
asS'breadth_first_search'
p1118
(lp1119
g21
asS'stanza'
p1120
(lp1121
g299
asS'printtoken'
p1122
(lp1123
g350
asS'rc_file_defaults'
p1124
(lp1125
g496
asS'generate_nonnegative_integer_tuples_summing_to_at_most'
p1126
(lp1127
g112
asS'locatedExpr'
p1128
(lp1129
g296
asS'tzinfo'
p1130
(lp1131
g321
asS'erdos_renyi_graph'
p1132
(lp1133
g21
asS'fstat'
p1134
(lp1135
g76
asS'rectangle'
p1136
(lp1137
g24
asS'ntpath'
p1138
(lp1139
g68
asS'predecessor'
p1140
(lp1141
g21
asS'infty'
p1142
(lp1143
g27
asS'get_distribution_cache'
p1144
(lp1145
g788
asS'memoize_method_with_uncached'
p1146
(lp1147
g112
asS'getNumberOfCPUs'
p1148
(lp1149
g24
asS'dup2'
p1150
(lp1151
g76
asS'SetRealND'
p1152
(lp1153
g95
asS'PCABackProject'
p1154
(lp1155
g24
asS'ceil'
p1156
(lp1157
g27
asS'activations'
p1158
(lp1159
S'theanets'
p1160
asS'FixedOffset'
p1161
(lp1162
g321
asS'add_newdoc_ufunc'
p1163
(lp1164
g27
asS'toolbox'
p1165
(lp1166
g42
asS'GetElemType'
p1167
(lp1168
g95
asS'runp'
p1169
(lp1170
g361
asS'collector'
p1171
(lp1172
g513
asS'single_source_dijkstra_path'
p1173
(lp1174
g21
asS'classAddMethods'
p1175
(lp1176
g55
asS'gnm_random_graph'
p1177
(lp1178
g21
asS'get_ident'
p1179
(lp1180
S'thread'
p1181
asS'disco'
p1182
(lp1183
g521
asS'reload'
p1184
(lp1185
g227
asS'base64_decode'
p1186
(lp1187
g104
asS'test_assert_path_exists'
p1188
(lp1189
g84
asS'release'
p1190
(lp1191
g21
ag788
asS'findCirclesGridDefault'
p1192
(lp1193
g24
asS'isreal'
p1194
(lp1195
g27
asS'adapters'
p1196
(lp1197
g435
asS'LoadImageM'
p1198
(lp1199
g95
asS'DestroyWindow'
p1200
(lp1201
g95
asS'pardir'
p1202
(lp1203
g76
asS'createTrackbar'
p1204
(lp1205
g24
asS'get_home'
p1206
(lp1207
g496
asS'mixChannels'
p1208
(lp1209
g24
asS'Invert'
p1210
(lp1211
g95
asS'testing'
p1212
(lp1213
g27
asS'minMaxLoc'
p1214
(lp1215
g24
asS'module'
p1216
(lp1217
g62
asS'matchPreviousExpr'
p1218
(lp1219
g296
asS'depends'
p1220
(lp1221
g59
asS'min_cost_flow_cost'
p1222
(lp1223
g21
asS'radius'
p1224
(lp1225
g21
asS'result'
p1226
(lp1227
g513
ag514
ag117
asS'Boost'
p1228
(lp1229
g24
asS'PreCornerDetect'
p1230
(lp1231
g95
asS'rad2deg'
p1232
(lp1233
g27
asS'to_pickle'
p1234
(lp1235
g12
asS'tensor'
p1236
(lp1237
g42
asS'GetND'
p1238
(lp1239
g95
asS'fitLine'
p1240
(lp1241
g24
asS'MixChannels'
p1242
(lp1243
g95
asS'irr'
p1244
(lp1245
g27
asS'matMulDeriv'
p1246
(lp1247
g24
asS'dijkstra_predecessor_and_distance'
p1248
(lp1249
g21
asS'urllib'
p1250
(lp1251
g588
ag474
ag653
asS'nsdata__getslice__'
p1252
(lp1253
g55
asS'cpu_times_percent'
p1254
(lp1255
g15
asS'link_program'
p1256
(lp1257
g18
asS'splitfields'
p1258
(lp1259
g279
asS'read_adjlist'
p1260
(lp1261
g21
asS'integrate'
p1262
(lp1263
g318
asS'DotProduct'
p1264
(lp1265
g95
asS'mul'
p1266
(lp1267
g220
asS'paInputOverflowed'
p1268
(lp1269
g9
asS'AbsDiffS'
p1270
(lp1271
g95
asS'drawChessboardCorners'
p1272
(lp1273
g24
asS'to_numpy_recarray'
p1274
(lp1275
g21
asS'full_rary_tree'
p1276
(lp1277
g21
asS'callbackFor'
p1278
(lp1279
g55
asS'lazy'
p1280
(lp1281
g321
asS'add_path_resolver'
p1282
(lp1283
g245
asS'parse_known_args'
p1284
(lp1285
g337
asS'bincount'
p1286
(lp1287
g27
asS'to_source'
p1288
(lp1289
S'astor'
p1290
asS'copy_required_modules'
p1291
(lp1292
g79
asS'defaultaction'
p1293
(lp1294
g384
asS'corrcoef'
p1295
(lp1296
g27
asS'repository_specification'
p1297
(lp1298
g788
asS'ctypes'
p1299
(lp1300
S'forbiddenfruit'
p1301
ag36
asS'stat_float_times'
p1302
(lp1303
g76
asS'warn_explicit'
p1304
(lp1305
g384
asS'packages'
p1306
(lp1307
g435
asS'attribute_mixing_dict'
p1308
(lp1309
g21
asS'trim_zeros'
p1310
(lp1311
g27
asS'sparse6'
p1312
(lp1313
g21
asS'newkeys'
p1314
(lp1315
g489
asS'cos'
p1316
(lp1317
g27
asS'kosaraju_strongly_connected_components'
p1318
(lp1319
g21
asS'cov'
p1320
(lp1321
g27
asS'io_sleep'
p1322
(lp1323
g454
asS'fontconfig_pattern'
p1324
(lp1325
g496
asS'rfind'
p1326
(lp1327
g279
asS'valid_symbol_name'
p1328
(lp1329
g928
asS'FastFeatureDetector'
p1330
(lp1331
g24
asS'stringEnd'
p1332
(lp1333
g296
asS'communicability_alg'
p1334
(lp1335
g21
asS'vander'
p1336
(lp1337
g27
asS'ansitowin32'
p1338
(lp1339
S'colorama'
p1340
asS'col'
p1341
(lp1342
g296
asS'createStructType'
p1343
(lp1344
g55
asS'assertCountEqual'
p1345
(lp1346
g90
asS'k_random_intersection_graph'
p1347
(lp1348
g21
asS'used_virtmem'
p1349
(lp1350
g15
asS'distanceTransformWithLabels'
p1351
(lp1352
g24
asS'issubclass_'
p1353
(lp1354
g27
asS'loader'
p1355
(lp1356
g245
ag513
ag788
ag117
asS'factorize'
p1357
(lp1358
g12
asS'Py_UCS4'
p1359
(lp1360
g84
asS'dodecahedral_graph'
p1361
(lp1362
g21
asS'constant_time_compare'
p1363
(lp1364
g104
asS'polynomial'
p1365
(lp1366
g27
asS'diff'
p1367
(lp1368
g27
asS'write_graphml'
p1369
(lp1370
g21
asS'describe_option'
p1371
(lp1372
g12
asS'iterable'
p1373
(lp1374
g27
ag361
asS'call_subprocess'
p1375
(lp1376
g79
asS'array_split'
p1377
(lp1378
g27
asS'enqueue_map_buffer'
p1379
(lp1380
g18
asS'run_pylint_gui'
p1381
(lp1382
g748
asS'union'
p1383
(lp1384
g21
asS'MaxS'
p1385
(lp1386
g95
asS'get_python_version'
p1387
(lp1388
g177
asS'patch'
p1389
(lp1390
g435
ag73
ag653
asS'ClipLine'
p1391
(lp1392
g95
asS'user_config_dir'
p1393
(lp1394
g788
asS'splitStructSignature'
p1395
(lp1396
g55
asS'to_agraph'
p1397
(lp1398
g21
asS'maxsize'
p1399
(lp1400
g39
asS'enqueue_write_buffer'
p1401
(lp1402
g18
asS'itervalues'
p1403
(lp1404
g90
asS'parse_seq'
p1405
(lp1406
g743
asS'fbtrack'
p1407
(lp1408
g270
asS'SaveImage'
p1409
(lp1410
g95
asg27
(lp1411
g42
aS'glumpy'
p1412
ag496
asS'CompareHist'
p1413
(lp1414
g95
asS'has_app_context'
p1415
(lp1416
g62
asS'graphical'
p1417
(lp1418
g21
asS'expanding_std'
p1419
(lp1420
g12
asS'InitUndistortRectifyMap'
p1421
(lp1422
g95
asS'relabel_nodes'
p1423
(lp1424
g21
asS'from_scipy_sparse_matrix'
p1425
(lp1426
g21
asS'logging_default_formatter'
p1427
(lp1428
g42
asS'hexdigits'
p1429
(lp1430
g279
asS'FindStereoCorrespondenceBM'
p1431
(lp1432
g95
asS'generate_sparse6'
p1433
(lp1434
g21
asS'apply_along_axis'
p1435
(lp1436
g27
asS'getMedianUnmanaged'
p1437
(lp1438
g270
asS'rich_club_coefficient'
p1439
(lp1440
g21
asS'supported_endianness'
p1441
(lp1442
g203
asS'environmentfilter'
p1443
(lp1444
g438
asS'prompt_for_choice'
p1445
(lp1446
g169
asS'perspectiveTransform'
p1447
(lp1448
g24
asS'has'
p1449
(lp1450
g52
asS'betweenness_centrality'
p1451
(lp1452
g21
asS'reciprocal'
p1453
(lp1454
g27
asS'tanh'
p1455
(lp1456
g27
asS'set_debug_function'
p1457
(lp1458
g334
asS'walktree'
p1459
(lp1460
g135
asS'getPerspectiveTransform'
p1461
(lp1462
g24
asS'isMappingType'
p1463
(lp1464
g220
asS'typename'
p1465
(lp1466
g27
asS'no_gc_clear'
p1467
(lp1468
g84
asS'euler'
p1469
(lp1470
g21
asg59
(lp1471
S'py2app'
p1472
ag59
asS'getCPUTickCount'
p1473
(lp1474
g24
asS'hexversion'
p1475
(lp1476
g39
asS'CV_BGR2YCrCb'
p1477
(lp1478
g95
asS'MatchTemplate'
p1479
(lp1480
g95
asS'dont_write_bytecode'
p1481
(lp1482
g39
asS'regexopt'
p1483
(lp1484
S'pygments'
p1485
asS'dyld_framework'
p1486
(lp1487
g55
asS'cmdline'
p1488
(lp1489
S'grizzled'
p1490
ag514
asS'io'
p1491
(lp1492
g12
ag68
aS'py'
p1493
ag403
ag188
asS'simple_paths'
p1494
(lp1495
g21
asS'rc_params_from_file'
p1496
(lp1497
g496
asS'conj'
p1498
(lp1499
g27
asS'shift'
p1500
(lp1501
g112
asS'dumper'
p1502
(lp1503
g245
asS'setdiff1d'
p1504
(lp1505
g27
asS'list_dicts'
p1506
(lp1507
g212
asS'mutagen'
p1508
(lp1509
g1508
asS'Remap'
p1510
(lp1511
g95
asS'fnmatchcase'
p1512
(lp1513
g59
asS'is_jython'
p1514
(lp1515
g79
asS'punctuation'
p1516
(lp1517
g279
asS'NaN'
p1518
(lp1519
g27
asS'parse_adjlist'
p1520
(lp1521
g21
asS'show_config'
p1522
(lp1523
g27
asS'get_function_closure'
p1524
(lp1525
g90
asS'complex'
p1526
(lp1527
g84
asS'split'
p1528
(lp1529
g142
ag279
ag58
ag27
ag24
asS'getargvalues'
p1530
(lp1531
g135
asS'Canny'
p1532
(lp1533
g95
ag24
asS'build_main'
p1534
(lp1535
g213
asS'make_relative_path'
p1536
(lp1537
g79
asS'waitpid'
p1538
(lp1539
g76
asS'wheel'
p1540
(lp1541
g87
asS'numerics'
p1542
(lp1543
g73
asg188
(lp1544
g188
asS'safe_dump_all'
p1545
(lp1546
g245
asS'nil'
p1547
(lp1548
g55
asS'abstractmethod'
p1549
(lp1550
S'abc'
p1551
asS'i0'
p1552
(lp1553
g27
asS'social'
p1554
(lp1555
g21
asS'ismethoddescriptor'
p1556
(lp1557
g135
asS'paCustomFormat'
p1558
(lp1559
g9
asS'CreateVideoWriter'
p1560
(lp1561
g95
asS'charmap_decode'
p1562
(lp1563
g6
asS'confstr_names'
p1564
(lp1565
g76
asS'MinS'
p1566
(lp1567
g95
asS'nullDebugAction'
p1568
(lp1569
g296
asS'parse_cache_control_header'
p1570
(lp1571
g170
asS'my_decorator'
p1572
(lp1573
g112
asS'parseopts'
p1574
(lp1575
g87
asS'geographical_threshold_graph'
p1576
(lp1577
g21
asS'RandInt'
p1578
(lp1579
g95
asS'Reduce'
p1580
(lp1581
g95
asS'heawood_graph'
p1582
(lp1583
g21
asS'oldnumeric'
p1584
(lp1585
g27
asS'client'
p1586
(lp1587
g454
asS'add_newdocs'
p1588
(lp1589
g27
asS'rolling_median'
p1590
(lp1591
g12
asS'gzip'
p1592
(lp1593
g788
ag653
asS'directed_havel_hakimi_graph'
p1594
(lp1595
g21
asS'all_pairs_dijkstra_path_length'
p1596
(lp1597
g21
asS'Image'
p1598
(lp1599
S'PIL'
p1600
asS'len_iterable'
p1601
(lp1602
g112
asS'paOSS'
p1603
(lp1604
g9
asS'long_info'
p1605
(lp1606
g39
asS'random_layout'
p1607
(lp1608
g21
asS'diameter'
p1609
(lp1610
g21
asS'kron'
p1611
(lp1612
g27
asS'isolate'
p1613
(lp1614
g21
asS'paCanNotReadFromAnOutputOnlyStream'
p1615
(lp1616
g9
asS'BOWImgDescriptorExtractor'
p1617
(lp1618
g24
asS'cssselectpatch'
p1619
(lp1620
S'pyquery'
p1621
asS'capwords'
p1622
(lp1623
g279
asS'argmin2'
p1624
(lp1625
g112
asS'setbufsize'
p1626
(lp1627
g27
asS'getTrackbarPos'
p1628
(lp1629
g24
asS'available_file_formats'
p1630
(lp1631
g203
asS'AuthDescriptorAction'
p1632
(lp1633
g687
asS'makedict'
p1634
(lp1635
S'sre_constants'
p1636
asS'rcParamsOrig'
p1637
(lp1638
g496
asS'random_powerlaw_tree_sequence'
p1639
(lp1640
g21
asS'desargues_graph'
p1641
(lp1642
g21
asS'read_yaml'
p1643
(lp1644
g21
asS'similarities'
p1645
(lp1646
g787
asS'release_file'
p1647
(lp1648
g788
asS'weakly_connected'
p1649
(lp1650
g21
asS'meanShift'
p1651
(lp1652
g24
asS'initialise'
p1653
(lp1654
g1340
asS'collections'
p1655
(lp1656
g15
asS'tmpnam'
p1657
(lp1658
g76
asS'graph6'
p1659
(lp1660
g21
asS'save'
p1661
(lp1662
g27
ag12
asS'opt'
p1663
(lp1664
g42
asS'interpy_transform'
p1665
(lp1666
g696
asS'predefined_optimizers'
p1667
(lp1668
g42
asS'dfs_preorder_nodes'
p1669
(lp1670
g21
asS'format_tb'
p1671
(lp1672
g792
asS'serialutil'
p1673
(lp1674
g403
asS'heapify'
p1675
(lp1676
g232
asS'updatecache'
p1677
(lp1678
S'linecache'
p1679
asS'startWindowThread'
p1680
(lp1681
g24
asS'Subdiv2DGetEdge'
p1682
(lp1683
g95
asS'isneginf'
p1684
(lp1685
g27
asS'unique'
p1686
(lp1687
g27
aS'enum'
p1688
ag12
asS'neighbor_degree'
p1689
(lp1690
g21
asS'ConfigParser'
p1691
(lp1692
g79
asS'generate_all_positive_integer_tuples'
p1693
(lp1694
g112
asS'cbook'
p1695
(lp1696
g496
asS'oneOf'
p1697
(lp1698
g296
asS'enqueue_nd_range_kernel'
p1699
(lp1700
g18
asS'renames'
p1701
(lp1702
g76
asS'is_weakly_connected'
p1703
(lp1704
g21
asS'arange'
p1705
(lp1706
g27
asS'StereoBM'
p1707
(lp1708
g24
asS'getsizeof'
p1709
(lp1710
g39
asS'transform'
p1711
(lp1712
g24
ag489
asS'fused_type'
p1713
(lp1714
g84
asS'sparse'
p1715
(lp1716
g12
asS'dfs_successors'
p1717
(lp1718
g21
asS'Operator'
p1719
(lp1720
g350
asS'registerListType'
p1721
(lp1722
g55
asS'aliasmbcs'
p1723
(lp1724
g554
asS'right'
p1725
(lp1726
g73
asS'memoize_on_first_arg'
p1727
(lp1728
g112
asS'rcdefaults'
p1729
(lp1730
g496
asS'interp'
p1731
(lp1732
g27
asS'exc_clear'
p1733
(lp1734
g39
asS'in_degree_centrality'
p1735
(lp1736
g21
asS'hypot'
p1737
(lp1738
g27
asS'dorogovtsev_goltsev_mendes_graph'
p1739
(lp1740
g21
asS'escape'
p1741
(lp1742
g58
ag62
ag438
ag158
ag170
asS'auread'
p1743
(lp1744
g203
asS'get_includes'
p1745
(lp1746
g52
asS'getgid'
p1747
(lp1748
g76
asS'manifest'
p1749
(lp1750
g354
asS'ctermid'
p1751
(lp1752
g76
asS'import_main'
p1753
(lp1754
g361
asS'float_info'
p1755
(lp1756
g39
asS'dense'
p1757
(lp1758
g21
asS'ulong'
p1759
(lp1760
g84
asS'show_numpy_config'
p1761
(lp1762
g318
asS'getcwdu'
p1763
(lp1764
g76
asS'basecommand'
p1765
(lp1766
g87
asS'get_cl_header_version'
p1767
(lp1768
g18
asS'ConvertImage'
p1769
(lp1770
g95
asS'all_pairs_node_connectivity'
p1771
(lp1772
g21
asS'allocate'
p1773
(lp1774
g1181
asS'other_types'
p1775
(lp1776
g84
asS'StringTypes'
p1777
(lp1778
S'types'
p1779
asS'gexf'
p1780
(lp1781
g21
asS'supported_encoding'
p1782
(lp1783
g203
asS'core'
p1784
(lp1785
g27
aS'certifi'
p1786
ag21
ag513
ag12
ag489
asS'ndimage'
p1787
(lp1788
g318
asS'get_frozen_object'
p1789
(lp1790
g227
asS'colormap'
p1791
(lp1792
g1412
asS'repository'
p1793
(lp1794
g788
asS'load_all'
p1795
(lp1796
g245
asS'stereoRectifyUncalibrated'
p1797
(lp1798
g24
asS'convertPointsFromHomogeneous'
p1799
(lp1800
g24
asS'cycle_graph'
p1801
(lp1802
g21
asS'pickle_complex'
p1803
(lp1804
S'copy_reg'
p1805
asS'post'
p1806
(lp1807
g435
ag653
asS'enqueue_write_image'
p1808
(lp1809
g18
asS'faster_could_be_isomorphic'
p1810
(lp1811
g21
asS'addConvenienceForBasicMapping'
p1812
(lp1813
g55
asS'getRectFromBB'
p1814
(lp1815
g270
asS'format_size'
p1816
(lp1817
g169
asS'max_weight_matching'
p1818
(lp1819
g21
asS'countedArray'
p1820
(lp1821
g296
asS'logn'
p1822
(lp1823
g318
asS'add_docstring'
p1824
(lp1825
g27
asS'getDerivKernels'
p1826
(lp1827
g24
asS'get_method_self'
p1828
(lp1829
g90
asS'generate_adjlist'
p1830
(lp1831
g21
asS'MatMulAdd'
p1832
(lp1833
g95
asS'hits_alg'
p1834
(lp1835
g21
asS'createStructAlias'
p1836
(lp1837
g55
asg743
(lp1838
g743
asS'TimeoutSetType'
p1839
(lp1840
g687
asS'adjlist'
p1841
(lp1842
g21
asS'calcBackProject'
p1843
(lp1844
g24
asS'SeqRemove'
p1845
(lp1846
g95
asS'splitext'
p1847
(lp1848
g142
asS'absdiff'
p1849
(lp1850
g24
asS'indentedBlock'
p1851
(lp1852
g296
asS'bipartite_gnmk_random_graph'
p1853
(lp1854
g21
asS'MorphologyEx'
p1855
(lp1856
g95
asS'fixup_pth_file'
p1857
(lp1858
g79
asS'empty_graph'
p1859
(lp1860
g21
asS'bytes_sockopts'
p1861
(lp1862
g52
asS'elemwise'
p1863
(lp1864
S'pygpu'
p1865
asS'add_move'
p1866
(lp1867
g90
asS'sftp_si'
p1868
(lp1869
g454
asS'subn'
p1870
(lp1871
g58
asS'is_forest'
p1872
(lp1873
g21
asS'average_node_connectivity'
p1874
(lp1875
g21
asS'generate_graph6'
p1876
(lp1877
g21
asS'git'
p1878
(lp1879
g87
ag789
asS'singleArgBuiltins'
p1880
(lp1881
g296
asS'format_stack'
p1882
(lp1883
g792
aS'joblib'
p1884
asS'attracting_components'
p1885
(lp1886
g21
asS'PyrDown'
p1887
(lp1888
g95
asS'paInvalidSampleRate'
p1889
(lp1890
g9
asS'round_'
p1891
(lp1892
g27
asS'doc_repository_specification'
p1893
(lp1894
g788
asS'getTickCount'
p1895
(lp1896
g24
asS'default_action'
p1897
(lp1898
g384
asS'gil'
p1899
(lp1900
g84
asS'GetMinMaxHistValue'
p1901
(lp1902
g95
asS'fork'
p1903
(lp1904
g76
asS'head'
p1905
(lp1906
g435
asS'type_ordering'
p1907
(lp1908
g84
asS'Algorithm_getList'
p1909
(lp1910
g24
asS'get_cached_distribution'
p1911
(lp1912
g788
asS'vitality'
p1913
(lp1914
g21
asS'failure'
p1915
(lp1916
g513
asS'pagerank'
p1917
(lp1918
g21
asS'maximum_sctype'
p1919
(lp1920
g27
asS'add_arg'
p1921
(lp1922
g337
asS'iri_to_uri'
p1923
(lp1924
g170
asS'single_valued'
p1925
(lp1926
g112
asS'wait4'
p1927
(lp1928
g76
asS'virtmem_usage'
p1929
(lp1930
g15
asS'wait3'
p1931
(lp1932
g76
asS'bipartite_havel_hakimi_graph'
p1933
(lp1934
g21
asS'Cbrt'
p1935
(lp1936
g95
asS'skipIf'
p1937
(lp1938
g117
asS'maximum'
p1939
(lp1940
g27
asS'devices'
p1941
(lp1942
g52
asS'deinit'
p1943
(lp1944
g1340
asS'obj2sctype'
p1945
(lp1946
g27
asS'getmodule'
p1947
(lp1948
g135
asS'make_response'
p1949
(lp1950
g62
asS'pygen'
p1951
(lp1952
g132
asS'PolyLine'
p1953
(lp1954
g95
asS'arccosh'
p1955
(lp1956
g27
asS'emit'
p1957
(lp1958
g245
asS'interpy_untokenize'
p1959
(lp1960
g696
asS'delete'
p1961
(lp1962
g435
ag27
ag653
asS'to_dict_of_dicts'
p1963
(lp1964
g21
asS'tril'
p1965
(lp1966
g27
asS'filterwarnings'
p1967
(lp1968
g384
asS'PyrSegmentation'
p1969
(lp1970
g95
asS'match_utf8'
p1971
(lp1972
g741
asS'classic'
p1973
(lp1974
g21
asS'connected_component_subgraphs'
p1975
(lp1976
g21
asS'LinkFileLock'
p1977
(lp1978
g588
asS'decrypt'
p1979
(lp1980
g489
asS'py_int'
p1981
(lp1982
g84
asS'createLBPHFaceRecognizer'
p1983
(lp1984
g24
asS'triu'
p1985
(lp1986
g27
asS'timezone'
p1987
(lp1988
g321
asS'floating'
p1989
(lp1990
g84
asS'triangles'
p1991
(lp1992
g21
asS'RandReal'
p1993
(lp1994
g95
asS'encrypt'
p1995
(lp1996
g489
asS'Trace'
p1997
(lp1998
g95
asS'floor'
p1999
(lp2000
g27
asS'setUseKVOForSetattr'
p2001
(lp2002
g55
asS'copencl'
p2003
(lp2004
g36
asS'dquot'
p2005
(lp2006
g741
asS'distribution_cache'
p2007
(lp2008
g788
asS'ne'
p2009
(lp2010
g220
asS'ssh_gss'
p2011
(lp2012
g454
asS'nx'
p2013
(lp2014
g21
asS'isclose'
p2015
(lp2016
g27
asS'degree_seq'
p2017
(lp2018
g21
asS'test'
p2019
(lp2020
S'StringIO'
p2021
ag42
ag27
ag496
ag21
ag36
ag15
ag1493
ag203
asS'memoize_method_nested'
p2022
(lp2023
g112
asS'nt'
p2024
(lp2025
g68
asS'roll'
p2026
(lp2027
g27
asS'network_simplex'
p2028
(lp2029
g21
asS'gpuarray'
p2030
(lp2031
g1865
asS'compare_chararrays'
p2032
(lp2033
g27
asS'genericpath'
p2034
(lp2035
g142
asS'nanvar'
p2036
(lp2037
g27
asS'models'
p2038
(lp2039
g435
ag787
ag87
asS'Double'
p2040
(lp2041
g350
asS'flacread'
p2042
(lp2043
g203
asS'getegid'
p2044
(lp2045
g76
asS'restOfLine'
p2046
(lp2047
g296
asS'list_languages'
p2048
(lp2049
g212
asS'CvtScale'
p2050
(lp2051
g95
asS'navigable_small_world_graph'
p2052
(lp2053
g21
asS'checkdep_inkscape'
p2054
(lp2055
g496
asS'hashing'
p2056
(lp2057
g1884
asS'strongly_connected'
p2058
(lp2059
g21
asS'write_shp'
p2060
(lp2061
g21
asS'getctime'
p2062
(lp2063
g142
asS'full_like'
p2064
(lp2065
g27
asS'hmac'
p2066
(lp2067
g104
ag474
asS'NormalizeHist'
p2068
(lp2069
g95
asS'base_repr'
p2070
(lp2071
g27
asS'PointPolygonTest'
p2072
(lp2073
g95
asS'argwhere'
p2074
(lp2075
g27
asS'time'
p2076
(lp2077
g739
ag109
ag169
ag104
ag588
ag270
ag68
ag15
ag403
ag149
asS'set_string_function'
p2078
(lp2079
g27
asS'appcontext_popped'
p2080
(lp2081
g62
asS'is_chordal'
p2082
(lp2083
g21
asS'release_repository_specification'
p2084
(lp2085
g788
asS'isgetsetdescriptor'
p2086
(lp2087
g135
asS'paBadStreamPtr'
p2088
(lp2089
g9
asS'setrecursionlimit'
p2090
(lp2091
g39
asS'union1d'
p2092
(lp2093
g27
asS'strongly_connected_components'
p2094
(lp2095
g21
asS'ConvertScale'
p2096
(lp2097
g95
asS'CV_BGR2Luv'
p2098
(lp2099
g95
asS'match_precision'
p2100
(lp2101
g112
asS'generate_gexf'
p2102
(lp2103
g21
asS'get_write_to_map_from_permutation'
p2104
(lp2105
g112
asS'extractChannel'
p2106
(lp2107
g24
asS'MultiplyAcc'
p2108
(lp2109
g95
asS'primes'
p2110
(lp2111
g454
asS'partition2'
p2112
(lp2113
g112
asS'CamShift'
p2114
(lp2115
g95
ag24
asS'layers'
p2116
(lp2117
g1160
asS'to_bytes'
p2118
(lp2119
g403
asS'pem'
p2120
(lp2121
g489
asS'DistTransform'
p2122
(lp2123
g95
asS'show'
p2124
(lp2125
g1412
asS'draw_networkx_edge_labels'
p2126
(lp2127
g21
asS'format_exception_only'
p2128
(lp2129
g792
asS'environment'
p2130
(lp2131
g354
ag438
asS'interpy_tokenize'
p2132
(lp2133
g696
asS'Flag'
p2134
(lp2135
g687
asS'url_quote_plus'
p2136
(lp2137
g170
asS'Accessor'
p2138
(lp2139
g55
asS'currentframe'
p2140
(lp2141
g135
asS'periphery'
p2142
(lp2143
g21
asS'division'
p2144
(lp2145
g27
ag587
ag496
ag412
ag112
ag697
asS'reinit'
p2146
(lp2147
g1340
ag45
asS'enqueue_migrate_mem_objects'
p2148
(lp2149
g18
asS'estimateAffine3D'
p2150
(lp2151
g24
asS'read_gexf'
p2152
(lp2153
g21
asS'enqueue_copy_image_to_buffer'
p2154
(lp2155
g18
asS'scatter_matrix'
p2156
(lp2157
g12
asS'SetImageCOI'
p2158
(lp2159
g95
asS'ScaleAdd'
p2160
(lp2161
g95
asS'paTimedOut'
p2162
(lp2163
g9
asS'release_cache'
p2164
(lp2165
g788
asS'CreateMatNDHeader'
p2166
(lp2167
g95
asS'reprojectImageTo3D'
p2168
(lp2169
g24
asS'seteuid'
p2170
(lp2171
g76
asS'template_rendered'
p2172
(lp2173
g62
asS'run_2to3_on_doctests'
p2174
(lp2175
g59
asS'ma'
p2176
(lp2177
g27
asS'isCallable'
p2178
(lp2179
g220
asS'subprocess'
p2180
(lp2181
g496
ag15
ag79
ag188
asS'modeline'
p2182
(lp2183
g1485
asS'getcomments'
p2184
(lp2185
g135
asS'read_pajek'
p2186
(lp2187
g21
asS'urlquote_from_bytes'
p2188
(lp2189
g68
asS'getcurrent'
p2190
(lp2191
g45
aS'greenlet'
p2192
asS'http_date'
p2193
(lp2194
g170
asS'get_py2exe_datafiles'
p2195
(lp2196
g496
asS'p'
(lp2197
S'sitecustomize'
p2198
asS'setitem'
p2199
(lp2200
g220
asS'uniform_interval_splitting'
p2201
(lp2202
g112
asg2192
(lp2203
g45
asS'node_degree_xy'
p2204
(lp2205
g21
asS'defaults'
p2206
(lp2207
g438
asS'resetwarnings'
p2208
(lp2209
g384
asS'to_edgelist'
p2210
(lp2211
g21
asS'div'
p2212
(lp2213
g220
asS'canonical_querystring'
p2214
(lp2215
g474
asS'round'
p2216
(lp2217
g27
asS'set_numeric_ops'
p2218
(lp2219
g27
asg521
(lp2220
g135
asS'pmt'
p2221
(lp2222
g27
asS'upper'
p2223
(lp2224
g279
asS'finditer'
p2225
(lp2226
g58
asS'mulSpectrums'
p2227
(lp2228
g24
asS'chordal_alg'
p2229
(lp2230
g21
asS'lstrip'
p2231
(lp2232
g279
asS'GoodFeaturesToTrack'
p2233
(lp2234
g95
asS'CV_RGB2Luv'
p2235
(lp2236
g95
asS'sign'
p2237
(lp2238
g27
ag489
asS'SquareAcc'
p2239
(lp2240
g95
asS'KeyPoint'
p2241
(lp2242
g24
asS'cmp_to_key'
p2243
(lp2244
g585
aS'functools32'
p2245
asS'autocomplete'
p2246
(lp2247
g87
asS'unicode_escape_encode'
p2248
(lp2249
g6
asS'CV_BayerGR2RGB'
p2250
(lp2251
g95
asS'Fore'
p2252
(lp2253
g1340
asS'template'
p2254
(lp2255
g58
ag132
asS'interpreters'
p2256
(lp2257
g514
asS'shared'
p2258
(lp2259
g42
asS'is_executable'
p2260
(lp2261
g79
asS'convert_matrix'
p2262
(lp2263
g21
asS'redirect'
p2264
(lp2265
g62
ag170
asS'expanding_corr_pairwise'
p2266
(lp2267
g12
asS'gateway_bootstrap'
p2268
(lp2269
S'execnet'
p2270
asS'fmax'
p2271
(lp2272
g27
asS'Decnumber'
p2273
(lp2274
g350
asS'replaceWith'
p2275
(lp2276
g296
asS'load_centrality'
p2277
(lp2278
g21
asS'checkdep_tex'
p2279
(lp2280
g496
asS'biconnected_component_subgraphs'
p2281
(lp2282
g21
asS'IsInf'
p2283
(lp2284
g95
asS'setregid'
p2285
(lp2286
g76
asS'disassemble_string'
p2287
(lp2288
g521
asS'ftruncate'
p2289
(lp2290
g76
asS'avail_phymem'
p2291
(lp2292
g15
asS'ilshift'
p2293
(lp2294
g220
asS'wait'
p2295
(lp2296
g76
asS'sftp_server'
p2297
(lp2298
g454
asS'Sobel'
p2299
(lp2300
g95
ag24
asS'goodFeaturesToTrack'
p2301
(lp2302
g24
asS'intersectConvexConvex'
p2303
(lp2304
g24
asS'SimpleBlobDetector'
p2305
(lp2306
g24
asS'asscalar'
p2307
(lp2308
g27
asS'degree_mixing_matrix'
p2309
(lp2310
g21
asS'queue'
p2311
(lp2312
g36
asS'is_attracting_component'
p2313
(lp2314
g21
asS'supported_format'
p2315
(lp2316
g203
asS'rolling_max'
p2317
(lp2318
g12
asS'IBOutlet'
p2319
(lp2320
g55
asS'accumulateProduct'
p2321
(lp2322
g24
asS'less_equal'
p2323
(lp2324
g27
asS'heapreplace'
p2325
(lp2326
g232
asS'read_weighted_edgelist'
p2327
(lp2328
g21
asS'iand'
p2329
(lp2330
g220
asS'PseudoToken'
p2331
(lp2332
g350
asS'extra'
p2333
(lp2334
g73
asS'fastNlMeansDenoising'
p2335
(lp2336
g24
asS'ImageMode'
p2337
(lp2338
g1600
asS'parse_defaults'
p2339
(lp2340
g743
asS'and_'
p2341
(lp2342
g220
asS'shell_layout'
p2343
(lp2344
g21
asS'bitwise_and'
p2345
(lp2346
g27
ag24
asS'write_adjlist'
p2347
(lp2348
g21
asS'install_activate'
p2349
(lp2350
g79
asS'Double3'
p2351
(lp2352
g350
asS'setStrBridgeEnabled'
p2353
(lp2354
g55
asS'iterencode'
p2355
(lp2356
g6
asS'makeXMLTags'
p2357
(lp2358
g296
asS'regex'
p2359
(lp2360
g73
asS'unquote_etag'
p2361
(lp2362
g170
asS'hascompare'
p2363
(lp2364
g886
asS'rindex'
p2365
(lp2366
g279
asS'Subdiv2D'
p2367
(lp2368
g24
asS'WarpPerspective'
p2369
(lp2370
g95
asS'current_app'
p2371
(lp2372
g62
asS'mixing_dict'
p2373
(lp2374
g21
asS'centrality'
p2375
(lp2376
g21
asS'get_test_results_dir'
p2377
(lp2378
g354
asS'curdir'
p2379
(lp2380
g76
asS'memory'
p2381
(lp2382
g1884
asS'encode'
p2383
(lp2384
g6
ag607
asS'qcut'
p2385
(lp2386
g12
asS'preCornerDetect'
p2387
(lp2388
g24
asS'number_of_nodes'
p2389
(lp2390
g21
asS'SubS'
p2391
(lp2392
g95
asS'zeros_like'
p2393
(lp2394
g27
asS'pathconf'
p2395
(lp2396
g76
asS'distribution'
p2397
(lp2398
g788
asS'linspace'
p2399
(lp2400
g27
asS'anyOpenTag'
p2401
(lp2402
g296
asS'process_iter'
p2403
(lp2404
g15
asS'Pointfloat'
p2405
(lp2406
g350
asS'lowercase'
p2407
(lp2408
g279
asS'cleandoc'
p2409
(lp2410
g135
asS'reprname'
p2411
(lp2412
g84
asS'purge'
p2413
(lp2414
g58
asS'fruchterman_reingold_layout'
p2415
(lp2416
g21
asS'printing'
p2417
(lp2418
g42
asS'pickle'
p2419
(lp2420
g1805
ag459
asS'paNullCallback'
p2421
(lp2422
g9
asS'address'
p2423
(lp2424
g84
asS'PutText'
p2425
(lp2426
g95
asS'formatargvalues'
p2427
(lp2428
g135
asS'get_source_build_files'
p2429
(lp2430
g788
asS'sysconf'
p2431
(lp2432
g76
asS'Min'
p2433
(lp2434
g95
asS'first_order'
p2435
(lp2436
S'downhill'
p2437
asS'rc'
p2438
(lp2439
g496
asS'add_newdoc'
p2440
(lp2441
g27
asS'sshort'
p2442
(lp2443
g84
asS'expandvars'
p2444
(lp2445
g142
asS'abort'
p2446
(lp2447
g76
asS'dump_header'
p2448
(lp2449
g170
asS'utf_8_decode'
p2450
(lp2451
g6
asS'cliques_containing_node'
p2452
(lp2453
g21
asS'cubical_graph'
p2454
(lp2455
g21
asS'BackProjectPCA'
p2456
(lp2457
g95
asS'normalize'
p2458
(lp2459
g24
asS'peek_path_info'
p2460
(lp2461
g170
asS'chroot'
p2462
(lp2463
g76
asS'registerABCForClass'
p2464
(lp2465
g55
asS'BFMatcher'
p2466
(lp2467
g24
asS'unicode_escape_decode'
p2468
(lp2469
g6
asS'idiv'
p2470
(lp2471
g220
asS'polymul'
p2472
(lp2473
g27
asS'write'
p2474
(lp2475
g76
asS'get_config_h_filename'
p2476
(lp2477
g177
asS'EllipseBox'
p2478
(lp2479
g95
asS'assertRegex'
p2480
(lp2481
g90
asS'random_clustered_graph'
p2482
(lp2483
g21
asS'tile'
p2484
(lp2485
g27
asS'matplotlib_fname'
p2486
(lp2487
g496
asS'parse_manifest_file'
p2488
(lp2489
g354
asS'random_shell_graph'
p2490
(lp2491
g21
asS'forkpty'
p2492
(lp2493
g76
asS'parse_long'
p2494
(lp2495
g743
asS'map'
p2496
(lp2497
g42
asS'product'
p2498
(lp2499
g27
ag21
ag112
asS's_'
p2500
(lp2501
g27
asS'mat'
p2502
(lp2503
g27
asS'FillConvexPoly'
p2504
(lp2505
g95
asS'unsetenv'
p2506
(lp2507
g76
asS'max'
p2508
(lp2509
g27
ag24
asS'clone'
p2510
(lp2511
g42
ag745
asS'pagerank_alg'
p2512
(lp2513
g21
asS'dyld_find'
p2514
(lp2515
g55
asS'make_main'
p2516
(lp2517
g213
asS'uint'
p2518
(lp2519
g84
asS'get_binop'
p2520
(lp2521
g1290
asS'calibrationMatrixValues'
p2522
(lp2523
g24
asS'typestr'
p2524
(lp2525
g149
asS'strtobool'
p2526
(lp2527
g79
asS'compatibility'
p2528
(lp2529
S'unittest2'
p2530
asS'connected_double_edge_swap'
p2531
(lp2532
g21
asS'paUInt8'
p2533
(lp2534
g9
asS'correlate'
p2535
(lp2536
g27
asS'infoForFramework'
p2537
(lp2538
g55
asS'maybe'
p2539
(lp2540
g350
asS'stdin'
p2541
(lp2542
g39
asS'searchsorted'
p2543
(lp2544
g27
asS'parse_list_header'
p2545
(lp2546
g170
asS'setpgrp'
p2547
(lp2548
g76
asS'utf_8_encode'
p2549
(lp2550
g6
asS'safe_dump'
p2551
(lp2552
g245
asS'graphviz_layout'
p2553
(lp2554
g21
asg1884
(lp2555
g188
asS'formatwarning'
p2556
(lp2557
g384
asS'skip'
p2558
(lp2559
g117
asS'Py_ssize_t'
p2560
(lp2561
g84
asS'CV_RGB2YCrCb'
p2562
(lp2563
g95
asS'is_valid_degree_sequence'
p2564
(lp2565
g21
asS'quote_etag'
p2566
(lp2567
g170
asS'hconcat'
p2568
(lp2569
g24
asS'sethelper'
p2570
(lp2571
g554
asS'intersect1d'
p2572
(lp2573
g27
asS'run_simple'
p2574
(lp2575
g170
asS'checkdep_usetex'
p2576
(lp2577
g496
asS'Get1D'
p2578
(lp2579
g95
asS'size_t'
p2580
(lp2581
g84
asS's_metric'
p2582
(lp2583
g21
asS'pointer'
p2584
(lp2585
g84
asS'getsourcelines'
p2586
(lp2587
g135
asS'checkRange'
p2588
(lp2589
g24
asS'sgmllib'
p2590
(lp2591
g263
asS'jid'
p2592
(lp2593
g299
asS'group'
p2594
(lp2595
g350
asS'CopyMakeBorder'
p2596
(lp2597
g95
asS'resource_stream'
p2598
(lp2599
g321
asS'read_edgelist'
p2600
(lp2601
g21
asS'simplefilter'
p2602
(lp2603
g384
asS'platform'
p2604
(lp2605
g39
ag55
asS'window'
p2606
(lp2607
g1412
asS'CalibrationMatrixValues'
p2608
(lp2609
g95
asS'caveman_graph'
p2610
(lp2611
g21
asS'main'
p2612
(lp2613
g849
ag350
aS'token'
p2614
ag459
ag87
ag149
ag1160
ag79
ag213
asS'hookspec'
p2615
(lp2616
g514
asS'ip_network'
p2617
(lp2618
g744
asS'expanduser'
p2619
(lp2620
g142
asS'graphmatrix'
p2621
(lp2622
g21
asS'serial_for_url'
p2623
(lp2624
g403
asS'bfs_successors'
p2625
(lp2626
g21
asS'is_biconnected'
p2627
(lp2628
g21
asS'findFundamentalMat'
p2629
(lp2630
g24
asS'histogram2d'
p2631
(lp2632
g27
asS'GetQuadrangleSubPix'
p2633
(lp2634
g95
asS'process'
p2635
(lp2636
g1493
asS'exit_thread'
p2637
(lp2638
g1181
asS'resource'
p2639
(lp2640
g454
asS'transitivity'
p2641
(lp2642
g21
asS'CalcArrHist'
p2643
(lp2644
g95
asS'blueprints'
p2645
(lp2646
g62
asS'with_timeout'
p2647
(lp2648
g45
asS'name'
p2649
(lp2650
g76
asS'setVerbose'
p2651
(lp2652
g55
asS'statvfs'
p2653
(lp2654
g76
asS'setreuid'
p2655
(lp2656
g76
asS'nanmedian'
p2657
(lp2658
g27
asS'root_handler'
p2659
(lp2660
g109
asS'win32'
p2661
(lp2662
g1340
asS'getpgid'
p2663
(lp2664
g76
asS'ctx_opts'
p2665
(lp2666
g52
asS'is_verbose'
p2667
(lp2668
g109
asS'getitem'
p2669
(lp2670
g220
asS'enqueue_marker'
p2671
(lp2672
g18
asS'generate_code'
p2673
(lp2674
g149
asS'format'
p2675
(lp2676
g1485
asS'square'
p2677
(lp2678
g27
asS'rospack'
p2679
(lp2680
g354
asS'GuardType'
p2681
(lp2682
g687
asS'get_suffixes'
p2683
(lp2684
g227
asS'read_msgpack'
p2685
(lp2686
g12
asS'load_dynamic'
p2687
(lp2688
g227
asS'total_ordering'
p2689
(lp2690
g585
ag2245
asS'CreateSubdivDelaunay2D'
p2691
(lp2692
g95
asS'Split'
p2693
(lp2694
g95
asS'get_current_url'
p2695
(lp2696
g170
asS'expanding_mean'
p2697
(lp2698
g12
asS'dirname'
p2699
(lp2700
g142
asS'eq'
p2701
(lp2702
g220
asS'vsplit'
p2703
(lp2704
g27
asS'CrossProduct'
p2705
(lp2706
g95
asS'Runlevel'
p2707
(lp2708
g687
asS'NormalBayesClassifier'
p2709
(lp2710
g24
asS'spring_layout'
p2711
(lp2712
g21
asS'getRotationMatrix2D'
p2713
(lp2714
g24
asS'FunctionAttributes'
p2715
(lp2716
g73
asS'expanding_var'
p2717
(lp2718
g12
asS'datetime_as_string'
p2719
(lp2720
g27
asS'wspace_plus'
p2721
(lp2722
g741
asS'sortIdx'
p2723
(lp2724
g24
asS'cubeRoot'
p2725
(lp2726
g24
asS'imencode'
p2727
(lp2728
g24
asS'clustering'
p2729
(lp2730
g21
asS'oggread'
p2731
(lp2732
g203
asS'spawn_raw'
p2733
(lp2734
g45
asS'get_template_attribute'
p2735
(lp2736
g62
asS'generate_signature'
p2737
(lp2738
g474
asS'cumproduct'
p2739
(lp2740
g27
asS'warnoptions'
p2741
(lp2742
g39
asS'argv'
p2743
(lp2744
g39
asS'meshgrid'
p2745
(lp2746
g27
asS'remainder'
p2747
(lp2748
g27
asS'net_connections'
p2749
(lp2750
g15
asS'or_'
p2751
(lp2752
g220
asS'expm1'
p2753
(lp2754
g27
asS'Subdiv2DLocate'
p2755
(lp2756
g95
asS'GetImageROI'
p2757
(lp2758
g95
asS'javaStyleComment'
p2759
(lp2760
g296
asS'expanding_skew'
p2761
(lp2762
g12
asS'house_x_graph'
p2763
(lp2764
g21
asS'rcParamsDefault'
p2765
(lp2766
g496
asS'codegen'
p2767
(lp2768
g1290
ag132
asS'check_isolated'
p2769
(lp2770
g87
asS'edgelist'
p2771
(lp2772
g21
asS'place'
p2773
(lp2774
g27
asS'Triple'
p2775
(lp2776
g350
asS'styles'
p2777
(lp2778
g1485
asS'GridAdaptedFeatureDetector'
p2779
(lp2780
g24
asS'watts_strogatz_graph'
p2781
(lp2782
g21
asS'edge_betweenness_centrality'
p2783
(lp2784
g21
asS'countOf'
p2785
(lp2786
g220
asS'doc_build_file'
p2787
(lp2788
g788
asS'curve_keypair'
p2789
(lp2790
g52
asS'rint'
p2791
(lp2792
g27
asS'CloneImage'
p2793
(lp2794
g95
asS'little_endian'
p2795
(lp2796
g27
asS'isnull'
p2797
(lp2798
g12
asS'print_last'
p2799
(lp2800
g792
asS'estrada_index'
p2801
(lp2802
g21
asg245
(lp2803
g788
asS'get_edge_attributes'
p2804
(lp2805
g21
asS'decrease_verbosity'
p2806
(lp2807
g109
asS'general_sum'
p2808
(lp2809
g112
asS'array'
p2810
(lp2811
g27
asS'open'
p2812
(lp2813
g76
asS'zmq_version'
p2814
(lp2815
g52
asS'size'
p2816
(lp2817
g27
asS'logical_xor'
p2818
(lp2819
g27
asS'paOutputUnderflow'
p2820
(lp2821
g9
asS'Repeat'
p2822
(lp2823
g95
asS'Erode'
p2824
(lp2825
g95
asS'latin_1_decode'
p2826
(lp2827
g6
asS'hasjabs'
p2828
(lp2829
g886
asS'sometrue'
p2830
(lp2831
g27
asS'SetMouseCallback'
p2832
(lp2833
g95
asS'CalcOpticalFlowFarneback'
p2834
(lp2835
g95
asS'imshow'
p2836
(lp2837
g24
ag1412
asS'parallel'
p2838
(lp2839
g1884
asS'msort'
p2840
(lp2841
g27
asS'returns'
p2842
(lp2843
g84
asS'patchable_builtin'
p2844
(lp2845
g1301
asS'attr_matrix'
p2846
(lp2847
g21
asS'constants'
p2848
(lp2849
g52
asS'minimum_spanning_edges'
p2850
(lp2851
g21
asS'increment_lineno'
p2852
(lp2853
g441
asS'KalmanFilter'
p2854
(lp2855
g24
asS'structures'
p2856
(lp2857
g435
asS'loadBundle'
p2858
(lp2859
g55
asS'istraceback'
p2860
(lp2861
g135
asS'bfs_tree'
p2862
(lp2863
g21
asS'confstr'
p2864
(lp2865
g76
asS'nansum'
p2866
(lp2867
g27
asS'FitLine'
p2868
(lp2869
g95
asS'set_eng_float_format'
p2870
(lp2871
g12
asS'link_prediction'
p2872
(lp2873
g21
asS'Mahalanobis'
p2874
(lp2875
g24
asS'histogramdd'
p2876
(lp2877
g27
asS'decorator_module'
p2878
(lp2879
g112
asS'resizeWindow'
p2880
(lp2881
g24
asS'dump_all'
p2882
(lp2883
g245
asS'read_sparse6'
p2884
(lp2885
g21
asS'getlines'
p2886
(lp2887
g1679
asS'rot90'
p2888
(lp2889
g27
asS'savetxt'
p2890
(lp2891
g27
asS'copy'
p2892
(lp2893
g27
ag109
ag270
ag21
asS'enqueue_barrier'
p2894
(lp2895
g18
asS'analyze'
p2896
(lp2897
g149
asS'Subdiv2DRotateEdge'
p2898
(lp2899
g95
asS'gateway_base'
p2900
(lp2901
g2270
asS'tril_indices_from'
p2902
(lp2903
g27
asS'complete_bipartite_graph'
p2904
(lp2905
g21
asS'require'
p2906
(lp2907
g27
asS'get_scheme_names'
p2908
(lp2909
g177
asS'simple_cycles'
p2910
(lp2911
g21
asS'release_local'
p2912
(lp2913
g170
asS'make_environment_relocatable'
p2914
(lp2915
g79
asS'typeNA'
p2916
(lp2917
g27
asS'signals_available'
p2918
(lp2919
g62
asS'quote_header_value'
p2920
(lp2921
g170
asS'punc8bit'
p2922
(lp2923
g296
asS'directed'
p2924
(lp2925
g21
asS'ast2json'
p2926
(lp2927
g2926
asS'ssh_exception'
p2928
(lp2929
g454
asS'EncodeImage'
p2930
(lp2931
g95
asS'degree_pearson_correlation_coefficient'
p2932
(lp2933
g21
asS'single_source_dijkstra'
p2934
(lp2935
g21
asS'getStrBridgeEnabled'
p2936
(lp2937
g55
asS'test_app'
p2938
(lp2939
g170
asS'not_'
p2940
(lp2941
g220
asS'locations'
p2942
(lp2943
g87
asS'CvtPixToPlane'
p2944
(lp2945
g95
asS'excepthook'
p2946
(lp2947
g39
asS'subst_path'
p2948
(lp2949
g79
asS'evalcontextfunction'
p2950
(lp2951
g438
asS'contextfunction'
p2952
(lp2953
g438
asS'SubRS'
p2954
(lp2955
g95
asS'iter_node'
p2956
(lp2957
g1290
asS'formatargspec'
p2958
(lp2959
g135
asS'any'
p2960
(lp2961
g350
ag27
ag112
asS'asfortranarray'
p2962
(lp2963
g27
asS'binary_repr'
p2964
(lp2965
g27
asS'subgraph'
p2966
(lp2967
g21
asS'imod'
p2968
(lp2969
g220
asS'kwlist'
p2970
(lp2971
g849
asS'maximal_independent_set'
p2972
(lp2973
g21
asS'apply_over_axes'
p2974
(lp2975
g27
asVwrite_gml
p2976
(lp2977
g21
asS'cookie_date'
p2978
(lp2979
g170
asS'opAssoc'
p2980
(lp2981
g296
asS'take'
p2982
(lp2983
g27
asS'algorithms'
p2984
(lp2985
g21
asS'registerDateType'
p2986
(lp2987
g55
asS'channel'
p2988
(lp2989
g454
asS'indexbytes'
p2990
(lp2991
g90
asS'realpath'
p2992
(lp2993
g142
asS'getlogin'
p2994
(lp2995
g76
asS'Name'
p2996
(lp2997
g350
asS'trace'
p2998
(lp2999
g135
ag27
ag24
asS'roster'
p3000
(lp3001
g299
asS'printable'
p3002
(lp3003
g279
asS'net_io_counters'
p3004
(lp3005
g15
asS'compress'
p3006
(lp3007
g27
ag454
asS'oggwrite'
p3008
(lp3009
g203
asS'paDirectSound'
p3010
(lp3011
g9
asS'docscrape'
p3012
(lp3013
g412
asS'normalize_encoding'
p3014
(lp3015
g65
asS'WriteFrame'
p3016
(lp3017
g95
asS'multiply'
p3018
(lp3019
g27
ag24
asS'gnc_graph'
p3020
(lp3021
g21
asS'dict_exists'
p3022
(lp3023
g212
asS'getdoc'
p3024
(lp3025
g135
asS'original_wraps'
p3026
(lp3027
g73
asS'average'
p3028
(lp3029
g27
ag112
asS'is_undefined'
p3030
(lp3031
g438
asS'calcCovarMatrix'
p3032
(lp3033
g24
asg1679
(lp3034
g792
ag135
ag384
asS'std_deviation'
p3035
(lp3036
g112
asS'parse_set_header'
p3037
(lp3038
g170
asS'link'
p3039
(lp3040
g76
asS'disjoint_union'
p3041
(lp3042
g21
asS'generate_etag'
p3043
(lp3044
g170
asS'result_type'
p3045
(lp3046
g27
asS'tzfile'
p3047
(lp3048
g321
asS'checkdep_dvipng'
p3049
(lp3050
g496
asS'url_quote'
p3051
(lp3052
g170
asS'develdistro'
p3053
(lp3054
g788
asS'run_epylint'
p3055
(lp3056
g748
asS'CV_BayerGB2BGR_VNG'
p3057
(lp3058
g95
asVgenerate_gml
p3059
(lp3060
g21
asS'bidirectional_shortest_path'
p3061
(lp3062
g21
asS'install_python'
p3063
(lp3064
g79
asS'paHostApiNotFound'
p3065
(lp3066
g9
asS'projectPoints'
p3067
(lp3068
g24
asS'CircStatus'
p3069
(lp3070
g687
asS'polarToCart'
p3071
(lp3072
g24
asS'maxint'
p3073
(lp3074
g39
ag79
asS'threshold'
p3075
(lp3076
g24
ag21
asS'is_aperiodic'
p3077
(lp3078
g21
asS'is_url'
p3079
(lp3080
g496
asS'to_timedelta'
p3081
(lp3082
g12
asS'xml'
p3083
(lp3084
g1493
asS'GetImageCOI'
p3085
(lp3086
g95
asS'showwarning'
p3087
(lp3088
g384
asS'title'
p3089
(lp3090
g1490
asS'find_defined_levels'
p3091
(lp3092
g109
asS'pyasn_radix'
p3093
(lp3094
g744
asS'func_inspect'
p3095
(lp3096
g1884
asS'FunctionTypes'
p3097
(lp3098
g73
asS'new_module'
p3099
(lp3100
g227
asS'frexp'
p3101
(lp3102
g27
asS'hierarchy'
p3103
(lp3104
g21
asS'Set1D'
p3105
(lp3106
g95
asS'normCrossCorrelation'
p3107
(lp3108
g270
asS'geometric'
p3109
(lp3110
g21
asS'secure_filename'
p3111
(lp3112
g170
asS'loadBundleFunctions'
p3113
(lp3114
g55
asS'dsplit'
p3115
(lp3116
g27
asS'BoxPoints'
p3117
(lp3118
g95
asS'setxor1d'
p3119
(lp3120
g27
asS'hookimpl'
p3121
(lp3122
g514
asS'max_flow_min_cost'
p3123
(lp3124
g21
asS'change_prefix'
p3125
(lp3126
g79
asS'get'
p3127
(lp3128
g435
ag653
asS'GetPerspectiveTransform'
p3129
(lp3130
g95
asS'GetRow'
p3131
(lp3132
g95
asS'sint'
p3133
(lp3134
g84
asS'random_geometric_graph'
p3135
(lp3136
g21
asS'getAssociatedObject'
p3137
(lp3138
g55
asS'class_types'
p3139
(lp3140
g90
asS'pseudoprog'
p3141
(lp3142
g350
asS'url_for'
p3143
(lp3144
g62
asS'varblock'
p3145
(lp3146
g489
asS'auth_handler'
p3147
(lp3148
g454
asS'findChessboardCorners'
p3149
(lp3150
g24
asS'boundary'
p3151
(lp3152
g21
asS'StreamPurpose'
p3153
(lp3154
g687
asS'prime'
p3155
(lp3156
g489
asS'deprecate'
p3157
(lp3158
g27
asS'settings'
p3159
(lp3160
g334
asS'RunningAvg'
p3161
(lp3162
g95
asS'CircBuildFlag'
p3163
(lp3164
g687
asS'median'
p3165
(lp3166
g27
ag270
asS'python_2_unicode_compatible'
p3167
(lp3168
g90
asS'non_neighbors'
p3169
(lp3170
g21
asS'threading'
p3171
(lp3172
g588
ag653
asS'a_star'
p3173
(lp3174
g112
asS'pivot_table'
p3175
(lp3176
g12
asS'convolve'
p3177
(lp3178
g27
asS'where'
p3179
(lp3180
g27
ag1786
asS'initWideAngleProjMap'
p3181
(lp3182
g24
asS'kernel'
p3183
(lp3184
g36
asS'monkeypatch_class'
p3185
(lp3186
g112
asS'float'
p3187
(lp3188
g84
asS'current_flow_betweenness_centrality_subset'
p3189
(lp3190
g21
asS'paBadIODeviceCombination'
p3191
(lp3192
g9
asS'matchShapes'
p3193
(lp3194
g24
asS'paAbort'
p3195
(lp3196
g9
asS'CV_ErrModeLeaf'
p3197
(lp3198
g95
asS'decomposeProjectionMatrix'
p3199
(lp3200
g24
asS'fitEllipse'
p3201
(lp3202
g24
asS'rolling_mean'
p3203
(lp3204
g12
asS'hits_scipy'
p3205
(lp3206
g21
asS'trivial_graph'
p3207
(lp3208
g21
asS'read_csv'
p3209
(lp3210
g12
asS'namedselector'
p3211
(lp3212
g55
asS'makedirs'
p3213
(lp3214
g76
asS'shortest_paths'
p3215
(lp3216
g21
asS'errorcode'
p3217
(lp3218
S'errno'
p3219
asS'GetStarKeypoints'
p3220
(lp3221
g95
asS'count_nonzero'
p3222
(lp3223
g27
asS'pop_path_info'
p3224
(lp3225
g170
asS'walks'
p3226
(lp3227
g788
asS'pagerank_scipy'
p3228
(lp3229
g21
asS'FastArctan'
p3230
(lp3231
g95
asS'hasjrel'
p3232
(lp3233
g886
asS'is_dominating_set'
p3234
(lp3235
g21
asS'getdefaultencoding'
p3236
(lp3237
g39
asS'vdot'
p3238
(lp3239
g27
asS'get_format_from_width'
p3240
(lp3241
g9
asS'undistort'
p3242
(lp3243
g24
asS'generate_unique_permutations'
p3244
(lp3245
g112
asS'GetAffineTransform'
p3246
(lp3247
g95
asS'convert_path'
p3248
(lp3249
g59
asS'paInvalidChannelCount'
p3250
(lp3251
g9
asS'set_printoptions'
p3252
(lp3253
g27
asS'Get2D'
p3254
(lp3255
g95
asS'pyrMeanShiftFiltering'
p3256
(lp3257
g24
asS'is_eulerian'
p3258
(lp3259
g21
asS'ConvexityDefects'
p3260
(lp3261
g95
asS'vcs_base'
p3262
(lp3263
g789
asS'StereoCalibrate'
p3264
(lp3265
g95
asS'CreateCameraCapture'
p3266
(lp3267
g95
asS'fcntl'
p3268
(lp3269
g403
asS'itruediv'
p3270
(lp3271
g220
asS'CalcHist'
p3272
(lp3273
g95
asS'reverse_dictionary'
p3274
(lp3275
g112
asS's'
(lp3276
g496
asS'cyaml'
p3277
(lp3278
g245
asS'xspec'
p3279
(lp3280
g2270
asS'remove_hop_by_hop_headers'
p3281
(lp3282
g170
asS'utf_16_le_decode'
p3283
(lp3284
g6
asS'open_resource'
p3285
(lp3286
g321
asS'common_prefix'
p3287
(lp3288
g112
asS'spectral_layout'
p3289
(lp3290
g21
asS'davis_southern_women_graph'
p3291
(lp3292
g21
asS'fromiter'
p3293
(lp3294
g27
asS'NamedWindow'
p3295
(lp3296
g95
asS'key'
p3297
(lp3298
g496
ag489
asS'nx_shp'
p3299
(lp3300
g21
asS'ConvertPointsHomogeneous'
p3301
(lp3302
g95
asS'color'
p3303
(lp3304
g1412
asS'pow'
p3305
(lp3306
g220
ag24
asS'single_source_shortest_path'
p3307
(lp3308
g21
asS'connected_caveman_graph'
p3309
(lp3310
g21
asS'pos'
p3311
(lp3312
g220
asS'poly'
p3313
(lp3314
g27
asS'connectivity'
p3315
(lp3316
g21
asS'draw_shell'
p3317
(lp3318
g21
asS'config_elements'
p3319
(lp3320
S'wstool'
p3321
asS'sentinel'
p3322
(lp3323
g73
asS'vcs_abstraction'
p3324
(lp3325
g789
asS'sdifread'
p3326
(lp3327
g203
asS'format_path'
p3328
(lp3329
g169
asS'common_timezones_set'
p3330
(lp3331
g321
asS'node_connectivity'
p3332
(lp3333
g21
asS'isContourConvex'
p3334
(lp3335
g24
asS'tensordot'
p3336
(lp3337
g27
asS'get_process_list'
p3338
(lp3339
g15
asS'InitFont'
p3340
(lp3341
g95
asS'invert'
p3342
(lp3343
g220
ag27
ag24
asS'path_hooks'
p3344
(lp3345
g39
asS'sftp_file'
p3346
(lp3347
g454
asS'append_slash_redirect'
p3348
(lp3349
g170
asS'wheel_graph'
p3350
(lp3351
g21
asS'StereoVar'
p3352
(lp3353
g24
asS'listInstanceVariables'
p3354
(lp3355
g55
asS'source_file'
p3356
(lp3357
g788
asS'CV_BGR2Lab'
p3358
(lp3359
g95
asS'unicode_internal_encode'
p3360
(lp3361
g6
asS'stack_size'
p3362
(lp3363
g1181
asS'get_etc_ros_dir'
p3364
(lp3365
g354
asS'get_unaryop'
p3366
(lp3367
g1290
asS'isposinf'
p3368
(lp3369
g27
asS'execvpe'
p3370
(lp3371
g76
asS'arcsin'
p3372
(lp3373
g27
asS'prereq'
p3374
(lp3375
g687
asS'commands'
p3376
(lp3377
g87
asS'Watershed'
p3378
(lp3379
g95
asS'traversal'
p3380
(lp3381
g21
asS'isgeneratorfunction'
p3382
(lp3383
g135
asS'external'
p3384
(lp3385
g21
ag788
asS'rectify3Collinear'
p3386
(lp3387
g24
asS'all_symbols'
p3388
(lp3389
g1290
asS'matrixlib'
p3390
(lp3391
g27
asS'utf_32_decode'
p3392
(lp3393
g6
asS'Round'
p3394
(lp3395
g95
asS'case'
p3396
(lp3397
g513
ag117
asS'core_number'
p3398
(lp3399
g21
asS'solveCubic'
p3400
(lp3401
g24
asS'plugin'
p3402
(lp3403
g1485
asS'json_available'
p3404
(lp3405
g62
asS'compile'
p3406
(lp3407
g58
ag42
ag436
asS'cast'
p3408
(lp3409
g27
asS'get_ros_paths'
p3410
(lp3411
g354
asS'get_index_url'
p3412
(lp3413
g788
asS'min_cost_flow'
p3414
(lp3415
g21
asS'winterm'
p3416
(lp3417
g1340
asS'registerStructAlias'
p3418
(lp3419
g55
asS'mgrid'
p3420
(lp3421
g27
asS'setuid'
p3422
(lp3423
g76
asS'get_installed_pythons'
p3424
(lp3425
g79
asS'chordal_graph_treewidth'
p3426
(lp3427
g21
asS'stdout'
p3428
(lp3429
g39
ag361
asS'fillConvexPoly'
p3430
(lp3431
g24
asS'utils'
p3432
(lp3433
S'interpy.codec'
p3434
ag435
ag42
ag787
ag21
ag87
ag212
ag52
ag188
ag438
asS'einsum'
p3435
(lp3436
g27
asS'meta_path'
p3437
(lp3438
g39
asS'parse'
p3439
(lp3440
g245
ag441
ag2926
aS'cssselect'
p3441
asS'cluster'
p3442
(lp3443
g21
asS'parse_expr'
p3444
(lp3445
g743
asS'Back'
p3446
(lp3447
g1340
asS'logaddexp2'
p3448
(lp3449
g27
asS'asmatrix'
p3450
(lp3451
g27
asS'ascii'
p3452
(lp3453
g65
ag321
asS'octdigits'
p3454
(lp3455
g279
asS'binary'
p3456
(lp3457
g21
asS'canonical_path'
p3458
(lp3459
g474
asS'spawnlpe'
p3460
(lp3461
g76
asS'author'
p3462
(lp3463
g1490
asS'reshape'
p3464
(lp3465
g27
asS'has_path'
p3466
(lp3467
g21
asS'getdlopenflags'
p3468
(lp3469
g39
asS'locking'
p3470
(lp3471
S'qtutils'
p3472
asS'commonHTMLEntity'
p3473
(lp3474
g296
asS'StartWindowThread'
p3475
(lp3476
g95
asS'html'
p3477
(lp3478
g170
asS'recfromcsv'
p3479
(lp3480
g27
asS'triple_quoted'
p3481
(lp3482
g350
asS'dijkstra_path_length'
p3483
(lp3484
g21
asS'utf_32_ex_decode'
p3485
(lp3486
g6
asS'find_induced_nodes'
p3487
(lp3488
g21
asS'CV_RGB2Lab'
p3489
(lp3490
g95
asS'events'
p3491
(lp3492
g245
asS'Resize'
p3493
(lp3494
g95
asS'CircClosureReason'
p3495
(lp3496
g687
asS'ThreshHist'
p3497
(lp3498
g95
asS'is_multigraphical'
p3499
(lp3500
g21
asS'calculateBBCenter'
p3501
(lp3502
g270
asS'ordered_merge'
p3503
(lp3504
g12
asS'updateMotionHistory'
p3505
(lp3506
g24
asS'Signal'
p3507
(lp3508
g687
asS'MeanShift'
p3509
(lp3510
g95
asS'is_frozen'
p3511
(lp3512
g227
ag21
asS'ancestors'
p3513
(lp3514
g21
asS'registerResult'
p3515
(lp3516
g117
asS'mafromtxt'
p3517
(lp3518
g27
asS'LoadImage'
p3519
(lp3520
g95
asS'SetData'
p3521
(lp3522
g95
asS'greater_equal'
p3523
(lp3524
g27
asS'displayhook'
p3525
(lp3526
g39
asS'trapz'
p3527
(lp3528
g27
asS'findTestCases'
p3529
(lp3530
g117
asS'adaptiveBilateralFilter'
p3531
(lp3532
g24
asS'solve'
p3533
(lp3534
g24
asS'components'
p3535
(lp3536
g21
asS'config_yaml'
p3537
(lp3538
g3321
asS'stream_with_context'
p3539
(lp3540
g62
asS'clear_caches'
p3541
(lp3542
g438
asS'is_connected'
p3543
(lp3544
g21
asS'ascontiguousarray'
p3545
(lp3546
g27
asS'loadFunctionList'
p3547
(lp3548
g55
asS'find_wheels'
p3549
(lp3550
g79
asS'capacity_scaling'
p3551
(lp3552
g21
asS'absolute_import'
p3553
(lp3554
g90
ag27
ag587
ag45
ag588
ag496
ag21
ag412
ag87
ag112
ag697
ag789
asS'ra_index_soundarajan_hopcroft'
p3555
(lp3556
g21
asS'addpackage'
p3557
(lp3558
g554
asS'send_from_directory'
p3559
(lp3560
g62
asS'venv'
p3561
(lp3562
g514
asS'kill'
p3563
(lp3564
g76
asS'karate_club_graph'
p3565
(lp3566
g21
asS'unicode'
p3567
(lp3568
g84
asS'is_single_valued'
p3569
(lp3570
g112
asS'optimizer'
p3571
(lp3572
g438
asS'gn_graph'
p3573
(lp3574
g21
asS'default_int_handler'
p3575
(lp3576
g1057
asS'feedforward'
p3577
(lp3578
g1160
asS'network_io_counters'
p3579
(lp3580
g15
asS'CreateTrackbar'
p3581
(lp3582
g95
asS'CV_BayerBG2RGB'
p3583
(lp3584
g95
asS'isscalar'
p3585
(lp3586
g27
asS'struct'
p3587
(lp3588
g403
ag149
ag79
asS'setBEGINLIBPATH'
p3589
(lp3590
g554
asS'draw_graphviz'
p3591
(lp3592
g21
asS'untokenize'
p3593
(lp3594
g350
asS'unpickler'
p3595
(lp3596
g321
asS'subversion'
p3597
(lp3598
g39
ag87
asS'addWeighted'
p3599
(lp3600
g24
asS'SnakeImage'
p3601
(lp3602
g95
asS'Mahalonobis'
p3603
(lp3604
g95
asS'integral2'
p3605
(lp3606
g24
asS'delimitedList'
p3607
(lp3608
g296
asS'image_from_array'
p3609
(lp3610
g18
asS'repythonify'
p3611
(lp3612
g55
asS'set_option'
p3613
(lp3614
g12
asS'ERTrees'
p3615
(lp3616
g24
asS'real'
p3617
(lp3618
g27
asS'dijkstra_path'
p3619
(lp3620
g21
asS'rshift'
p3621
(lp3622
g220
asS'around'
p3623
(lp3624
g27
asS'Imagnumber'
p3625
(lp3626
g350
asS'read'
p3627
(lp3628
g76
asS'getBuildInformation'
p3629
(lp3630
g24
asS'Transform'
p3631
(lp3632
g95
asS'np'
p3633
(lp3634
g270
ag12
ag188
asS'Token'
p3635
(lp3636
g350
asS'request_started'
p3637
(lp3638
g62
asS'Scharr'
p3639
(lp3640
g24
asS'draw_networkx'
p3641
(lp3642
g21
asS'mod'
p3643
(lp3644
g220
ag27
asS'protocol_handler_packages'
p3645
(lp3646
g403
asS'findNonZero'
p3647
(lp3648
g24
asS'enqueue_read_buffer'
p3649
(lp3650
g18
asS'has_request_context'
p3651
(lp3652
g62
asS'GetCols'
p3653
(lp3654
g95
asS'array_equiv'
p3655
(lp3656
g27
asS'server'
p3657
(lp3658
g454
asS'rolling_window'
p3659
(lp3660
g12
asS'Expfloat'
p3661
(lp3662
g350
asS'asarray_chkfinite'
p3663
(lp3664
g27
asS'read_table'
p3665
(lp3666
g12
asS't'
(lp3667
g350
asS'send_file'
p3668
(lp3669
g62
asS'ClearND'
p3670
(lp3671
g95
asS'get_docstring'
p3672
(lp3673
g441
asS'spectral_ordering'
p3674
(lp3675
g21
asS'filter_install_output'
p3676
(lp3677
g79
asS'all_simple_paths'
p3678
(lp3679
g21
asS'dense_gnm_random_graph'
p3680
(lp3681
g21
asS'version_string'
p3682
(lp3683
g1508
asS'get_release'
p3684
(lp3685
g788
asS'url_unquote'
p3686
(lp3687
g170
asS'uppercase'
p3688
(lp3689
g279
asS'in1d'
p3690
(lp3691
g27
asS'portNotOpenError'
p3692
(lp3693
g403
asS'normalized_laplacian_matrix'
p3694
(lp3695
g21
asS'find_max_where'
p3696
(lp3697
g112
asS'memoize_method'
p3698
(lp3699
g112
asS'graph_number_of_cliques'
p3700
(lp3701
g21
asS'diagflat'
p3702
(lp3703
g27
asS'sedgewick_maze_graph'
p3704
(lp3705
g21
asS'Get3D'
p3706
(lp3707
g95
asS'matching'
p3708
(lp3709
g21
asS'users'
p3710
(lp3711
g15
asS'nonzero'
p3712
(lp3713
g27
asS'dumps'
p3714
(lp3715
g2270
asS'rsync'
p3716
(lp3717
g2270
asS'kaiser'
p3718
(lp3719
g27
asS'urlquote'
p3720
(lp3721
g68
asS'operators'
p3722
(lp3723
g21
asS'MkdirFileLock'
p3724
(lp3725
g588
asS'temp_test'
p3726
(lp3727
g95
asS'ArcLength'
p3728
(lp3729
g95
asS'Ceil'
p3730
(lp3731
g95
asS'fastNlMeansDenoisingMulti'
p3732
(lp3733
g24
asS'get_function_code'
p3734
(lp3735
g90
asS'generate_timestamp'
p3736
(lp3737
g474
asS'polysub'
p3738
(lp3739
g27
asS'exit'
p3740
(lp3741
g1181
ag39
asS'tsquot'
p3742
(lp3743
g741
asS'getmembers'
p3744
(lp3745
g135
asS'fromfile'
p3746
(lp3747
g27
asS'CalcOpticalFlowLK'
p3748
(lp3749
g95
asS'nanmax'
p3750
(lp3751
g27
asS'build_time_vars'
p3752
(lp3753
g2198
asS'KalmanPredict'
p3754
(lp3755
g95
asS'seterrobj'
p3756
(lp3757
g27
asS'power'
p3758
(lp3759
g27
asS'write_pajek'
p3760
(lp3761
g21
asg135
(lp3762
g742
ag73
ag361
asS'get_package_name'
p3763
(lp3764
g354
asS'urllib2'
p3765
(lp3766
g653
asS'enqueue_copy_buffer_to_image'
p3767
(lp3768
g18
asS'edge_connectivity'
p3769
(lp3770
g21
asS'generate_password_hash'
p3771
(lp3772
g170
asS'bazaar'
p3773
(lp3774
g87
asS'print_function'
p3775
(lp3776
g27
ag587
aS'macholib'
p3777
ag496
ag412
ag112
ag3472
ag788
ag697
ag789
asS'EncodedFile'
p3778
(lp3779
g6
asS'all_equal'
p3780
(lp3781
g112
asS'nanmean'
p3782
(lp3783
g27
asS'ClearSeq'
p3784
(lp3785
g95
asS'py3compat'
p3786
(lp3787
g454
asS'getOptimalNewCameraMatrix'
p3788
(lp3789
g24
asS'MinMaxLoc'
p3790
(lp3791
g95
asS'format_list'
p3792
(lp3793
g792
asS'get_platforms'
p3794
(lp3795
g36
asS'xmlstream'
p3796
(lp3797
g299
asS'getUseKVOForSetattr'
p3798
(lp3799
g55
asS'average_neighbor_degree'
p3800
(lp3801
g21
asS'extract_path_info'
p3802
(lp3803
g170
asS'release_lock'
p3804
(lp3805
g227
asS'spsd'
p3806
(lp3807
g270
asS'soundio'
p3808
(lp3809
g203
asS'keepOriginalText'
p3810
(lp3811
g296
asS'average_degree_connectivity'
p3812
(lp3813
g21
asS'ones_like'
p3814
(lp3815
g27
asS'SolveCubic'
p3816
(lp3817
g95
asS'curses'
p3818
(lp3819
g1301
asS'image'
p3820
(lp3821
g1412
asS'enqueue_write_buffer_rect'
p3822
(lp3823
g18
asS'SshGateway'
p3824
(lp3825
g2270
asS'dfs_postorder_nodes'
p3826
(lp3827
g21
asS'annotate'
p3828
(lp3829
g337
ag149
asS'ewmcov'
p3830
(lp3831
g12
asS'Add'
p3832
(lp3833
g95
asS'traceParseAction'
p3834
(lp3835
g296
asS'strip'
p3836
(lp3837
g279
asg220
(lp3838
g90
ag104
ag112
asS'pivot'
p3839
(lp3840
g12
asS'RealScalar'
p3841
(lp3842
g95
asg1636
(lp3843
g296
asS'create_environment'
p3844
(lp3845
g79
asS'paALSA'
p3846
(lp3847
g9
asS'paIncompatibleHostApiSpecificStreamInfo'
p3848
(lp3849
g9
asS'Infinity'
p3850
(lp3851
g27
asS'log'
p3852
(lp3853
g27
ag24
ag740
ag337
ag1493
asS'putenv'
p3854
(lp3855
g76
asS'find_module'
p3856
(lp3857
g227
asS'fdopen'
p3858
(lp3859
g76
asS'utf_32_le_decode'
p3860
(lp3861
g6
asS'calcGlobalOrientation'
p3862
(lp3863
g24
asS'paPrimingOutput'
p3864
(lp3865
g9
asS'decode'
p3866
(lp3867
g6
asS'start'
p3868
(lp3869
g149
asS'broadcast_arrays'
p3870
(lp3871
g27
asS'is_digraphical'
p3872
(lp3873
g21
asS'irshift'
p3874
(lp3875
g220
asS'rmdir'
p3876
(lp3877
g76
asS'rolling_var'
p3878
(lp3879
g12
asS'read_fwf'
p3880
(lp3881
g12
asS'abs__file__'
p3882
(lp3883
g554
asS'isfunction'
p3884
(lp3885
g135
asS'DTree'
p3886
(lp3887
g24
asS'hookspecs'
p3888
(lp3889
g514
asS'groupRectangles'
p3890
(lp3891
g24
asS'getmoduleinfo'
p3892
(lp3893
g135
asS'linalg'
p3894
(lp3895
g27
ag21
asS'GetCol'
p3896
(lp3897
g95
asS'createCLAHE'
p3898
(lp3899
g24
asS'delayed'
p3900
(lp3901
g1884
asS'ImageFilter'
p3902
(lp3903
g1600
asS'paOutputOverflow'
p3904
(lp3905
g9
asS'florentine_families_graph'
p3906
(lp3907
g21
asS'intern'
p3908
(lp3909
g68
ag112
asS'ungroup'
p3910
(lp3911
g296
asS'SetIdentity'
p3912
(lp3913
g95
asS'checkdep_xmllint'
p3914
(lp3915
g496
asS'remove_entity_headers'
p3916
(lp3917
g170
asS'GrabFrame'
p3918
(lp3919
g95
asS'argmin'
p3920
(lp3921
g27
ag112
asS'default'
p3922
(lp3923
g496
asS'adjacency_matrix'
p3924
(lp3925
g21
asS'pyzmq_version_info'
p3926
(lp3927
g52
asS'FindDataMatrix'
p3928
(lp3929
g95
asS'setIdentity'
p3930
(lp3931
g24
asS'write_weighted_edgelist'
p3932
(lp3933
g21
asS'isNumberType'
p3934
(lp3935
g220
asS'Avg'
p3936
(lp3937
g95
asS'setMouseCallback'
p3938
(lp3939
g24
asS'common_dtype'
p3940
(lp3941
g112
asS'Special'
p3942
(lp3943
g350
asS'ifloordiv'
p3944
(lp3945
g220
asS'paNoError'
p3946
(lp3947
g9
asS'topological_sort'
p3948
(lp3949
g21
asS'scanner'
p3950
(lp3951
g245
asS'add_representer'
p3952
(lp3953
g245
asS'getMedian'
p3954
(lp3955
g270
asS'filterSpeckles'
p3956
(lp3957
g24
asS'modules'
p3958
(lp3959
g39
asS'PseudoExtras'
p3960
(lp3961
g350
asS'ewmstd'
p3962
(lp3963
g12
asS'GetSubRect'
p3964
(lp3965
g95
asS'manifest_provider'
p3966
(lp3967
g788
asS'random_graphs'
p3968
(lp3969
g21
asS'file'
p3970
(lp3971
g454
asS'StereoRectify'
p3972
(lp3973
g95
asS'print_list'
p3974
(lp3975
g792
asS'moves'
p3976
(lp3977
g90
asS'typedSelector'
p3978
(lp3979
g55
asS'circular_ladder_graph'
p3980
(lp3981
g21
asS'recfromtxt'
p3982
(lp3983
g27
asS'hits_numpy'
p3984
(lp3985
g21
asS'check_enableusersite'
p3986
(lp3987
g554
asS'ORClosureReason'
p3988
(lp3989
g687
asS'hybrid'
p3990
(lp3991
g21
asS'setslice'
p3992
(lp3993
g220
asS'write_gexf'
p3994
(lp3995
g21
asS'from_host'
p3996
(lp3997
g36
asS'waitKey'
p3998
(lp3999
g24
asS'real_if_close'
p4000
(lp4001
g27
asS'commonprefix'
p4002
(lp4003
g142
asS'paCanNotWriteToAnInputOnlyStream'
p4004
(lp4005
g9
asS'StreamStatus'
p4006
(lp4007
g687
asS'templating'
p4008
(lp4009
g62
asS'swapcase'
p4010
(lp4011
g279
asS'project_down'
p4012
(lp4013
g21
asS'ansi'
p4014
(lp4015
g1340
asS'get_anyop'
p4016
(lp4017
g1290
asS'isinf'
p4018
(lp4019
g27
asS'make_small_graph'
p4020
(lp4021
g21
asS'concat'
p4022
(lp4023
g220
ag12
asS'CreateHist'
p4024
(lp4025
g95
asS'condensation'
p4026
(lp4027
g21
asS'getuid'
p4028
(lp4029
g76
asS'integer_types'
p4030
(lp4031
g90
asS'SocketGateway'
p4032
(lp4033
g2270
asS'pappus_graph'
p4034
(lp4035
g21
asS'get_value'
p4036
(lp4037
g2926
asS'Ellipse'
p4038
(lp4039
g95
asS'chown'
p4040
(lp4041
g76
asS'ShowImage'
p4042
(lp4043
g95
asS'u'
(lp4044
g90
asS'serializer'
p4045
(lp4046
g245
asS'get_parameters'
p4047
(lp4048
g653
asS'cpp'
p4049
(lp4050
g149
asS'signals'
p4051
(lp4052
g117
ag62
asS'to_networkx_graph'
p4053
(lp4054
g21
asS'read_graph6'
p4055
(lp4056
g21
asS'paSampleFormatNotSupported'
p4057
(lp4058
g9
asS'disp'
p4059
(lp4060
g27
asS'neighbors'
p4061
(lp4062
g21
asS'all'
p4063
(lp4064
g27
ag21
ag112
asS'removeQuotes'
p4065
(lp4066
g296
asS'gaussian_random_partition_graph'
p4067
(lp4068
g21
asS'tensor_product'
p4069
(lp4070
g21
asS'set_param'
p4071
(lp4072
g212
asS'CV_BayerGR2BGR'
p4073
(lp4074
g95
asS'GetTextSize'
p4075
(lp4076
g95
asS'iniconfig'
p4077
(lp4078
g1493
asS'unweighted'
p4079
(lp4080
g21
asS'scalar'
p4081
(lp4082
g42
asS'code'
p4083
(lp4084
g1493
asS'fftpack'
p4085
(lp4086
g318
asS'lexicographic_product'
p4087
(lp4088
g21
asS'SeqRemoveSlice'
p4089
(lp4090
g95
asS'disk'
p4091
(lp4092
g1884
asS'fixup_pth_and_egg_link'
p4093
(lp4094
g79
asS'ptp'
p4095
(lp4096
g27
asS'getclasstree'
p4097
(lp4098
g135
asg1621
(lp4099
g1621
asS'squot'
p4100
(lp4101
g741
asS'kex_group1'
p4102
(lp4103
g454
asS'isgenerator'
p4104
(lp4105
g135
asS'linesep'
p4106
(lp4107
g76
asS'cycle_basis'
p4108
(lp4109
g21
asS'SetCaptureProperty'
p4110
(lp4111
g95
asS'getsignal'
p4112
(lp4113
g1057
asS'init'
p4114
(lp4115
g1340
asS'program'
p4116
(lp4117
g36
asS'minver'
p4118
(lp4119
g79
asS'rstrip'
p4120
(lp4121
g279
asS'numeric_mixing_matrix'
p4122
(lp4123
g21
asS'stochastic'
p4124
(lp4125
g21
asS'nodes'
p4126
(lp4127
g245
ag21
ag438
asS'makedev'
p4128
(lp4129
g76
asS'SolvePoly'
p4130
(lp4131
g95
asS'norm'
p4132
(lp4133
g24
asS'bdate_range'
p4134
(lp4135
g12
asS'expanding_cov'
p4136
(lp4137
g12
asS'arrowedLine'
p4138
(lp4139
g24
asS'getframeinfo'
p4140
(lp4141
g135
asS'getDefaultNewCameraMatrix'
p4142
(lp4143
g24
asS'int2byte'
p4144
(lp4145
g90
asS'reader'
p4146
(lp4147
g245
asS'FindExtrinsicCameraParams2'
p4148
(lp4149
g95
asS'util'
p4150
(lp4151
g2437
ag513
ag12
ag454
ag299
ag687
ag1160
ag117
ag132
ag1485
ag213
asS'wait_for_events'
p4152
(lp4153
g18
asS'iconcat'
p4154
(lp4155
g220
asS'slong'
p4156
(lp4157
g84
asS'get_doc_file'
p4158
(lp4159
g788
asS'initModule_nonfree'
p4160
(lp4161
g24
asS'difference'
p4162
(lp4163
g21
asS'astar_path_length'
p4164
(lp4165
g21
asS'adamic_adar_index'
p4166
(lp4167
g21
asS'utime'
p4168
(lp4169
g76
asS'lktrack'
p4170
(lp4171
g270
asS'array_equal'
p4172
(lp4173
g27
asS'joinall'
p4174
(lp4175
g45
asS'distb'
p4176
(lp4177
g521
asS'tcsetpgrp'
p4178
(lp4179
g76
asS'isdatadescriptor'
p4180
(lp4181
g135
asS'inmain'
p4182
(lp4183
g3472
asS'isabs'
p4184
(lp4185
g142
asS'CreateMatND'
p4186
(lp4187
g95
asS'destroyAllWindows'
p4188
(lp4189
g24
asS'stderr'
p4190
(lp4191
g39
asS'small'
p4192
(lp4193
g21
asS'pythonStyleComment'
p4194
(lp4195
g296
asS'cookies'
p4196
(lp4197
g435
asS'Log'
p4198
(lp4199
g95
asS'formatannotation'
p4200
(lp4201
g587
asS'getprofile'
p4202
(lp4203
g39
asS'print_exception'
p4204
(lp4205
g792
asS'tee'
p4206
(lp4207
S'itertools'
p4208
asS'CV_Luv2RGB'
p4209
(lp4210
g95
asS'parse_shorts'
p4211
(lp4212
g743
asS'after_this_request'
p4213
(lp4214
g62
asS'DestroyDB'
p4215
(lp4216
g842
asS'mknod'
p4217
(lp4218
g76
asS'plugins'
p4219
(lp4220
g513
ag299
asS'is_'
p4221
(lp4222
g220
asS'Circle'
p4223
(lp4224
g95
asS'dispatch_table'
p4225
(lp4226
g1805
asS'flatten_errors'
p4227
(lp4228
g741
asS'appcontext_pushed'
p4229
(lp4230
g62
asS'GetCaptureProperty'
p4231
(lp4232
g95
asS'xor'
p4233
(lp4234
g220
asS'sub'
p4235
(lp4236
g220
ag58
asS'diag'
p4237
(lp4238
g27
asS'onceregistry'
p4239
(lp4240
g384
asS'laplacianmatrix'
p4241
(lp4242
g21
asS'fama_macbeth'
p4243
(lp4244
g12
asS'importer'
p4245
(lp4246
g513
asS'abs'
p4247
(lp4248
g220
ag27
asS'eigenvector_centrality_numpy'
p4249
(lp4250
g21
asS'request_dict'
p4251
(lp4252
g212
asS'CaptureFromCAM'
p4253
(lp4254
g95
asS'Set3D'
p4255
(lp4256
g95
asS'tslib'
p4257
(lp4258
g12
asS'parse_command_line_options'
p4259
(lp4260
g149
asS'eulerian_circuit'
p4261
(lp4262
g21
asS'full'
p4263
(lp4264
g27
asS'hash'
p4265
(lp4266
g1884
asS'setpgid'
p4267
(lp4268
g76
asS'optparse'
p4269
(lp4270
g87
ag79
asS'expectedFailure'
p4271
(lp4272
g117
asS'logspace'
p4273
(lp4274
g27
asS'bitlog2'
p4275
(lp4276
g18
asS'removeduppaths'
p4277
(lp4278
g554
asS'update_wrapper'
p4279
(lp4280
g585
ag2245
asS'ScalarAll'
p4281
(lp4282
g95
asS'hashtable'
p4283
(lp4284
g12
asS'fchdir'
p4285
(lp4286
g76
asS'rolling_sum'
p4287
(lp4288
g12
asS'typedAccessor'
p4289
(lp4290
g55
asS'paSoundManager'
p4291
(lp4292
g9
asS'trunc'
p4293
(lp4294
g27
asS'Cursor'
p4295
(lp4296
g1340
asS'search'
p4297
(lp4298
g58
ag436
asS'ansi_text'
p4299
(lp4300
g109
asS'is_branching'
p4301
(lp4302
g21
asg2021
(lp4303
g788
asS'Single3'
p4304
(lp4305
g350
asS'sglQuotedString'
p4306
(lp4307
g296
asS'defined_names'
p4308
(lp4309
g334
asS'popen'
p4310
(lp4311
g76
asS'getencoder'
p4312
(lp4313
g6
asS'ConvertMaps'
p4314
(lp4315
g95
asS'approximate_current_flow_betweenness_centrality'
p4316
(lp4317
g21
asS'find_modules'
p4318
(lp4319
g170
asS'options'
p4320
(lp4321
g435
ag12
ag55
asS'get_dummies'
p4322
(lp4323
g12
asS'kex_gss'
p4324
(lp4325
g454
asS'trainer'
p4326
(lp4327
g1160
asS'chamerMatching'
p4328
(lp4329
g24
asS'Style'
p4330
(lp4331
g1340
asS'flash'
p4332
(lp4333
g62
asS'CloneSeq'
p4334
(lp4335
g95
asS'verbose'
p4336
(lp4337
g496
asS'tokenizer'
p4338
(lp4339
g3434
asS'node_attribute_xy'
p4340
(lp4341
g21
asS'str2json'
p4342
(lp4343
g2926
asS'sdifwrite'
p4344
(lp4345
g203
asS'could_be_isomorphic'
p4346
(lp4347
g21
asS'getmtime'
p4348
(lp4349
g142
asS'register_dtype'
p4350
(lp4351
g1865
asS'degree_mixing_dict'
p4352
(lp4353
g21
asS'base64_encode'
p4354
(lp4355
g104
asS'sequenceIncludes'
p4356
(lp4357
g220
asS'select'
p4358
(lp4359
g27
ag403
ag52
asS'k_nearest_neighbors'
p4360
(lp4361
g21
asS'deg2rad'
p4362
(lp4363
g27
asS'executable'
p4364
(lp4365
g39
asS'eye'
p4366
(lp4367
g27
asS'calcOpticalFlowPyrLK'
p4368
(lp4369
g24
asS'setup_logger'
p4370
(lp4371
g789
asS'contains'
p4372
(lp4373
g220
asS'busday_offset'
p4374
(lp4375
g27
asS'charmap_encode'
p4376
(lp4377
g6
asS'betweenness'
p4378
(lp4379
g21
asS'degree_histogram'
p4380
(lp4381
g21
asS'withAttribute'
p4382
(lp4383
g296
asS'approxPolyDP'
p4384
(lp4385
g24
asS'betweenness_centrality_subset'
p4386
(lp4387
g21
asS'genfromtxt'
p4388
(lp4389
g27
asS'execsitecustomize'
p4390
(lp4391
g554
asS'minor'
p4392
(lp4393
g76
asS'wavread'
p4394
(lp4395
g203
asS'algebraicconnectivity'
p4396
(lp4397
g21
asS'insertChannel'
p4398
(lp4399
g24
asS'longdouble'
p4400
(lp4401
g84
asS'erode'
p4402
(lp4403
g24
asS'clearcache'
p4404
(lp4405
g1679
asS'abspath'
p4406
(lp4407
g142
asS'astar'
p4408
(lp4409
g21
asS'instancemethod'
p4410
(lp4411
g55
asS'Not'
p4412
(lp4413
g95
asS'negate_tuple'
p4414
(lp4415
g112
asS'all_pairs_dijkstra_path'
p4416
(lp4417
g21
asS'multipart_encode'
p4418
(lp4419
g653
asS'get_random_fortune'
p4420
(lp4421
g459
asS'generate_all_integer_tuples_below'
p4422
(lp4423
g112
asS'Laplace'
p4424
(lp4425
g95
asS'mirr'
p4426
(lp4427
g27
asS'Cmp'
p4428
(lp4429
g95
asS'StreamSource'
p4430
(lp4431
g687
asS'expanding_max'
p4432
(lp4433
g12
asS'paOutputUnderflowed'
p4434
(lp4435
g9
asS'dictOf'
p4436
(lp4437
g296
asS'cpu_count'
p4438
(lp4439
g1884
ag15
asS'wide_to_long'
p4440
(lp4441
g12
asS'distinct_pairs'
p4442
(lp4443
g112
asS'write_graph6'
p4444
(lp4445
g21
asS'triangulatePoints'
p4446
(lp4447
g24
asS'v'
(lp4448
S'gunicorn'
p4449
asS'current_flow_closeness'
p4450
(lp4451
g21
asS'extsep'
p4452
(lp4453
g76
asS'Inf'
p4454
(lp4455
g27
asS'doublecomplex'
p4456
(lp4457
g84
asS'paAL'
p4458
(lp4459
g9
asS'Normalize'
p4460
(lp4461
g95
asS'Funny'
p4462
(lp4463
g350
asS'compare'
p4464
(lp4465
g24
asS'enqueue_map_image'
p4466
(lp4467
g18
asS'scan'
p4468
(lp4469
g245
ag42
asS'get_portaudio_version'
p4470
(lp4471
g9
asS'moveWindow'
p4472
(lp4473
g24
asS'minimum'
p4474
(lp4475
g27
asS'get_cmpop'
p4476
(lp4477
g1290
asS'getRectSubPix'
p4478
(lp4479
g24
asS'get_path_names'
p4480
(lp4481
g177
asS'relative_script'
p4482
(lp4483
g79
asS'Norm'
p4484
(lp4485
g95
asS'minor2'
p4486
(lp4487
g496
asS'filter'
p4488
(lp4489
g1485
asS'shutil'
p4490
(lp4491
g79
asS'assert_not_a_file'
p4492
(lp4493
g112
asS'source_build_file'
p4494
(lp4495
g788
asS'getlineno'
p4496
(lp4497
g135
asS'get_summaries'
p4498
(lp4499
g87
asS'array_repr'
p4500
(lp4501
g27
asS'supports_symlinks'
p4502
(lp4503
g68
asS'ctx_opt_names'
p4504
(lp4505
g52
asS'perm'
p4506
(lp4507
g112
asS'k_clique_communities'
p4508
(lp4509
g21
asS'Shadow'
p4510
(lp4511
g84
asS'DescriptorExtractor_create'
p4512
(lp4513
g24
asS'is_arborescence'
p4514
(lp4515
g21
asS'Sort'
p4516
(lp4517
g95
asS'fv'
p4518
(lp4519
g27
asS'nums'
p4520
(lp4521
g296
asS'paWDMKS'
p4522
(lp4523
g9
asS'findlabels'
p4524
(lp4525
g521
asS'signature'
p4526
(lp4527
g587
ag55
asS'paNoDevice'
p4528
(lp4529
g9
asS'backslashreplace_errors'
p4530
(lp4531
g6
asS'Bracket'
p4532
(lp4533
g350
asS'binomial_graph'
p4534
(lp4535
g21
asS'unlink'
p4536
(lp4537
g76
asS'capitalize'
p4538
(lp4539
g279
asS'tcgetpgrp'
p4540
(lp4541
g76
asS'flatnonzero'
p4542
(lp4543
g27
asS'argparse'
p4544
(lp4545
g361
asS'utf_32_le_encode'
p4546
(lp4547
g6
asS'iter_child_nodes'
p4548
(lp4549
g441
asS'namedWindow'
p4550
(lp4551
g24
asS'read_pickle'
p4552
(lp4553
g12
asS'ascii_encode'
p4554
(lp4555
g6
asS'k_crust'
p4556
(lp4557
g21
asS'name2codepoint'
p4558
(lp4559
g263
asS'register'
p4560
(lp4561
g3434
ag6
asS'bidirectional_dijkstra'
p4562
(lp4563
g21
asS'offsets'
p4564
(lp4565
g12
asS'ego'
p4566
(lp4567
g21
asS'ReprojectImageTo3D'
p4568
(lp4569
g95
asS'File'
p4570
(lp4571
g1508
asS'StereoRectifyUncalibrated'
p4572
(lp4573
g95
asS'inline'
p4574
(lp4575
g84
asS'reset_option'
p4576
(lp4577
g12
asS'default_storage_dir'
p4578
(lp4579
g79
asS'computeCorrespondEpilines'
p4580
(lp4581
g24
asS'Dilate'
p4582
(lp4583
g95
asS'dfs_tree'
p4584
(lp4585
g21
asS'basename'
p4586
(lp4587
g142
asS'fft'
p4588
(lp4589
g27
asS'closeness'
p4590
(lp4591
g21
asS'medianBlur'
p4592
(lp4593
g24
asS'number_weakly_connected_components'
p4594
(lp4595
g21
asS'uname'
p4596
(lp4597
g76
asS'distribution_file'
p4598
(lp4599
g788
asS'baseparser'
p4600
(lp4601
g87
asS'filters'
p4602
(lp4603
g384
ag438
ag132
ag1485
asS'ppmt'
p4604
(lp4605
g27
asS'ascii_uppercase'
p4606
(lp4607
g279
asS'runtime'
p4608
(lp4609
g438
ag132
asS'roots'
p4610
(lp4611
g27
asS'componentxmpp'
p4612
(lp4613
g299
asS'zmq_errno'
p4614
(lp4615
g52
asS'CreateFileCapture'
p4616
(lp4617
g95
asS'style'
p4618
(lp4619
g1485
asS'degree_alg'
p4620
(lp4621
g21
asS'get_data_path'
p4622
(lp4623
g496
asS'execvp'
p4624
(lp4625
g76
asS'FileStorage'
p4626
(lp4627
g24
asS'busday_count'
p4628
(lp4629
g27
asS'zmq_poll'
p4630
(lp4631
g52
asS'EqualizeHist'
p4632
(lp4633
g95
asS'getpid'
p4634
(lp4635
g76
asS'devnull'
p4636
(lp4637
g76
asS'synthesize'
p4638
(lp4639
g55
asS'is_tree'
p4640
(lp4641
g21
asS'release_build_file'
p4642
(lp4643
g788
asS'CreateImage'
p4644
(lp4645
g95
asS'enqueue_copy_image'
p4646
(lp4647
g18
asS'Load'
p4648
(lp4649
g95
asS'truediv'
p4650
(lp4651
g220
asS'FeatureDetector_create'
p4652
(lp4653
g24
asS'enqueue_copy_buffer'
p4654
(lp4655
g18
asS'dominating_set'
p4656
(lp4657
g21
asS'get_backend'
p4658
(lp4659
g496
asS'print_tb'
p4660
(lp4661
g792
asS'operations'
p4662
(lp4663
g87
asS'pagerank_numpy'
p4664
(lp4665
g21
asS'exec_'
p4666
(lp4667
g90
asS'getTokensEndLoc'
p4668
(lp4669
g296
asS'enqueue_copy'
p4670
(lp4671
g18
asS'accumulate'
p4672
(lp4673
g24
asS'rsplit'
p4674
(lp4675
g279
asS'nestedExpr'
p4676
(lp4677
g296
asS'execl'
p4678
(lp4679
g76
asS'httplib'
p4680
(lp4681
g474
asS'ewmvar'
p4682
(lp4683
g12
asS'correctMatches'
p4684
(lp4685
g24
asS'nx_pylab'
p4686
(lp4687
g21
asS'drawContours'
p4688
(lp4689
g24
asS'fliplr'
p4690
(lp4691
g27
asg2614
(lp4692
g1485
asS'pysndfile'
p4693
(lp4694
g203
asS'fmod'
p4695
(lp4696
g27
asS'algos'
p4697
(lp4698
g12
asS'dominating'
p4699
(lp4700
g21
asS'execv'
p4701
(lp4702
g76
asS'abiflags'
p4703
(lp4704
g79
asS'contextmanager'
p4705
(lp4706
g742
ag68
asS'utf_16_be_decode'
p4707
(lp4708
g6
asS'numeric_assortativity_coefficient'
p4709
(lp4710
g21
asS'status'
p4711
(lp4712
g788
asS'VideoWriter'
p4713
(lp4714
g24
asS'ogrid'
p4715
(lp4716
g27
asS'short'
p4717
(lp4718
g84
asS'recycleAutoreleasePool'
p4719
(lp4720
g55
asS'find_cliques_recursive'
p4721
(lp4722
g21
asS'reduce'
p4723
(lp4724
g585
ag42
ag24
ag2245
ag112
asS'init_builtin'
p4725
(lp4726
g227
asS'paIncompatibleStreamHostApi'
p4727
(lp4728
g9
asS'floyd_warshall_numpy'
p4729
(lp4730
g21
asS'reprlib32'
p4731
(lp4732
g2245
asS'Mul'
p4733
(lp4734
g95
asS'allclose'
p4735
(lp4736
g27
asS'isfile'
p4737
(lp4738
g142
asS'event'
p4739
(lp4740
g36
asS'TIOCM_DTR_str'
p4741
(lp4742
g403
asS'gettext'
p4743
(lp4744
g321
asS'CalcBackProjectPatch'
p4745
(lp4746
g95
asS'generate_multiline_adjlist'
p4747
(lp4748
g21
asS'asarray'
p4749
(lp4750
g27
asS'getabsfile'
p4751
(lp4752
g135
asS'topological_sort_recursive'
p4753
(lp4754
g21
asS'MatMul'
p4755
(lp4756
g95
asS'rsakey'
p4757
(lp4758
g454
asS'setsid'
p4759
(lp4760
g76
asS'calcMotionGradient'
p4761
(lp4762
g24
asS'int_to_bytes'
p4763
(lp4764
g104
asS'makegateway'
p4765
(lp4766
g2270
asS'get_release_builds'
p4767
(lp4768
g788
asS'py_complex'
p4769
(lp4770
g84
asS'batchDistance'
p4771
(lp4772
g24
asS'enqueue_copy_buffer_rect'
p4773
(lp4774
g18
asS'Subdiv2DNextEdge'
p4775
(lp4776
g95
asS'sepFilter2D'
p4777
(lp4778
g24
asS'protocolNamed'
p4779
(lp4780
g55
asg441
(lp4781
g436
ag132
asS'CV_GAUSSIAN_5x5'
p4782
(lp4783
g95
asS'json'
p4784
(lp4785
g104
ag12
ag62
ag653
asS'word2clusters'
p4786
(lp4787
g188
asS'Ignore'
p4788
(lp4789
g350
asS'unrepr'
p4790
(lp4791
g741
asS'base'
p4792
(lp4793
g2437
ag745
asS'Solve'
p4794
(lp4795
g95
asS'proxy'
p4796
(lp4797
g513
ag454
ag52
asS'clique'
p4798
(lp4799
g21
asS'put'
p4800
(lp4801
g435
ag27
ag653
asS'clear_extension_cache'
p4802
(lp4803
g1805
asS'loads'
p4804
(lp4805
g27
ag2270
asS'findlinestarts'
p4806
(lp4807
g521
asS'unicodeString'
p4808
(lp4809
g296
asS'pairs'
p4810
(lp4811
g21
asS'wrap_file'
p4812
(lp4813
g170
asS'serialposix'
p4814
(lp4815
g403
asS'set_wakeup_fd'
p4816
(lp4817
g1057
asS'getincrementaldecoder'
p4818
(lp4819
g6
asS'write_sparse6'
p4820
(lp4821
g21
asS'time_units'
p4822
(lp4823
g169
asS'ndfromtxt'
p4824
(lp4825
g27
asS'chordal'
p4826
(lp4827
g21
asS'edges'
p4828
(lp4829
g21
asS'get_doc_build_files'
p4830
(lp4831
g788
asS'all_shortest_paths'
p4832
(lp4833
g21
asS'paCanNotWriteToACallbackStream'
p4834
(lp4835
g9
asS'stereoRectify'
p4836
(lp4837
g24
asS'FindStereoCorrespondenceGC'
p4838
(lp4839
g95
asS'GetTickFrequency'
p4840
(lp4841
g95
asS'major'
p4842
(lp4843
g76
asS'nsdata__str__'
p4844
(lp4845
g55
asS'getinnerframes'
p4846
(lp4847
g135
asS'UndistortPoints'
p4848
(lp4849
g95
asS'spawnve'
p4850
(lp4851
g76
asS'pyrDown'
p4852
(lp4853
g24
asS'misc'
p4854
(lp4855
g42
ag1290
asS'is_cygwin'
p4856
(lp4857
g79
asS'interpy_transform_string'
p4858
(lp4859
g696
asS'communicability_betweenness_centrality'
p4860
(lp4861
g21
asS'GetTickCount'
p4862
(lp4863
g95
asS'lookfor'
p4864
(lp4865
g27
asS'path_importer_cache'
p4866
(lp4867
g39
asS'haslocal'
p4868
(lp4869
g886
asS'ljust'
p4870
(lp4871
g279
asS'spawnvp'
p4872
(lp4873
g76
asS'validate'
p4874
(lp4875
g437
asS'isabstract'
p4876
(lp4877
g135
asS'double_edge_swap'
p4878
(lp4879
g21
asS'AddS'
p4880
(lp4881
g95
asS'posixpath'
p4882
(lp4883
g68
asS'removeHandler'
p4884
(lp4885
g117
asS'dft'
p4886
(lp4887
g24
asS'recurrent'
p4888
(lp4889
g1160
asS'buildOpticalFlowPyramid'
p4890
(lp4891
g24
asS'builtin_module_names'
p4892
(lp4893
g39
asS'draw_random'
p4894
(lp4895
g21
asS'imdecode'
p4896
(lp4897
g24
asS'WaitKey'
p4898
(lp4899
g95
asS'calcOpticalFlowFarneback'
p4900
(lp4901
g24
asS'create_bootstrap_script'
p4902
(lp4903
g79
asS'unitvec'
p4904
(lp4905
g188
asS'is_win'
p4906
(lp4907
g79
asS'get_paths'
p4908
(lp4909
g177
asS'settrace'
p4910
(lp4911
g39
ag2192
asS'Subdiv2DEdgeDst'
p4912
(lp4913
g95
asS'setprofile'
p4914
(lp4915
g39
asS'selector'
p4916
(lp4917
g513
asS'algebraic_connectivity'
p4918
(lp4919
g21
asS'AddWeighted'
p4920
(lp4921
g95
asS'uri_to_iri'
p4922
(lp4923
g170
asS'spawn_later'
p4924
(lp4925
g45
asS'cosh'
p4926
(lp4927
g27
asS'getargs'
p4928
(lp4929
g135
asS'get_unbound_function'
p4930
(lp4931
g90
asS'std'
p4932
(lp4933
g27
ag1493
asS'putText'
p4934
(lp4935
g24
asS'hashlib'
p4936
(lp4937
g104
ag474
asS'b'
(lp4938
g90
asS'make_max_clique_graph'
p4939
(lp4940
g21
asS'blockmodel'
p4941
(lp4942
g21
asS'installHandler'
p4943
(lp4944
g117
asS'get_method_function'
p4945
(lp4946
g90
asS'number_of_edges'
p4947
(lp4948
g21
asS'rolling_std'
p4949
(lp4950
g12
asS'minimize'
p4951
(lp4952
g2437
asS'ccall'
p4953
(lp4954
g84
asS'nested_iters'
p4955
(lp4956
g27
asS'FindNearestPoint2D'
p4957
(lp4958
g95
asS'is_bipartite'
p4959
(lp4960
g21
asS'interactive'
p4961
(lp4962
g496
asS'invoke_in_main'
p4963
(lp4964
g3472
asS'MinAreaRect2'
p4965
(lp4966
g95
asS'cartesian_product_sum'
p4967
(lp4968
g112
asS'sre_compile'
p4969
(lp4970
g58
asS'getmodulename'
p4971
(lp4972
g135
asS'tokenize_loop'
p4973
(lp4974
g350
asS'ascii_letters'
p4975
(lp4976
g279
asS'trackball'
p4977
(lp4978
g1412
asS'to_datetime'
p4979
(lp4980
g12
asS'predefined_modes'
p4981
(lp4982
g42
asS'get_source_file'
p4983
(lp4984
g788
asS'get_similar_commands'
p4985
(lp4986
g87
asS'prim_mst'
p4987
(lp4988
g21
asS'conjugate'
p4989
(lp4990
g27
asS'is_distance_regular'
p4991
(lp4992
g21
asS'random_clustered'
p4993
(lp4994
g21
asS'bad_pyparsing'
p4995
(lp4996
g496
asS'adj_matrix'
p4997
(lp4998
g21
asS'alterdot'
p4999
(lp5000
g27
asS'configparser'
p5001
(lp5002
g42
asS'polyval'
p5003
(lp5004
g27
asS'registerSetType'
p5005
(lp5006
g55
asS'load_compiled'
p5007
(lp5008
g227
asS'polydiv'
p5009
(lp5010
g27
asS'lib'
p5011
(lp5012
g27
ag12
asS'to_dict_of_lists'
p5013
(lp5014
g21
asS'chvatal_graph'
p5015
(lp5016
g21
asS'geteuid'
p5017
(lp5018
g76
asS'levi_civita'
p5019
(lp5020
g112
asS'decorate'
p5021
(lp5022
g112
asS'setWindowProperty'
p5023
(lp5024
g24
asS'make_clique_bipartite'
p5025
(lp5026
g21
asS'is_valid_degree_sequence_havel_hakimi'
p5027
(lp5028
g21
asS'internal'
p5029
(lp5030
g84
asS'directives'
p5031
(lp5032
g213
asS'build'
p5033
(lp5034
g2437
asS'request_pwl_dict'
p5035
(lp5036
g212
asg928
(lp5037
g928
asS'is_valid_degree_sequence_erdos_gallai'
p5038
(lp5039
g21
asS'biconnected_component_edges'
p5040
(lp5041
g21
asS'play'
p5042
(lp5043
g203
asS'degree_sequence_tree'
p5044
(lp5045
g21
asS'projected_graph'
p5046
(lp5047
g21
asg384
(lp5048
g142
ag27
ag588
ag496
ag1508
ag87
ag15
ag212
ag55
ag745
asS'to_repr'
p5049
(lp5050
g84
asS'get_extra_values'
p5051
(lp5052
g741
asS'configuration_model'
p5053
(lp5054
g21
asS'curse'
p5055
(lp5056
g1301
asS'pathconf_names'
p5057
(lp5058
g76
asS'delitem'
p5059
(lp5060
g220
asS'to_numpy_matrix'
p5061
(lp5062
g21
asg361
(lp5063
g337
asS'norm_1'
p5064
(lp5065
g112
asS'draw_networkx_nodes'
p5066
(lp5067
g21
asS'amax'
p5068
(lp5069
g27
asS'literal_eval'
p5070
(lp5071
g441
asS'destroyWindow'
p5072
(lp5073
g24
asS'exc'
p5074
(lp5075
g513
asS'load_package'
p5076
(lp5077
g227
asS'scripts_interface'
p5078
(lp5079
g188
asS'solvePoly'
p5080
(lp5081
g24
asS'double3prog'
p5082
(lp5083
g350
asS'pyversion'
p5084
(lp5085
g513
asS'waxman_graph'
p5086
(lp5087
g21
asS'ext'
p5088
(lp5089
g132
asS'ResetImageROI'
p5090
(lp5091
g95
asS'tutte_graph'
p5092
(lp5093
g21
asS'parse_cookie'
p5094
(lp5095
g170
asS'exp'
p5096
(lp5097
g27
ag24
asS'opmap'
p5098
(lp5099
g886
asS'theano'
p5100
(lp5101
g42
asS'rolling_cov'
p5102
(lp5103
g12
asS'getblock'
p5104
(lp5105
g135
asS'XorS'
p5106
(lp5107
g95
asS'CV_BayerBG2BGR'
p5108
(lp5109
g95
asS'get_function_defaults'
p5110
(lp5111
g90
asS'DescriptorMatcher_create'
p5112
(lp5113
g24
asS'fstatvfs'
p5114
(lp5115
g76
asS'session'
p5116
(lp5117
g435
ag514
ag62
asS'certs'
p5118
(lp5119
g435
asS'url'
p5120
(lp5121
g1490
asg21
(lp5122
g21
asS'all_pairs_shortest_path'
p5123
(lp5124
g21
asS'mock_open'
p5125
(lp5126
g73
asS'find'
p5127
(lp5128
g279
asS'polyfit'
p5129
(lp5130
g27
asS'wraps'
p5131
(lp5132
g585
ag1301
ag2245
ag73
asS'randn'
p5133
(lp5134
g24
asS'copyright'
p5135
(lp5136
g39
asS'tk_window_focus'
p5137
(lp5138
g496
asS'total_virtmem'
p5139
(lp5140
g15
asS'expanding_sum'
p5141
(lp5142
g12
asS'newbuffer'
p5143
(lp5144
g27
asS'paBeOS'
p5145
(lp5146
g9
asS'delslice'
p5147
(lp5148
g220
asS'generators'
p5149
(lp5150
g263
ag21
asS'swapaxes'
p5151
(lp5152
g27
asS'degree_centrality'
p5153
(lp5154
g21
asS'circle'
p5155
(lp5156
g24
asS'randu'
p5157
(lp5158
g24
asS'sftp_handle'
p5159
(lp5160
g454
asS'compiled'
p5161
(lp5162
g84
asS'ewma'
p5163
(lp5164
g12
asS'empty_image'
p5165
(lp5166
g36
asS'current_flow_closeness_centrality'
p5167
(lp5168
g21
asS'strseq'
p5169
(lp5170
g135
asS'remove_extension'
p5171
(lp5172
g1805
asS'CvtColor'
p5173
(lp5174
g95
asS'flann_Index'
p5175
(lp5176
g24
asS'hub_matrix'
p5177
(lp5178
g21
asS'test_fail_if_path_exists'
p5179
(lp5180
g84
asS'findHomography'
p5181
(lp5182
g24
asS'getcallargs'
p5183
(lp5184
g135
asS'unary'
p5185
(lp5186
g21
asS'roles'
p5187
(lp5188
g213
asS'EstimateRigidTransform'
p5189
(lp5190
g95
asS'remove'
p5191
(lp5192
g76
asS'create_main_parser'
p5193
(lp5194
g87
asS'common'
p5195
(lp5196
g334
ag454
ag788
ag354
ag489
ag789
ag3321
asS'double'
p5197
(lp5198
g84
asS'execlpe'
p5199
(lp5200
g76
asS'dump'
p5201
(lp5202
g245
ag441
ag1290
ag1884
asS'sep'
p5203
(lp5204
g76
asS'locale'
p5205
(lp5206
g213
asS'get_index'
p5207
(lp5208
g788
asS'print_stack'
p5209
(lp5210
g792
asS'add_extension'
p5211
(lp5212
g1805
asS'request_tearing_down'
p5213
(lp5214
g62
asS'pointPolygonTest'
p5215
(lp5216
g24
asS'interrupt_main'
p5217
(lp5218
g1181
asS'close'
p5219
(lp5220
g76
asS'GetImage'
p5221
(lp5222
g95
asS'google_matrix'
p5223
(lp5224
g21
asS'viewitems'
p5225
(lp5226
g90
asS'getValidDisparityROI'
p5227
(lp5228
g24
asS'nsmallest'
p5229
(lp5230
g232
asS'utf_16_decode'
p5231
(lp5232
g6
asS'attracting'
p5233
(lp5234
g21
asS'wordvectors'
p5235
(lp5236
g188
asS'sctypeDict'
p5237
(lp5238
g27
asS'slonglong'
p5239
(lp5240
g84
asS'wordclusters'
p5241
(lp5242
g188
asS'getouterframes'
p5243
(lp5244
g135
asS'classes'
p5245
(lp5246
g21
asS'random_regular_graph'
p5247
(lp5248
g21
asS'formatter'
p5249
(lp5250
g1485
asS'commands_dict'
p5251
(lp5252
g87
asS'house_graph'
p5253
(lp5254
g21
asS'multidigraph'
p5255
(lp5256
g21
asS'concatenate'
p5257
(lp5258
g27
ag169
asS'lstat'
p5259
(lp5260
g76
asS'graph_clique_number'
p5261
(lp5262
g21
asS'interfaces'
p5263
(lp5264
g787
asS'lookup_error'
p5265
(lp5266
g6
asS'start_new'
p5267
(lp5268
g1181
asS'get_read_from_map_from_permutation'
p5269
(lp5270
g112
asS'link_analysis'
p5271
(lp5272
g21
asS'generate_permutations'
p5273
(lp5274
g112
asS'MatchShapes'
p5275
(lp5276
g95
asS'CaptureFromFile'
p5277
(lp5278
g95
asS'unravel_index'
p5279
(lp5280
g27
asS'reverse'
p5281
(lp5282
g1301
ag21
asS'license'
p5283
(lp5284
g1490
asS'parse_pajek'
p5285
(lp5286
g21
asS'gettrace'
p5287
(lp5288
g39
ag2192
asS'initgroups'
p5289
(lp5290
g76
asg412
(lp5291
g412
asS'PolarToCart'
p5292
(lp5293
g95
asS'declare'
p5294
(lp5295
g84
asS'cumprod'
p5296
(lp5297
g27
asS'non_edges'
p5298
(lp5299
g21
asS'wrappers'
p5300
(lp5301
g62
asS'maketrans'
p5302
(lp5303
g279
asS'context'
p5304
(lp5305
g36
ag55
asS'paInvalidFlag'
p5306
(lp5307
g9
asS'cppStyleComment'
p5308
(lp5309
g296
asS'checkdep_ps_distiller'
p5310
(lp5311
g496
asS'load'
p5312
(lp5313
g245
ag27
ag1884
ag21
ag12
ag188
asS'undistortPoints'
p5314
(lp5315
g24
asS'setencoding'
p5316
(lp5317
g554
asS'namedSelector'
p5318
(lp5319
g55
asS'paComplete'
p5320
(lp5321
g9
asS'release_build'
p5322
(lp5323
g788
asS'baudrate_constants'
p5324
(lp5325
g403
asS'community'
p5326
(lp5327
g21
asS'DrawContours'
p5328
(lp5329
g95
asS'createFisherFaceRecognizer'
p5330
(lp5331
g24
asS'check_password_hash'
p5332
(lp5333
g170
asS'attr_sparse_matrix'
p5334
(lp5335
g21
asS'globals'
p5336
(lp5337
g62
asS'paStreamIsNotStopped'
p5338
(lp5339
g9
asS'number_connected_components'
p5340
(lp5341
g21
asS'paInputOverflow'
p5342
(lp5343
g9
asg742
(lp5344
g742
ag112
asS'Rectangle'
p5345
(lp5346
g95
asS'argmax2'
p5347
(lp5348
g112
asS'get_include'
p5349
(lp5350
g27
aS'lxml'
p5351
ag36
asS'pv'
p5352
(lp5353
g27
asS'hasfree'
p5354
(lp5355
g886
asS'Floor'
p5356
(lp5357
g95
asS'escape_silent'
p5358
(lp5359
g158
asS'rolling_min'
p5360
(lp5361
g12
asS'reduction'
p5362
(lp5363
g1865
asS'pa'
p5364
(lp5365
g9
asS'Updates'
p5366
(lp5367
g42
asS'dup'
p5368
(lp5369
g76
asS'pi'
p5370
(lp5371
g27
asS'empty'
p5372
(lp5373
g27
ag36
asS'ecdsakey'
p5374
(lp5375
g454
asS'samefile'
p5376
(lp5377
g142
asS'find_common_type'
p5378
(lp5379
g27
asS'CalibrateCamera2'
p5380
(lp5381
g95
asS'CornerMinEigenVal'
p5382
(lp5383
g95
asS'imag'
p5384
(lp5385
g27
asS'sctype2char'
p5386
(lp5387
g27
asS'get_users'
p5388
(lp5389
g15
asS'minimum_node_cut'
p5390
(lp5391
g21
asS'usage'
p5392
(lp5393
g149
asS'charbuffer_encode'
p5394
(lp5395
g6
asS'zfill'
p5396
(lp5397
g279
asS'parse_config_h'
p5398
(lp5399
g177
asS'utf_7_encode'
p5400
(lp5401
g6
asS'CountNonZero'
p5402
(lp5403
g95
asS'CreatePOSITObject'
p5404
(lp5405
g95
asS'getatime'
p5406
(lp5407
g142
asS'getTestCaseNames'
p5408
(lp5409
g117
asS'parseBridgeSupport'
p5410
(lp5411
g55
asS'execve'
p5412
(lp5413
g76
asS'HOGDetectMultiScale'
p5414
(lp5415
g95
asS'compact_json'
p5416
(lp5417
g104
asS'SimpleBlobDetector_Params'
p5418
(lp5419
g24
asS'within_inter_cluster'
p5420
(lp5421
g21
asS'compareHist'
p5422
(lp5423
g24
asS'corpora'
p5424
(lp5425
g787
asS'operatorPrecedence'
p5426
(lp5427
g296
asS'CloneMatND'
p5428
(lp5429
g95
asS'Moments'
p5430
(lp5431
g95
asS'register_openers'
p5432
(lp5433
g653
asS'packbits'
p5434
(lp5435
g27
asS'SegmentMotion'
p5436
(lp5437
g95
asS'issctype'
p5438
(lp5439
g27
asS'lru_cache'
p5440
(lp5441
g2245
asS'iterlists'
p5442
(lp5443
g90
asS'IsNaN'
p5444
(lp5445
g95
asg1805
(lp5446
g58
asS'indentsize'
p5447
(lp5448
g135
asS'unicode_literals'
p5449
(lp5450
g496
ag789
asS'makeHTMLTags'
p5451
(lp5452
g296
asS'drawDataMatrixCodes'
p5453
(lp5454
g24
asS'pkg_resources'
p5455
(lp5456
S'altgraph'
p5457
ag3777
aS'modulegraph'
p5458
ag1472
asS'rolling_skew'
p5459
(lp5460
g12
asS'period_range'
p5461
(lp5462
g12
asS'node_boundary'
p5463
(lp5464
g21
asS'paUnanticipatedHostError'
p5465
(lp5466
g9
asS'mGet'
p5467
(lp5468
g95
asS'Binnumber'
p5469
(lp5470
g350
asS'draw_spring'
p5471
(lp5472
g21
asS'ContourArea'
p5473
(lp5474
g95
asS'ego_graph'
p5475
(lp5476
g21
asS'attribute_assortativity_coefficient'
p5477
(lp5478
g21
asS'convert_node_labels_to_integers'
p5479
(lp5480
g21
asS'div_ceil'
p5481
(lp5482
g112
asS'DrawChessboardCorners'
p5483
(lp5484
g95
asS'tabsize'
p5485
(lp5486
g350
asS'fastNlMeansDenoisingColored'
p5487
(lp5488
g24
asS'parsetree'
p5489
(lp5490
g132
asS'checkHardwareSupport'
p5491
(lp5492
g24
asS'CloneMat'
p5493
(lp5494
g95
asS'nextafter'
p5495
(lp5496
g27
asS'htmlComment'
p5497
(lp5498
g296
asS'CircPurpose'
p5499
(lp5500
g687
asS'checkcache'
p5501
(lp5502
g1679
asg39
(lp5503
g76
asS'domains'
p5504
(lp5505
g213
asS'utf_32_encode'
p5506
(lp5507
g6
asS'bartlett'
p5508
(lp5509
g27
asS'infixNotation'
p5510
(lp5511
g296
asS'fastNlMeansDenoisingColoredMulti'
p5512
(lp5513
g24
asS'parse_dict_header'
p5514
(lp5515
g170
asS'stack'
p5516
(lp5517
g135
ag354
asS'hexnums'
p5518
(lp5519
g296
asS'safe_eval'
p5520
(lp5521
g27
asS'lower'
p5522
(lp5523
g279
asS'ifft'
p5524
(lp5525
g318
asS'ComputeCorrespondEpilines'
p5526
(lp5527
g95
asS'opt_executable'
p5528
(lp5529
g2198
asS'setitimer'
p5530
(lp5531
g1057
asS'get_enchant_version'
p5532
(lp5533
g212
asS'loadSpecialVar'
p5534
(lp5535
g55
asS'flags'
p5536
(lp5537
g39
ag337
asS'contourArea'
p5538
(lp5539
g24
asS'maximum_flow'
p5540
(lp5541
g21
asS'main_'
p5542
(lp5543
g2530
asS'printables'
p5544
(lp5545
g296
asS'connected_watts_strogatz_graph'
p5546
(lp5547
g21
asS'self'
p5548
(lp5549
g73
asS'prim_mst_edges'
p5550
(lp5551
g21
asS'write_gpickle'
p5552
(lp5553
g21
asS'distutils'
p5554
(lp5555
g27
ag496
ag59
ag79
asS'putmask'
p5556
(lp5557
g27
asS'blur'
p5558
(lp5559
g24
asS'register_vcs'
p5560
(lp5561
g789
asS'shape'
p5562
(lp5563
g27
asS'GetHuMoments'
p5564
(lp5565
g95
asS'draft4_format_checker'
p5566
(lp5567
g437
asS'CV_BayerGR2BGR_VNG'
p5568
(lp5569
g95
asS'checkdep_pdftops'
p5570
(lp5571
g496
asS'matchOnlyAtCol'
p5572
(lp5573
g296
asS'ClearSubdivVoronoi2D'
p5574
(lp5575
g95
asS'create_some_context'
p5576
(lp5577
g18
asS'is_pseudographical'
p5578
(lp5579
g21
asS'cut'
p5580
(lp5581
g12
asS'defaultParams'
p5582
(lp5583
g496
asS'datetime'
p5584
(lp5585
g321
asS'getInstanceVariable'
p5586
(lp5587
g55
asS'cornerHarris'
p5588
(lp5589
g24
asS'ascii_decode'
p5590
(lp5591
g6
asS'get_release_cache'
p5592
(lp5593
g788
asS'source'
p5594
(lp5595
g27
asS'readwrite'
p5596
(lp5597
g21
asS'lchown'
p5598
(lp5599
g76
asS'newman_watts_strogatz_graph'
p5600
(lp5601
g21
asS'input'
p5602
(lp5603
g112
asS'nanstd'
p5604
(lp5605
g27
asS'SubdivDelaunay2DInsert'
p5606
(lp5607
g95
asS'FindChessboardCorners'
p5608
(lp5609
g95
asS'gemm'
p5610
(lp5611
g24
asS'isub'
p5612
(lp5613
g220
asS'lexsort'
p5614
(lp5615
g27
asS'evaluate'
p5616
(lp5617
g334
asS'read_data'
p5618
(lp5619
g79
asS'laplacian_spectrum'
p5620
(lp5621
g21
asS'ipmt'
p5622
(lp5623
g27
asS'atleast_3d'
p5624
(lp5625
g27
asS'nper'
p5626
(lp5627
g27
asS'Div'
p5628
(lp5629
g95
asS'communicability_centrality'
p5630
(lp5631
g21
asS'replace_errors'
p5632
(lp5633
g6
asS'Or'
p5634
(lp5635
g95
asS'read_hdf'
p5636
(lp5637
g12
asS'bitwise_not'
p5638
(lp5639
g27
ag24
asS'get_distribution_file'
p5640
(lp5641
g788
asS'randnum'
p5642
(lp5643
g489
asg1057
(lp5644
g1057
ag15
asS'jsonify'
p5645
(lp5646
g62
asS'get_store'
p5647
(lp5648
g12
asS'setegid'
p5649
(lp5650
g76
asS'stoer_wagner'
p5651
(lp5652
g21
asS'addusersitepackages'
p5653
(lp5654
g554
asS'SVDecomp'
p5655
(lp5656
g24
asS'spawnvpe'
p5657
(lp5658
g76
asS'tempnam'
p5659
(lp5660
g76
asS'tmpfile'
p5661
(lp5662
g76
asS'Subdiv2DEdgeOrg'
p5663
(lp5664
g95
asS'from_numpy_matrix'
p5665
(lp5666
g21
asS'Floatnumber'
p5667
(lp5668
g350
asS'CalcGlobalOrientation'
p5669
(lp5670
g95
asS'escape_encode'
p5671
(lp5672
g6
asS'altsep'
p5673
(lp5674
g76
asS'logical_and'
p5675
(lp5676
g27
asS'message_flashed'
p5677
(lp5678
g62
asS'dfs_edges'
p5679
(lp5680
g21
asS'closeness_vitality'
p5681
(lp5682
g21
asS'sizeof'
p5683
(lp5684
g84
asS'BackgroundSubtractorMOG2'
p5685
(lp5686
g24
asS'CalcArrBackProject'
p5687
(lp5688
g95
asS'aiffwrite'
p5689
(lp5690
g203
asS'pyrUp'
p5691
(lp5692
g24
asS'octahedral_graph'
p5693
(lp5694
g21
asS'String'
p5695
(lp5696
g350
asS'pathsep'
p5697
(lp5698
g76
asS'CreateImageHeader'
p5699
(lp5700
g95
asS'flatten'
p5701
(lp5702
g112
asS'pyver'
p5703
(lp5704
g1688
asS'parsefile'
p5705
(lp5706
g1290
asS'krackhardt_kite_graph'
p5707
(lp5708
g21
asS'GuardStatus'
p5709
(lp5710
g687
asS'prod'
p5711
(lp5712
g27
asS'AndS'
p5713
(lp5714
g95
asS'isfortran'
p5715
(lp5716
g27
asS'run'
p5717
(lp5718
g513
asS'bb'
p5719
(lp5720
g270
asS'UserDict'
p5721
(lp5722
g76
asS'disk_size_units'
p5723
(lp5724
g169
asS'KalmanCorrect'
p5725
(lp5726
g95
asS'use'
p5727
(lp5728
g496
asg687
(lp5729
g687
asS'percentile'
p5730
(lp5731
g27
asS'BytesIO'
p5732
(lp5733
g1485
asS'paCanNotReadFromACallbackStream'
p5734
(lp5735
g9
asS'site_config_dir'
p5736
(lp5737
g788
asS'plat'
p5738
(lp5739
g403
asS'subtract'
p5740
(lp5741
g27
ag24
asS'optimize'
p5742
(lp5743
g318
asS'Comment'
p5744
(lp5745
g350
asS'frombuffer'
p5746
(lp5747
g27
asS'get_init'
p5748
(lp5749
g742
asS'checkdep_ghostscript'
p5750
(lp5751
g496
asS'read_graphml'
p5752
(lp5753
g21
asS'pypwl'
p5754
(lp5755
g212
asS'get_flashed_messages'
p5756
(lp5757
g62
asS'formal_usage'
p5758
(lp5759
g743
asS'CV_Luv2BGR'
p5760
(lp5761
g95
asS'argsort'
p5762
(lp5763
g27
asS'CV_BayerRG2BGR'
p5764
(lp5765
g95
asS'edge_current_flow_betweenness_centrality_subset'
p5766
(lp5767
g21
asS'number_of_cliques'
p5768
(lp5769
g21
asS'fmin'
p5770
(lp5771
g27
asS'edge_betweenness'
p5772
(lp5773
g21
asS'Rop'
p5774
(lp5775
g42
asS'exc_info'
p5776
(lp5777
g39
asS'ConvexHull2'
p5778
(lp5779
g95
asS'configdefaults'
p5780
(lp5781
g42
asS'url_decode'
p5782
(lp5783
g170
asS'mst'
p5784
(lp5785
g21
asS'arcsinh'
p5786
(lp5787
g27
asS'QueryHistValue_3D'
p5788
(lp5789
g95
asS'digraph'
p5790
(lp5791
g21
asS'getBBHeight'
p5792
(lp5793
g270
asS'warpPerspective'
p5794
(lp5795
g24
asS'integral'
p5796
(lp5797
g24
asS'is_darwin'
p5798
(lp5799
g79
asS'PlainToken'
p5800
(lp5801
g350
asS'ix_'
p5802
(lp5803
g27
asS'generate_pajek'
p5804
(lp5805
g21
asS'ellipse'
p5806
(lp5807
g24
asS'BOWKMeansTrainer'
p5808
(lp5809
g24
asS'advance_iterator'
p5810
(lp5811
g90
asS'inPy3k'
p5812
(lp5813
g73
asS'get_vcs_client'
p5814
(lp5815
g789
asS'generate_positive_integer_tuples_below'
p5816
(lp5817
g112
asg3219
(lp5818
g76
asS'openers'
p5819
(lp5820
g1621
asS'solvePnP'
p5821
(lp5822
g24
asS'long'
p5823
(lp5824
g84
asS'rolling_quantile'
p5825
(lp5826
g12
asS'wandering_element'
p5827
(lp5828
g112
asS'translate'
p5829
(lp5830
g279
asS'stochastic_graph'
p5831
(lp5832
g21
asS'xpath'
p5833
(lp5834
g3441
asS'hypercube_graph'
p5835
(lp5836
g21
asS'copyMakeBorder'
p5837
(lp5838
g24
asS'utf_16_ex_decode'
p5839
(lp5840
g6
asS'phymem_usage'
p5841
(lp5842
g15
asg607
(lp5843
g607
asS'gnr_graph'
p5844
(lp5845
g21
asS'zmq_version_info'
p5846
(lp5847
g52
asS'pwd'
p5848
(lp5849
g15
asS'atoi'
p5850
(lp5851
g279
asS'issubdtype'
p5852
(lp5853
g27
asS'atol'
p5854
(lp5855
g279
asS'delta'
p5856
(lp5857
g112
asS'line'
p5858
(lp5859
g24
ag21
asS'paInputUnderflow'
p5860
(lp5861
g9
asS'atof'
p5862
(lp5863
g279
asS'inthread'
p5864
(lp5865
g3472
asS'FileNode'
p5866
(lp5867
g24
asS'crosstab'
p5868
(lp5869
g12
asS'info'
p5870
(lp5871
g27
ag21
ag12
asS'utc'
p5872
(lp5873
g321
asS'seterr'
p5874
(lp5875
g27
asS'relaxed_caveman_graph'
p5876
(lp5877
g21
asS'CalcBackProject'
p5878
(lp5879
g95
asS'composeRT'
p5880
(lp5881
g24
asS'tok_name'
p5882
(lp5883
g350
ag2614
asS'float_repr_style'
p5884
(lp5885
g39
asS'bellman_ford'
p5886
(lp5887
g21
asS'norm_inf'
p5888
(lp5889
g112
asS'matchPreviousLiteral'
p5890
(lp5891
g296
asS'ui'
p5892
(lp5893
g3321
asS'ORStatus'
p5894
(lp5895
g687
asS'endprogs'
p5896
(lp5897
g350
asS'highlight'
p5898
(lp5899
g1485
asS'euler_gamma'
p5900
(lp5901
g27
asS'treewalk'
p5902
(lp5903
g1290
asS'read_json'
p5904
(lp5905
g12
asS'StarDetector'
p5906
(lp5907
g24
asS'ProjectPCA'
p5908
(lp5909
g95
asS'get_sample_size'
p5910
(lp5911
g9
asS'responder'
p5912
(lp5913
g170
asS'nsmutabledata__setitem__'
p5914
(lp5915
g55
asS'contextfilter'
p5916
(lp5917
g438
asS'fillPoly'
p5918
(lp5919
g24
asS'parser'
p5920
(lp5921
g245
ag3441
ag334
ag436
ag12
ag438
asS'ewmcorr'
p5922
(lp5923
g12
asS'CV_ErrModeSilent'
p5924
(lp5925
g95
asS'minEnclosingCircle'
p5926
(lp5927
g24
asS'char'
p5928
(lp5929
g27
asS'dfs_labeled_edges'
p5930
(lp5931
g21
asS'parse_www_authenticate_header'
p5932
(lp5933
g170
asS'dblQuotedString'
p5934
(lp5935
g296
asS'expanding_kurt'
p5936
(lp5937
g12
asS'matchTemplate'
p5938
(lp5939
g24
asS'expand_dims'
p5940
(lp5941
g27
asS'codes'
p5942
(lp5943
g435
asS'UpdateMotionHistory'
p5944
(lp5945
g95
asS'Max'
p5946
(lp5947
g95
asS'lib2to3_fixer_packages'
p5948
(lp5949
g59
asS'sessions'
p5950
(lp5951
g435
ag62
asS'nan'
p5952
(lp5953
g27
asS'virtualenv_version'
p5954
(lp5955
g79
asS'GetDims'
p5956
(lp5957
g95
asS'CalcOpticalFlowHS'
p5958
(lp5959
g95
asS'bmat'
p5960
(lp5961
g27
asS'read_shp'
p5962
(lp5963
g21
asS'codec'
p5964
(lp5965
S'interpy'
p5966
ag678
asS'samestat'
p5967
(lp5968
g142
asS'transport'
p5969
(lp5970
g454
asg12
(lp5971
g12
asS'nice'
p5972
(lp5973
g76
asS'int_types'
p5974
(lp5975
g36
ag158
asS'fast_could_be_isomorphic'
p5976
(lp5977
g21
asS'draw'
p5978
(lp5979
g21
asS'utf_16_be_encode'
p5980
(lp5981
g6
asS'escape_decode'
p5982
(lp5983
g6
asS'resource_allocation_index'
p5984
(lp5985
g21
asS'floatcomplex'
p5986
(lp5987
g84
asS'IBAction'
p5988
(lp5989
g55
asS'ravel_multi_index'
p5990
(lp5991
g27
asS'getsitepackages'
p5992
(lp5993
g554
asS'registerCFSignature'
p5994
(lp5995
g55
asS'eval'
p5996
(lp5997
g12
asS'directed_configuration_model'
p5998
(lp5999
g21
asS'type_version_tag'
p6000
(lp6001
g84
asS'stereoCalibrate'
p6002
(lp6003
g24
asS'svn'
p6004
(lp6005
g789
asS'CheckArr'
p6006
(lp6007
g95
asS'GaussianBlur'
p6008
(lp6009
g24
asS'get_supported_image_formats'
p6010
(lp6011
g18
asS'e'
(lp6012
g2198
ag27
asS'global_parameters'
p6013
(lp6014
g21
asS'datetime_data'
p6015
(lp6016
g27
asS'format_exc'
p6017
(lp6018
g792
asS'cpu_percent'
p6019
(lp6020
g15
asS'ladder_graph'
p6021
(lp6022
g21
asS'merge_debug_metaclass_with'
p6023
(lp6024
g739
asS'hsplit'
p6025
(lp6026
g27
asS'normpath'
p6027
(lp6028
g142
asg3321
(lp6029
S'rosinstall'
p6030
asS'MaxRect'
p6031
(lp6032
g95
asS'RTrees'
p6033
(lp6034
g24
asS'borderInterpolate'
p6035
(lp6036
g24
asS'Rodrigues2'
p6037
(lp6038
g95
asS'katz'
p6039
(lp6040
g21
asS'gt'
p6041
(lp6042
g220
asS'gs'
p6043
(lp6044
g84
asS'removeResult'
p6045
(lp6046
g117
asS'hooks'
p6047
(lp6048
g435
asS'lollipop_graph'
p6049
(lp6050
g21
asS'ge'
p6051
(lp6052
g220
asS'get_prog'
p6053
(lp6054
g87
asS'atleast_2d'
p6055
(lp6056
g27
asS'printable_usage'
p6057
(lp6058
g743
asS'urandom'
p6059
(lp6060
g76
asS'getfile'
p6061
(lp6062
g135
asS'gl'
p6063
(lp6064
g36
asS'single3prog'
p6065
(lp6066
g350
asS'package_dir'
p6067
(lp6068
g213
asS'splitSignature'
p6069
(lp6070
g55
asS'compose'
p6071
(lp6072
g245
ag21
asS'addsitepackages'
p6073
(lp6074
g554
asS'CreateStereoBMState'
p6075
(lp6076
g95
asS'enqueue_task'
p6077
(lp6078
g18
asS'CalcProbDensity'
p6079
(lp6080
g95
asS'base64'
p6081
(lp6082
g104
ag474
ag79
ag653
asS'HoughLines'
p6083
(lp6084
g24
asS'is_entity_header'
p6085
(lp6086
g170
asS'selectorFor'
p6087
(lp6088
g55
asS'addConvenienceForClass'
p6089
(lp6090
g55
asS'parse_graph6'
p6091
(lp6092
g21
asS'ClassTypes'
p6093
(lp6094
g73
asS'blackman'
p6095
(lp6096
g27
asS'init_frozen'
p6097
(lp6098
g227
asS'suite'
p6099
(lp6100
g513
ag117
asS'getargspec'
p6101
(lp6102
g135
ag361
asS'parse_multiline_adjlist'
p6103
(lp6104
g21
asS'getline'
p6105
(lp6106
g1679
asS'getOptimalDFTSize'
p6107
(lp6108
g24
asS'node_clique_number'
p6109
(lp6110
g21
asS'deprecation'
p6111
(lp6112
g87
asS'getenv'
p6113
(lp6114
g76
asS'k_shell'
p6115
(lp6116
g21
asS'paMME'
p6117
(lp6118
g9
asS'minor1'
p6119
(lp6120
g496
asS'initFrameworkWrapper'
p6121
(lp6122
g55
asS'maxunicode'
p6123
(lp6124
g39
asS'fixup_scripts'
p6125
(lp6126
g79
asS'kruskal_mst'
p6127
(lp6128
g21
asS'GFTTDetector'
p6129
(lp6130
g24
asS'date_range'
p6131
(lp6132
g12
asS'protocolsForClass'
p6133
(lp6134
g55
asS'isomorphism'
p6135
(lp6136
g21
asS'diamond_graph'
p6137
(lp6138
g21
asS'mixing'
p6139
(lp6140
g21
asS'ignore_errors'
p6141
(lp6142
g6
asS'single_quoted'
p6143
(lp6144
g350
asS'estimateRigidTransform'
p6145
(lp6146
g24
asS'getusersitepackages'
p6147
(lp6148
g554
asS'tri'
p6149
(lp6150
g27
asS'stringStart'
p6151
(lp6152
g296
asS'wavwrite'
p6153
(lp6154
g203
asS'mercurial'
p6155
(lp6156
g87
asS'FitEllipse2'
p6157
(lp6158
g95
asS'getBB'
p6159
(lp6160
g270
asS'modulesbyfile'
p6161
(lp6162
g135
asS'scan_module'
p6163
(lp6164
g42
asS'True_'
p6165
(lp6166
g27
asS'on_ros_path'
p6167
(lp6168
g354
asS'alphas8bit'
p6169
(lp6170
g296
asS'islink'
p6171
(lp6172
g142
asS'email'
p6173
(lp6174
g1490
asS'CheckContourConvexity'
p6175
(lp6176
g95
asS'cfunc'
p6177
(lp6178
g84
asS'upcaseTokens'
p6179
(lp6180
g296
asS'maximal_matching'
p6181
(lp6182
g21
asS'ttyname'
p6183
(lp6184
g76
asS'getfilesystemencoding'
p6185
(lp6186
g39
asS'copyfileordir'
p6187
(lp6188
g79
asS'foldr'
p6189
(lp6190
g42
asS'read_leda'
p6191
(lp6192
g21
asS'Xor'
p6193
(lp6194
g95
asS'clipLine'
p6195
(lp6196
g24
asS'OrS'
p6197
(lp6198
g95
asS'start_new_thread'
p6199
(lp6200
g1181
asS'diag_indices_from'
p6201
(lp6202
g27
asS'foldl'
p6203
(lp6204
g42
asS'paFloat32'
p6205
(lp6206
g9
asS'download'
p6207
(lp6208
g87
asS'sftp'
p6209
(lp6210
g454
asS'index_exp'
p6211
(lp6212
g27
asS'append'
p6213
(lp6214
g27
asS'getitimer'
p6215
(lp6216
g1057
asS'compat'
p6217
(lp6218
g435
ag42
ag27
ag436
ag437
ag496
ag12
ag87
ag678
ag59
ag132
asS'index'
p6219
(lp6220
g279
ag12
ag87
ag788
asS'got_request_exception'
p6221
(lp6222
g62
asS'nanargmax'
p6223
(lp6224
g27
asS'MulSpectrums'
p6225
(lp6226
g95
asS'norm_2'
p6227
(lp6228
g112
asS'rollaxis'
p6229
(lp6230
g27
asS'attribute_mixing_matrix'
p6231
(lp6232
g21
asS'exc_type'
p6233
(lp6234
g39
asS'access'
p6235
(lp6236
g76
asS'get_logger'
p6237
(lp6238
g337
asS'docscrape_sphinx'
p6239
(lp6240
g412
asS'callstats'
p6241
(lp6242
g39
asS'Line'
p6243
(lp6244
g95
asS'add_python_path_relative_to_script'
p6245
(lp6246
g112
asS'nan_to_num'
p6247
(lp6248
g27
asS'read_clipboard'
p6249
(lp6250
g12
asS'GetNormalizedCentralMoment'
p6251
(lp6252
g95
asS'joinfields'
p6253
(lp6254
g279
asS'degree'
p6255
(lp6256
g21
asS'circular_layout'
p6257
(lp6258
g21
asS'accessor'
p6259
(lp6260
g55
asS'CreateMatHeader'
p6261
(lp6262
g95
asS'spacing'
p6263
(lp6264
g27
asS'PopenGateway'
p6265
(lp6266
g2270
asS'warnpy3k'
p6267
(lp6268
g384
asS'findsource'
p6269
(lp6270
g135
asS'warpAffine'
p6271
(lp6272
g24
asS'hostkeys'
p6273
(lp6274
g454
asS'CV_YCrCb2RGB'
p6275
(lp6276
g95
asS'sinh'
p6277
(lp6278
g27
asS'powerlaw_cluster_graph'
p6279
(lp6280
g21
asS'lex'
p6281
(lp6282
g1485
asS'draft3_format_checker'
p6283
(lp6284
g437
asS'sinc'
p6285
(lp6286
g27
asS'parse_form_data'
p6287
(lp6288
g170
asS'solvePnPRansac'
p6289
(lp6290
g24
asS'convert'
p6291
(lp6292
g21
ag79
asS'norm_p'
p6293
(lp6294
g112
asS'qsettings_wrapper'
p6295
(lp6296
g3472
asS'FindContours'
p6297
(lp6298
g95
asS'CalcPCA'
p6299
(lp6300
g95
asS'ctx'
p6301
(lp6302
g62
asS'patchNaNs'
p6303
(lp6304
g24
asS'groupby'
p6305
(lp6306
g12
asS'import_string'
p6307
(lp6308
g170
asS'helpers'
p6309
(lp6310
g3321
ag62
asS'removedirs'
p6311
(lp6312
g76
asS'rsync_remote'
p6313
(lp6314
g2270
asS'paWASAPI'
p6315
(lp6316
g9
asS'Category'
p6317
(lp6318
g55
asS'getrefcount'
p6319
(lp6320
g39
asS'my_exceptions'
p6321
(lp6322
g1884
asS'infer_freq'
p6323
(lp6324
g12
asS'buildTagMap'
p6325
(lp6326
g263
asS'app'
p6327
(lp6328
g62
asS'FloodFill'
p6329
(lp6330
g95
asS'api'
p6331
(lp6332
g435
ag334
ag299
asS'parse_etags'
p6333
(lp6334
g170
asS'composer'
p6335
(lp6336
g245
asS'copyfile'
p6337
(lp6338
g79
asS'opname'
p6339
(lp6340
g886
asS'sugar'
p6341
(lp6342
g52
asS'tools'
p6343
(lp6344
g513
ag12
asS'gateway'
p6345
(lp6346
g2270
asS'setquit'
p6347
(lp6348
g554
asS'draw_networkx_labels'
p6349
(lp6350
g21
asS'figure'
p6351
(lp6352
g1412
asS'propertiesForClass'
p6353
(lp6354
g55
asS'drawKeypoints'
p6355
(lp6356
g24
asS'externals'
p6357
(lp6358
g745
asS'next'
p6359
(lp6360
S'interpy.codec.utils'
p6361
asS'rolling_kurt'
p6362
(lp6363
g12
asS'parse_size'
p6364
(lp6365
g169
asS'fchmod'
p6366
(lp6367
g76
asS'add_command'
p6368
(lp6369
g337
asS'dtypes'
p6370
(lp6371
g1865
asS'intersection_all'
p6372
(lp6373
g21
asS'pickle_cl_vector'
p6374
(lp6375
g36
asS'have_gl'
p6376
(lp6377
g18
asS'sort'
p6378
(lp6379
g27
ag24
asS'pkey'
p6380
(lp6381
g454
asS'loadtxt'
p6382
(lp6383
g27
asS'getcwd'
p6384
(lp6385
g76
asS'runmodule'
p6386
(lp6387
g513
asS'strict_errors'
p6388
(lp6389
g6
asS'set_special_baudrate'
p6390
(lp6391
g403
asS'int_asbuffer'
p6392
(lp6393
g27
asS'Merge'
p6394
(lp6395
g95
asS'preferential_attachment'
p6396
(lp6397
g21
asS'bfs_edges'
p6398
(lp6399
g21
asg2245
(lp6400
g2245
asS'eccentricity'
p6401
(lp6402
g21
asS'resize'
p6403
(lp6404
g27
ag24
asS'socket'
p6405
(lp6406
g109
ag588
asS'HoughCircles'
p6407
(lp6408
g95
ag24
asS'flacwrite'
p6409
(lp6410
g203
asS'chdir'
p6411
(lp6412
g76
asS'getBBWidth'
p6413
(lp6414
g270
asS'f'
(lp6415
g496
asS'GetRotationMatrix2D'
p6416
(lp6417
g95
asS'package'
p6418
(lp6419
g788
asS'utf_16_encode'
p6420
(lp6421
g6
asS'expandtabs'
p6422
(lp6423
g279
asS'tb_lineno'
p6424
(lp6425
g792
asS'raw_unicode_escape_encode'
p6426
(lp6427
g6
asS'markupbase'
p6428
(lp6429
g263
asS'sre_parse'
p6430
(lp6431
g58
asS'round_number'
p6432
(lp6433
g169
asS'ascii_lowercase'
p6434
(lp6435
g279
asS'inmain_later'
p6436
(lp6437
g3472
asS'country_timezones'
p6438
(lp6439
g321
asS'HOGDescriptor'
p6440
(lp6441
g24
asS'tar'
p6442
(lp6443
g789
asS'current_flow_betweenness_subset'
p6444
(lp6445
g21
asS'bipartite_reverse_havel_hakimi_graph'
p6446
(lp6447
g21
asS'ApproxChains'
p6448
(lp6449
g95
asS'pad'
p6450
(lp6451
g27
asS'node_connected_component'
p6452
(lp6453
g21
asS'single_source_dijkstra_path_length'
p6454
(lp6455
g21
asS'seterrcall'
p6456
(lp6457
g27
asS'SetZero'
p6458
(lp6459
g95
asS'kex_gex'
p6460
(lp6461
g454
asS'removeAssociatedObjects'
p6462
(lp6463
g55
asS'PCAProject'
p6464
(lp6465
g24
asS'raw_unicode_escape_decode'
p6466
(lp6467
g6
asS'tan'
p6468
(lp6469
g27
asS'formatters'
p6470
(lp6471
g1485
asS'current_flow_betweenness'
p6472
(lp6473
g21
asS'utf_7_decode'
p6474
(lp6475
g6
asS'apipkg'
p6476
(lp6477
g1493
asS'lchflags'
p6478
(lp6479
g76
asS'rcsetup'
p6480
(lp6481
g496
asS'uchar'
p6482
(lp6483
g84
asS'grabCut'
p6484
(lp6485
g24
asg90
(lp6486
g6361
ag741
ag496
ag112
asS'killall'
p6487
(lp6488
g45
asS'rolling_apply'
p6489
(lp6490
g12
asS'pkcs1'
p6491
(lp6492
g489
asS'sin'
p6493
(lp6494
g27
asS'write_yaml'
p6495
(lp6496
g21
asS'longlong'
p6497
(lp6498
g84
asS'idft'
p6499
(lp6500
g24
asS'PerspectiveTransform'
p6501
(lp6502
g95
asS'logging_default_handler'
p6503
(lp6504
g42
asS'environmentfunction'
p6505
(lp6506
g438
asS'get_distribution'
p6507
(lp6508
g788
asS'CV_Lab2RGB'
p6509
(lp6510
g95
asS'locked'
p6511
(lp6512
g588
asS'Set2D'
p6513
(lp6514
g95
asS'utf_32_be_decode'
p6515
(lp6516
g6
asS'degree_assortativity_coefficient'
p6517
(lp6518
g21
asS'rmtree'
p6519
(lp6520
g79
asS'is_interactive'
p6521
(lp6522
g496
asS'min_scalar_type'
p6523
(lp6524
g27
asS'npv'
p6525
(lp6526
g27
asS'aiffread'
p6527
(lp6528
g203
asS'generate_all_integer_tuples'
p6529
(lp6530
g112
asS'get_cached_release'
p6531
(lp6532
g788
asS'common_timezones'
p6533
(lp6534
g321
asS'byte2int'
p6535
(lp6536
g90
asS'left_shift'
p6537
(lp6538
g27
asS'get_path'
p6539
(lp6540
g177
asS'compiler_output'
p6541
(lp6542
g18
asS'write_dot'
p6543
(lp6544
g21
asS'parse_edgelist'
p6545
(lp6546
g21
asS'may_share_memory'
p6547
(lp6548
g27
asS'KMeans2'
p6549
(lp6550
g95
asS'GetTrackbarPos'
p6551
(lp6552
g95
asS'PyrMeanShiftFiltering'
p6553
(lp6554
g95
asS'minimum_cut'
p6555
(lp6556
g21
asS'get_array_wrap'
p6557
(lp6558
g27
asS'BackgroundSubtractorMOG'
p6559
(lp6560
g24
asS'star_graph'
p6561
(lp6562
g21
asS'execle'
p6563
(lp6564
g76
asS'alphanums'
p6565
(lp6566
g296
asS'AvgSdv'
p6567
(lp6568
g95
asS'can_cast'
p6569
(lp6570
g27
asS'is_executable_file'
p6571
(lp6572
g79
asS'get_installed_distributions'
p6573
(lp6574
g87
asS'graph'
p6575
(lp6576
g21
ag149
ag1160
asS'disconnect_contextmanager'
p6577
(lp6578
g3472
asS'fiedler_vector'
p6579
(lp6580
g21
asS'execlp'
p6581
(lp6582
g76
asS'run_pylint'
p6583
(lp6584
g748
asS'read_excel'
p6585
(lp6586
g12
asS'GetRealND'
p6587
(lp6588
g95
asS'threadpool'
p6589
(lp6590
g2270
asS'le'
p6591
(lp6592
g220
asS'outer'
p6593
(lp6594
g27
asS'tempfile'
p6595
(lp6596
g496
ag79
asS'exec_prefix'
p6597
(lp6598
g39
asS'nsmutabledata__setslice__'
p6599
(lp6600
g55
asS'multigraph'
p6601
(lp6602
g21
asS'lk'
p6603
(lp6604
g270
asS'add_implicit_resolver'
p6605
(lp6606
g245
asS'lt'
p6607
(lp6608
g220
asS'degrees'
p6609
(lp6610
g27
asS'choose'
p6611
(lp6612
g27
asS'attracting_component_subgraphs'
p6613
(lp6614
g21
asS'get_cachedir'
p6615
(lp6616
g496
asS'compiler'
p6617
(lp6618
g741
ag438
asS'resource_exists'
p6619
(lp6620
g321
asS'dag'
p6621
(lp6622
g21
asS'createOpaquePointerType'
p6623
(lp6624
g55
asS'greater'
p6625
(lp6626
g27
asS'descendants'
p6627
(lp6628
g21
asS'factorial'
p6629
(lp6630
g112
asS'sftp_attr'
p6631
(lp6632
g454
asS'useOptimized'
p6633
(lp6634
g24
asS'auth'
p6635
(lp6636
g435
asS'weakly_connected_components'
p6637
(lp6638
g21
asS'polyint'
p6639
(lp6640
g27
asS'from_agraph'
p6641
(lp6642
g21
asS'get_ros_home'
p6643
(lp6644
g354
asS'k_corona'
p6645
(lp6646
g21
asS'dataset'
p6647
(lp6648
g2437
asS'xhtml'
p6649
(lp6650
g170
asS'iterkeys'
p6651
(lp6652
g90
asS'paInternalError'
p6653
(lp6654
g9
asS'get_makefile_filename'
p6655
(lp6656
g177
asS'generate_graphml'
p6657
(lp6658
g21
asS'generate_nonnegative_integer_tuples_below'
p6659
(lp6660
g112
asS'Undistort2'
p6661
(lp6662
g95
asS'ExtractSURF'
p6663
(lp6664
g95
asS'radians'
p6665
(lp6666
g27
asS'merge'
p6667
(lp6668
g232
ag24
ag12
asS'magnitude'
p6669
(lp6670
g24
asS'truth'
p6671
(lp6672
g220
asS'uniform_random_intersection_graph'
p6673
(lp6674
g21
asS'DecomposeProjectionMatrix'
p6675
(lp6676
g95
asS'mSet'
p6677
(lp6678
g95
asS'hasname'
p6679
(lp6680
g886
asS'draw_spectral'
p6681
(lp6682
g21
asS'is_kl_connected'
p6683
(lp6684
g21
asS'ixor'
p6685
(lp6686
g220
asS'mkfifo'
p6687
(lp6688
g76
asS'density'
p6689
(lp6690
g21
asS'ismemberdescriptor'
p6691
(lp6692
g135
asS'remap'
p6693
(lp6694
g24
asS'default_help'
p6695
(lp6696
g361
asS'PyramidAdaptedFeatureDetector'
p6697
(lp6698
g24
asS'viewkeys'
p6699
(lp6700
g90
asS'getTextSize'
p6701
(lp6702
g24
asg65
(lp6703
g696
asS'geterr'
p6704
(lp6705
g27
asS'kex_group14'
p6706
(lp6707
g454
asS'special'
p6708
(lp6709
g318
asS'killpg'
p6710
(lp6711
g76
asS'ulonglong'
p6712
(lp6713
g84
asS'convexHull'
p6714
(lp6715
g24
asS'linklockfile'
p6716
(lp6717
g588
asS'getslice'
p6718
(lp6719
g220
asS'req'
p6720
(lp6721
g87
asS'add_mutex'
p6722
(lp6723
g337
asS'polylines'
p6724
(lp6725
g24
asS'eigenvector_centrality'
p6726
(lp6727
g21
asS'VideoCapture'
p6728
(lp6729
g24
asS'getGaborKernel'
p6730
(lp6731
g24
asS'rec'
p6732
(lp6733
g27
asS'adaptive'
p6734
(lp6735
g2437
asS'paASIO'
p6736
(lp6737
g9
asS'math'
p6738
(lp6739
g27
ag169
ag270
asS'float_types'
p6740
(lp6741
g84
asS'pajek'
p6742
(lp6743
g21
asS'from_dict_of_lists'
p6744
(lp6745
g21
asS'url_unquote_plus'
p6746
(lp6747
g170
asS'safe_load'
p6748
(lp6749
g245
asS'predictBB'
p6750
(lp6751
g270
asS'diagonal'
p6752
(lp6753
g27
asS'atleast_1d'
p6754
(lp6755
g27
asS'string_histogram'
p6756
(lp6757
g112
asS'paInvalidDevice'
p6758
(lp6759
g9
asS'transpose'
p6760
(lp6761
g27
ag24
asS'parse_atom'
p6762
(lp6763
g743
asS'ipow'
p6764
(lp6765
g220
asS'longdoublecomplex'
p6766
(lp6767
g84
asS'floyd_warshall_predecessor_and_distance'
p6768
(lp6769
g21
asS'parse_argv'
p6770
(lp6771
g743
asS'mulTransposed'
p6772
(lp6773
g24
asS'parse_args'
p6774
(lp6775
g337
asS'g'
(lp6776
g62
asS'deprecated'
p6777
(lp6778
g2270
asS'openpty'
p6779
(lp6780
g76
asS'lexer'
p6781
(lp6782
g436
ag438
ag132
ag1485
asS'times'
p6783
(lp6784
g76
asS'heappush'
p6785
(lp6786
g232
asS'bzr'
p6787
(lp6788
g789
asS'get_hub'
p6789
(lp6790
g45
asS'getsourcefile'
p6791
(lp6792
g135
asS'cornerEigenValsAndVecs'
p6793
(lp6794
g24
asS'debughelpers'
p6795
(lp6796
g62
asS'shortest_path'
p6797
(lp6798
g21
asS'is_directed_acyclic_graph'
p6799
(lp6800
g21
asS'ndim'
p6801
(lp6802
g27
asS'get_node_attributes'
p6803
(lp6804
g21
asS'astar_path'
p6805
(lp6806
g21
asS'inmain_decorator'
p6807
(lp6808
g3472
asS'validate_arguments'
p6809
(lp6810
g170
asS'arctan2'
p6811
(lp6812
g27
asS'draw_circular'
p6813
(lp6814
g21
asS'create_program_with_built_in_kernels'
p6815
(lp6816
g18
asS'write_edgelist'
p6817
(lp6818
g21
asS'type'
p6819
(lp6820
g678
asS'fast_gnp_random_graph'
p6821
(lp6822
g21
asS'common_type'
p6823
(lp6824
g27
asS'setInstanceVariable'
p6825
(lp6826
g55
asS'dispersion'
p6827
(lp6828
g21
asS'ols'
p6829
(lp6830
g12
asS'CreateStructuringElementEx'
p6831
(lp6832
g95
asS'BaseExceptions'
p6833
(lp6834
g73
asS'mkdir'
p6835
(lp6836
g76
asS'system'
p6837
(lp6838
g76
asS'GetSize'
p6839
(lp6840
g95
asS'isSequenceType'
p6841
(lp6842
g220
asS'alltrue'
p6843
(lp6844
g27
asS'EigenVV'
p6845
(lp6846
g95
asS'cdiv'
p6847
(lp6848
g84
asS'CalcSubdivVoronoi2D'
p6849
(lp6850
g95
asS'createEigenFaceRecognizer'
p6851
(lp6852
g24
asS'generate_tokens'
p6853
(lp6854
g350
asS'file_spec'
p6855
(lp6856
g73
asS'thirdparty'
p6857
(lp6858
g299
asS'create_environ'
p6859
(lp6860
g170
asS'disjoint_union_all'
p6861
(lp6862
g21
asS'parse_sparse6'
p6863
(lp6864
g21
asS'edge_current_flow_betweenness_centrality'
p6865
(lp6866
g21
asS'Inpaint'
p6867
(lp6868
g95
asS'codetoast'
p6869
(lp6870
g1290
asS'getdecoder'
p6871
(lp6872
g6
asS'nanpercentile'
p6873
(lp6874
g27
asS'int64_sockopts'
p6875
(lp6876
g52
asS'Radix'
p6877
(lp6878
g744
asS'arctanh'
p6879
(lp6880
g27
asS'general_random_intersection_graph'
p6881
(lp6882
g21
asS'run_pyreverse'
p6883
(lp6884
g748
asS'typecodes'
p6885
(lp6886
g27
asS'find_packages'
p6887
(lp6888
g59
asS'InRange'
p6889
(lp6890
g95
asS'parse_graphml'
p6891
(lp6892
g21
asS'disk_io_counters'
p6893
(lp6894
g15
asS'grid_graph'
p6895
(lp6896
g21
asS'not_equal'
p6897
(lp6898
g27
asS'KDTree'
p6899
(lp6900
g24
asS'majver'
p6901
(lp6902
g79
asS'get_pid_list'
p6903
(lp6904
g15
asS'read_multiline_adjlist'
p6905
(lp6906
g21
asS'chardet'
p6907
(lp6908
g263
asS'tetrahedral_graph'
p6909
(lp6910
g21
asS'fromstring'
p6911
(lp6912
g27
asS'ber'
p6913
(lp6914
g454
asS'used_phymem'
p6915
(lp6916
g15
asS'getbuffer'
p6917
(lp6918
g27
asS'function'
p6919
(lp6920
g42
ag21
asS'pep425tags'
p6921
(lp6922
g87
asS'datetools'
p6923
(lp6924
g12
asS'clip'
p6925
(lp6926
g27
asS'pconf'
p6927
(lp6928
g361
asS'gml'
p6929
(lp6930
g21
asS'get_release_file'
p6931
(lp6932
g788
asS'QueryHistValue_1D'
p6933
(lp6934
g95
asS'savez_compressed'
p6935
(lp6936
g27
asS'SetWindowProperty'
p6937
(lp6938
g95
asS'frompyfunc'
p6939
(lp6940
g27
asS'rc_file'
p6941
(lp6942
g496
asS'reraise'
p6943
(lp6944
g90
asS'buffered_pipe'
p6945
(lp6946
g454
asS'fix_local_scheme'
p6947
(lp6948
g79
asS'angle'
p6949
(lp6950
g27
asS'spawnl'
p6951
(lp6952
g76
asS'min'
p6953
(lp6954
g27
ag24
asS'setAssociatedObject'
p6955
(lp6956
g55
asS'is_string_like'
p6957
(lp6958
g496
asS'accumulateWeighted'
p6959
(lp6960
g24
asS'richclub'
p6961
(lp6962
g21
asS'validateDisparity'
p6963
(lp6964
g24
asS'QueryFrame'
p6965
(lp6966
g95
asS'builtin'
p6967
(lp6968
g73
ag1493
asS'right_shift'
p6969
(lp6970
g27
asS'locals'
p6971
(lp6972
g84
asS'GrabCut'
p6973
(lp6974
g95
asS'expanding_count'
p6975
(lp6976
g12
asS'rolling_count'
p6977
(lp6978
g12
asS'mis'
p6979
(lp6980
g21
asS'predefined_linkers'
p6981
(lp6982
g42
asS'spawnv'
p6983
(lp6984
g76
asS'betweenness_subset'
p6985
(lp6986
g21
asS'dateutil'
p6987
(lp6988
g496
asS'strong_product'
p6989
(lp6990
g21
asS'set_node_attributes'
p6991
(lp6992
g21
asS'byte_bounds'
p6993
(lp6994
g27
asS'who'
p6995
(lp6996
g27
asS'minimum_edge_cut'
p6997
(lp6998
g21
asS'callable'
p6999
(lp7000
g90
ag15
asS'avail_virtmem'
p7001
(lp7002
g15
asS'connected'
p7003
(lp7004
g21
asS'bint'
p7005
(lp7006
g84
asS'device'
p7007
(lp7008
g403
ag52
asS'mask_indices'
p7009
(lp7010
g27
asS'lexists'
p7011
(lp7012
g142
asS'skipUnless'
p7013
(lp7014
g117
asS'average_clustering'
p7015
(lp7016
g21
asS'HiddenServiceState'
p7017
(lp7018
g687
asS'all_roughly_equal'
p7019
(lp7020
g112
asS'viewvalues'
p7021
(lp7022
g90
asS'ismodule'
p7023
(lp7024
g135
asS'Pow'
p7025
(lp7026
g95
asS'request'
p7027
(lp7028
g435
ag62
asS'make_line_iter'
p7029
(lp7030
g170
asS'bipartite'
p7031
(lp7032
g21
asS'pipe'
p7033
(lp7034
g76
asS'downcaseTokens'
p7035
(lp7036
g296
asS'splitdrive'
p7037
(lp7038
g142
asS'expanding_apply'
p7039
(lp7040
g12
asS'SetImageROI'
p7041
(lp7042
g95
asS'rolling_corr_pairwise'
p7043
(lp7044
g12
asS'dist'
p7045
(lp7046
g59
asS'SeqInvert'
p7047
(lp7048
g95
asS'getreader'
p7049
(lp7050
g6
asS'Whitespace'
p7051
(lp7052
g350
asS'is_python_build'
p7053
(lp7054
g177
asS'readbuffer_encode'
p7055
(lp7056
g6
asS'calcOpticalFlowSF'
p7057
(lp7058
g24
asS'int_sockopts'
p7059
(lp7060
g52
asS'arcLength'
p7061
(lp7062
g24
asS'objc'
p7063
(lp7064
g55
asg296
(lp7065
g496
asS'parse_leda'
p7066
(lp7067
g21
asS'one'
p7068
(lp7069
g112
asS'routing'
p7070
(lp7071
g170
asS'pause'
p7072
(lp7073
g1057
asS'ConvertScaleAbs'
p7074
(lp7075
g95
asS'rolling_corr'
p7076
(lp7077
g12
asS'cache'
p7078
(lp7079
g1679
ag334
ag132
asS'extract_tb'
p7080
(lp7081
g792
asS'safe_join'
p7082
(lp7083
g62
asS'SetReal2D'
p7084
(lp7085
g95
asS'enqueue_fill_buffer'
p7086
(lp7087
g18
asS'bytes_to_int'
p7088
(lp7089
g104
asS'lineEnd'
p7090
(lp7091
g296
asS'namedtuple'
p7092
(lp7093
g1655
ag135
asS'xform_name'
p7094
(lp7095
g740
asS'Smooth'
p7096
(lp7097
g95
asS'petersen_graph'
p7098
(lp7099
g21
asS'Rodrigues'
p7100
(lp7101
g24
asS'findContours'
p7102
(lp7103
g24
asS'get_host'
p7104
(lp7105
g170
asS'loadBundleVariables'
p7106
(lp7107
g55
asS'backend'
p7108
(lp7109
g52
asS'ones'
p7110
(lp7111
g27
asS'getpgrp'
p7112
(lp7113
g76
asS'iteritems'
p7114
(lp7115
g90
ag158
asS'getVerbose'
p7116
(lp7117
g55
asS'kl_connected_subgraph'
p7118
(lp7119
g21
asS'write_multiline_adjlist'
p7120
(lp7121
g21
asS'GetSpatialMoment'
p7122
(lp7123
g95
asS'script'
p7124
(lp7125
g170
asS'truncated_cube_graph'
p7126
(lp7127
g21
asS'classify_class_attrs'
p7128
(lp7129
g135
asS'is_hop_by_hop_header'
p7130
(lp7131
g170
asS'comb'
p7132
(lp7133
g112
asS'watershed'
p7134
(lp7135
g24
asS'sumElems'
p7136
(lp7137
g24
asS'authority_matrix'
p7138
(lp7139
g21
asS'cycles'
p7140
(lp7141
g21
asS'grad'
p7142
(lp7143
g42
asS'isfinite'
p7144
(lp7145
g27
asS'numpy_pickle'
p7146
(lp7147
g1884
asS'linear_combination'
p7148
(lp7149
g112
asS'exists'
p7150
(lp7151
g142
asS'GetOptimalNewCameraMatrix'
p7152
(lp7153
g95
asS'argmax'
p7154
(lp7155
g27
ag112
asS'expected_exe'
p7156
(lp7157
g79
asS'popen4'
p7158
(lp7159
g76
asS'popen2'
p7160
(lp7161
g76
asS'popen3'
p7162
(lp7163
g76
asS'to_scipy_sparse_matrix'
p7164
(lp7165
g21
asS'flip'
p7166
(lp7167
g24
asS'QueryHistValue_nD'
p7168
(lp7169
g95
asS'get_configdir'
p7170
(lp7171
g496
asS'polyder'
p7172
(lp7173
g27
asS'DecodeImageM'
p7174
(lp7175
g95
asS'imread'
p7176
(lp7177
g24
asS'xmlcharrefreplace_errors'
p7178
(lp7179
g6
asS'resolve_interpreter'
p7180
(lp7181
g79
asS'isnan'
p7182
(lp7183
g27
asS'stats'
p7184
(lp7185
g12
asS'weakly_connected_component_subgraphs'
p7186
(lp7187
g21
asS'GetReal1D'
p7188
(lp7189
g95
asS'SVBkSb'
p7190
(lp7191
g95
asS'communicability_exp'
p7192
(lp7193
g21
asS'create_empty_copy'
p7194
(lp7195
g21
asS'melt'
p7196
(lp7197
g12
asS'GetMat'
p7198
(lp7199
g95
asS'countNonZero'
p7200
(lp7201
g24
asS'digitize'
p7202
(lp7203
g27
asS'add_tuples'
p7204
(lp7205
g112
asS'sort_complex'
p7206
(lp7207
g27
asS'api_version'
p7208
(lp7209
g39
asS'union_all'
p7210
(lp7211
g21
asS'cvtColor'
p7212
(lp7213
g24
asS'fromregex'
p7214
(lp7215
g27
asS'tdquot'
p7216
(lp7217
g741
asS'CreateData'
p7218
(lp7219
g95
asS'nsdata__getitem__'
p7220
(lp7221
g55
asS'vconcat'
p7222
(lp7223
g24
asS'GetDiag'
p7224
(lp7225
g95
asS'laplacian_matrix'
p7226
(lp7227
g21
asS'emitter'
p7228
(lp7229
g245
asS'InitIntrinsicParams2D'
p7230
(lp7231
g95
asS'euclideanDistance'
p7232
(lp7233
g270
asS'hits'
p7234
(lp7235
g21
asS'ismethod'
p7236
(lp7237
g135
asS'FunctionValueCache'
p7238
(lp7239
g112
asS'sftp_client'
p7240
(lp7241
g454
asS'ushort'
p7242
(lp7243
g84
asS'equal'
p7244
(lp7245
g27
asS'schar'
p7246
(lp7247
g84
asg4208
(lp7248
g90
ag587
asS'nlargest'
p7249
(lp7250
g232
asS'agent'
p7251
(lp7252
g454
asS'inject_tokens'
p7253
(lp7254
S'interpy.codec.tokenizer'
p7255
asS'geterrobj'
p7256
(lp7257
g27
asS'word2phrase'
p7258
(lp7259
g188
asS'interpolation_engines'
p7260
(lp7261
g741
asS'Exp'
p7262
(lp7263
g95
asS'removeAutoreleasePool'
p7264
(lp7265
g55
asS'matutils'
p7266
(lp7267
g787
asS'chmod'
p7268
(lp7269
g76
asS'walk'
p7270
(lp7271
g76
asS'bitwise_or'
p7272
(lp7273
g27
ag24
asS'Lop'
p7274
(lp7275
g42
asS'add_multi_constructor'
p7276
(lp7277
g245
asS'lshift'
p7278
(lp7279
g220
asS'defpath'
p7280
(lp7281
g76
asS'get_ros_root'
p7282
(lp7283
g354
asS'TIOCM_RTS_str'
p7284
(lp7285
g403
asS'uint_types'
p7286
(lp7287
g36
asg95
(lp7288
g24
ag270
asS'DescriptorTypes'
p7289
(lp7290
g73
asS'rjust'
p7291
(lp7292
g279
asS'setcopyright'
p7293
(lp7294
g554
asS'heappushpop'
p7295
(lp7296
g232
asS'collapse_addresses'
p7297
(lp7298
g744
asS'piecewise'
p7299
(lp7300
g27
asS'get_stack_version_by_dir'
p7301
(lp7302
g354
asg24
(lp7303
g270
asS'load_ipython_extension'
p7304
(lp7305
g84
asS'add_constructor'
p7306
(lp7307
g245
asS'getwriter'
p7308
(lp7309
g6
asS'int'
p7310
(lp7311
g84
asS'py3kwarning'
p7312
(lp7313
g39
asS'c_'
p7314
(lp7315
g27
asS'tseries'
p7316
(lp7317
g12
asS'defaultTestLoader'
p7318
(lp7319
g117
asS'get_scalar_constant_value'
p7320
(lp7321
g42
asS'numeric'
p7322
(lp7323
g84
asS'determinant'
p7324
(lp7325
g24
asS'assertRaisesRegex'
p7326
(lp7327
g90
asS'eigenvector'
p7328
(lp7329
g21
asS'convexityDefects'
p7330
(lp7331
g24
asS'sctypeNA'
p7332
(lp7333
g27
asS'doc_file'
p7334
(lp7335
g788
asS'segmentMotion'
p7336
(lp7337
g24
asS'CreateMemStorage'
p7338
(lp7339
g95
asS'termios'
p7340
(lp7341
g403
asS'lineno'
p7342
(lp7343
g296
asS'parser_from'
p7344
(lp7345
g361
asS'paInt16'
p7346
(lp7347
g9
asS'graphics'
p7348
(lp7349
g1412
asS'enqueue_fill_image'
p7350
(lp7351
g18
asS'addConvenienceForBasicSequence'
p7352
(lp7353
g55
asS'And'
p7354
(lp7355
g95
asS'closeness_centrality'
p7356
(lp7357
g21
asS'multi'
p7358
(lp7359
g2270
asS'rc_params'
p7360
(lp7361
g496
asS'iter_fields'
p7362
(lp7363
g441
asS'notnull'
p7364
(lp7365
g12
asS'virtual'
p7366
(lp7367
g149
asS'initCameraMatrix2D'
p7368
(lp7369
g24
asS'dstack'
p7370
(lp7371
g27
asS'print_exc'
p7372
(lp7373
g792
asS'Number'
p7374
(lp7375
g350
asS'WarpAffine'
p7376
(lp7377
g95
asS'minimum_spanning_tree'
p7378
(lp7379
g21
asS'py_float'
p7380
(lp7381
g84
asS'getAffineTransform'
p7382
(lp7383
g24
asS'get_function_globals'
p7384
(lp7385
g90
asS'kclique'
p7386
(lp7387
g21
asS'rename'
p7388
(lp7389
g76
asS'theano_logger'
p7390
(lp7391
g42
asS'adjacency_spectrum'
p7392
(lp7393
g21
asS'pool'
p7394
(lp7395
g1884
asS'relabel'
p7396
(lp7397
g21
asS'randShuffle'
p7398
(lp7399
g24
asg554
(lp7400
g2198
asS'getGaussianKernel'
p7401
(lp7402
g24
asS'signbit'
p7403
(lp7404
g27
asS'dual'
p7405
(lp7406
g27
asS'safe_load_all'
p7407
(lp7408
g245
asS'CV_BayerGB2BGR'
p7409
(lp7410
g95
asS'inspector'
p7411
(lp7412
g513
asS'bitwise_xor'
p7413
(lp7414
g27
ag24
asS'expanding_corr'
p7415
(lp7416
g12
asS'fabs'
p7417
(lp7418
g27
asS'dilate'
p7419
(lp7420
g24
asS'generic'
p7421
(lp7422
g42
ag21
asS'HoughLinesP'
p7423
(lp7424
g24
asS'ScalarTypes'
p7425
(lp7426
g740
asS'cross'
p7427
(lp7428
g27
asS'sqrt'
p7429
(lp7430
g27
ag24
asS'evalcontextfilter'
p7431
(lp7432
g438
asS'python'
p7433
(lp7434
g149
asS'tokenprog'
p7435
(lp7436
g350
asS'floor_divide'
p7437
(lp7438
g27
asS'inRange'
p7439
(lp7440
g24
asS'urlopen'
p7441
(lp7442
g496
asS'infer'
p7443
(lp7444
g149
asS'listdir'
p7445
(lp7446
g76
asS'get_portaudio_version_text'
p7447
(lp7448
g9
asS'convertScaleAbs'
p7449
(lp7450
g24
asS'version_info'
p7451
(lp7452
g39
ag45
ag4449
ag15
ag697
ag213
asS'flipud'
p7453
(lp7454
g27
asS'HoughLines2'
p7455
(lp7456
g95
asS'ior'
p7457
(lp7458
g220
asS'iscomplexobj'
p7459
(lp7460
g27
asS'isroutine'
p7461
(lp7462
g135
asS'writefile'
p7463
(lp7464
g79
asS'array2string'
p7465
(lp7466
g27
asS'boot_time'
p7467
(lp7468
g15
asS'variance'
p7469
(lp7470
g112
asS'get_release_build_files'
p7471
(lp7472
g788
asS'generate_unique_names'
p7473
(lp7474
g112
asS'identity'
p7475
(lp7476
g27
asS'byteorder'
p7477
(lp7478
g39
asS'country_names'
p7479
(lp7480
g321
asS'default_header'
p7481
(lp7482
g653
asS'center'
p7483
(lp7484
g279
ag21
asS'is_strongly_connected'
p7485
(lp7486
g21
asS'i'
(lp7487
g203
asS'maximum_flow_value'
p7488
(lp7489
g21
asS'project_up'
p7490
(lp7491
g21
asS'chordal_graph_cliques'
p7492
(lp7493
g21
asS'floodFill'
p7494
(lp7495
g24
asS'polyadd'
p7496
(lp7497
g27
asS'graphml'
p7498
(lp7499
g21
asS'rcParams'
p7500
(lp7501
g496
asS'Threshold'
p7502
(lp7503
g95
asS'drawing'
p7504
(lp7505
g21
asS'get_default_language'
p7506
(lp7507
g212
asS'lseek'
p7508
(lp7509
g76
asS'sameopenfile'
p7510
(lp7511
g142
asS'less'
p7512
(lp7513
g27
asS'moments'
p7514
(lp7515
g24
asS'iterbytes'
p7516
(lp7517
g90
asS'is_isomorphic'
p7518
(lp7519
g21
asS'typeDict'
p7520
(lp7521
g27
asS'equalizeHist'
p7522
(lp7523
g24
asS'katz_centrality_numpy'
p7524
(lp7525
g21
asS'create_bound_method'
p7526
(lp7527
g90
asS'invertAffineTransform'
p7528
(lp7529
g24
asS'dblSlashComment'
p7530
(lp7531
g296
asS'allocateBuffer'
p7532
(lp7533
g55
asS'edge_load'
p7534
(lp7535
g21
asS'setdlopenflags'
p7536
(lp7537
g39
asS'SetTrackbarPos'
p7538
(lp7539
g95
asS'default_config_file'
p7540
(lp7541
g79
asS'gateway_io'
p7542
(lp7543
g2270
asS'getObj'
p7544
(lp7545
g741
asS'bench'
p7546
(lp7547
g27
ag203
asS'number_strongly_connected_components'
p7548
(lp7549
g21
asS'add'
p7550
(lp7551
g220
ag27
ag24
asS'CreateMat'
p7552
(lp7553
g95
asS'CreateStereoGCState'
p7554
(lp7555
g95
asS'call_tracing'
p7556
(lp7557
g39
asS'getClassList'
p7558
(lp7559
g55
asS'lookup'
p7560
(lp7561
g6
asS'logger'
p7562
(lp7563
g787
ag1884
ag87
ag788
ag79
asS'qtlock'
p7564
(lp7565
g3472
asS'ravel'
p7566
(lp7567
g27
asS'match'
p7568
(lp7569
g58
ag12
asS'barbell_graph'
p7570
(lp7571
g21
asS'tests'
p7572
(lp7573
g42
ag21
ag438
asS'tril_indices'
p7574
(lp7575
g27
asS'fix_missing_locations'
p7576
(lp7577
g441
asS'planted_partition_graph'
p7578
(lp7579
g21
asS'cartToPolar'
p7580
(lp7581
g24
asS'spatial'
p7582
(lp7583
g318
asS'resolver'
p7584
(lp7585
g245
asS'set_sum'
p7586
(lp7587
g112
asS'intersection'
p7588
(lp7589
g21
asS'GetOptimalDFTSize'
p7590
(lp7591
g95
asS'insert'
p7592
(lp7593
g27
asS'int_to_byte'
p7594
(lp7595
g104
asS'fsync'
p7596
(lp7597
g76
asS'allocate_lock'
p7598
(lp7599
g1181
asS'getbufsize'
p7600
(lp7601
g27
asS'square_clustering'
p7602
(lp7603
g21
asS'get_printoptions'
p7604
(lp7605
g27
asS'findCirclesGrid'
p7606
(lp7607
g24
asS'StreamClosureReason'
p7608
(lp7609
g687
asS'negative_edge_cycle'
p7610
(lp7611
g21
asS'HuMoments'
p7612
(lp7613
g24
asS'Scale'
p7614
(lp7615
g95
asS'generate_all_nonnegative_integer_tuples'
p7616
(lp7617
g112
asS'Sub'
p7618
(lp7619
g95
asS'acquire_lock'
p7620
(lp7621
g227
asS'Integral'
p7622
(lp7623
g95
asS'Sum'
p7624
(lp7625
g95
asS'SetND'
p7626
(lp7627
g95
asS'list_by_path'
p7628
(lp7629
g354
asS'strongly_connected_components_recursive'
p7630
(lp7631
g21
asS'RQDecomp3x3'
p7632
(lp7633
g95
ag24
asS'parse_pattern'
p7634
(lp7635
g743
asS'edges_iter'
p7636
(lp7637
g21
asS'read_stata'
p7638
(lp7639
g12
asS'StatusType'
p7640
(lp7641
g687
asS'currentBundle'
p7642
(lp7643
g55
asS'recognition'
p7644
(lp7645
g21
asS'tmp'
p7646
(lp7647
g496
asS'leda'
p7648
(lp7649
g21
asS'StereoSGBM'
p7650
(lp7651
g24
asS'cornerMinEigenVal'
p7652
(lp7653
g24
asS'completeSymm'
p7654
(lp7655
g24
asS'lexers'
p7656
(lp7657
g1485
asS'katz_centrality'
p7658
(lp7659
g21
asS'nsdata__new__'
p7660
(lp7661
g55
asS'betweenness_centrality_source'
p7662
(lp7663
g21
asS'user_dir'
p7664
(lp7665
g79
asS'diag_indices'
p7666
(lp7667
g27
asS'SVBackSubst'
p7668
(lp7669
g24
asS'relpath'
p7670
(lp7671
g142
asS'modf'
p7672
(lp7673
g27
asS'hstack'
p7674
(lp7675
g27
asS'indexOf'
p7676
(lp7677
g220
asS'appcontext_tearing_down'
p7678
(lp7679
g62
asS'integral3'
p7680
(lp7681
g24
asS'pp'
p7682
(lp7683
g42
asS'symlink'
p7684
(lp7685
g76
asVparse_gml
p7686
(lp7687
g21
asS'CalcCovarMatrix'
p7688
(lp7689
g95
asS'Range'
p7690
(lp7691
g95
asS'directed_laplacian_matrix'
p7692
(lp7693
g21
asS'CV_YCrCb2BGR'
p7694
(lp7695
g95
asS'enqueue_read_buffer_rect'
p7696
(lp7697
g18
asS'dct'
p7698
(lp7699
g24
asS'SetReal1D'
p7700
(lp7701
g95
asS'random_int'
p7702
(lp7703
g459
asS'joinseq'
p7704
(lp7705
g135
asS'validate_backend'
p7706
(lp7707
g496
asS'barabasi_albert_graph'
p7708
(lp7709
g21
asS'iscomplex'
p7710
(lp7711
g27
asS'extension'
p7712
(lp7713
g59
asS'is_not'
p7714
(lp7715
g220
asS'siginterrupt'
p7716
(lp7717
g1057
asS'SetReal3D'
p7718
(lp7719
g95
asS'Zero'
p7720
(lp7721
g95
asS'constructor'
p7722
(lp7723
g1805
ag245
asS'cost_of_flow'
p7724
(lp7725
g21
asS'unistring'
p7726
(lp7727
g1485
asS'is_busday'
p7728
(lp7729
g27
asS'letters'
p7730
(lp7731
g279
asS'get_default_context'
p7732
(lp7733
g1865
asS'aptdistro'
p7734
(lp7735
g788
asS'kmeans'
p7736
(lp7737
g24
asS'Sqrt'
p7738
(lp7739
g95
asS'addsitedir'
p7740
(lp7741
g554
asS'weighted'
p7742
(lp7743
g21
asS'is_annotation'
p7744
(lp7745
g361
asS'registerMappingType'
p7746
(lp7747
g55
asS'MulTransposed'
p7748
(lp7749
g95
asS'Intnumber'
p7750
(lp7751
g350
asS'unquote_header_value'
p7752
(lp7753
g170
asS'unpackbits'
p7754
(lp7755
g27
asS'expected_degree_graph'
p7756
(lp7757
g21
asS'CV_Lab2BGR'
p7758
(lp7759
g95
asS'from_dict_of_dicts'
p7760
(lp7761
g21
asS'distanceTransform'
p7762
(lp7763
g24
asS'quotedString'
p7764
(lp7765
g296
asS'nodes_iter'
p7766
(lp7767
g21
asS'CartToPolar'
p7768
(lp7769
g95
asS'visitor'
p7770
(lp7771
g438
asS'inner'
p7772
(lp7773
g27
asS'var'
p7774
(lp7775
g27
asS'sctypes'
p7776
(lp7777
g27
asS'Py_UNICODE'
p7778
(lp7779
g84
asS'log10'
p7780
(lp7781
g27
asS'nanargmin'
p7782
(lp7783
g27
asS'make_encoding_map'
p7784
(lp7785
g6
asS'get_example_data'
p7786
(lp7787
g496
asS'extract_stack'
p7788
(lp7789
g792
asS'cpu_times'
p7790
(lp7791
g15
asS'number_types'
p7792
(lp7793
g104
asS'unwrap'
p7794
(lp7795
g27
asS'Det'
p7796
(lp7797
g95
asS'histogram'
p7798
(lp7799
g27
asS'sysconf_names'
p7800
(lp7801
g76
asS'parse_authorization_header'
p7802
(lp7803
g170
asS'symmetric_difference'
p7804
(lp7805
g21
asS'convertMaps'
p7806
(lp7807
g24
asS'squeeze'
p7808
(lp7809
g27
asS'hg'
p7810
(lp7811
g789
asS'count'
p7812
(lp7813
g279
asS'GetReal2D'
p7814
(lp7815
g95
asS'converter'
p7816
(lp7817
g496
asS'GSSAuth'
p7818
(lp7819
g454
asS'deprecate_with_doc'
p7820
(lp7821
g27
asS'default_group'
p7822
(lp7823
g2270
asS'cStyleComment'
p7824
(lp7825
g296
asS'set_default_context'
p7826
(lp7827
g1865
asS'floyd_warshall'
p7828
(lp7829
g21
asS'isrealobj'
p7830
(lp7831
g27
asS'common_neighbors'
p7832
(lp7833
g21
asS'log1p'
p7834
(lp7835
g27
asS'complete_graph'
p7836
(lp7837
g21
asS'block'
p7838
(lp7839
g21
asS'line_graph'
p7840
(lp7841
g21
asS'path_graph'
p7842
(lp7843
g21
asS'cmod'
p7844
(lp7845
g84
asS'inv'
p7846
(lp7847
g220
asS'ediff1d'
p7848
(lp7849
g27
asS'basexmpp'
p7850
(lp7851
g299
asS'EnvironmentVariables'
p7852
(lp7853
S'awscli'
p7854
asS'type_formats'
p7855
(lp7856
g36
asS'MinEnclosingCircle'
p7857
(lp7858
g95
asS'contextlib'
p7859
(lp7860
g496
asS'random_lobster'
p7861
(lp7862
g21
asS'ScalarType'
p7863
(lp7864
g27
asg87
(lp7865
g87
asS'paInt24'
p7866
(lp7867
g9
asS'inf'
p7868
(lp7869
g27
asS'getStructuringElement'
p7870
(lp7871
g24
asS'iadd'
p7872
(lp7873
g220
asS'QueryHistValue_2D'
p7874
(lp7875
g95
asS'random_partition_graph'
p7876
(lp7877
g21
asS'HaarDetectObjects'
p7878
(lp7879
g95
asS'Save'
p7880
(lp7881
g95
asS'format_string'
p7882
(lp7883
g170
asS'Transpose'
p7884
(lp7885
g95
asS'getWindowProperty'
p7886
(lp7887
g24
asS'emath'
p7888
(lp7889
g27
asS'arctan'
p7890
(lp7891
g27
asS'getsize'
p7892
(lp7893
g142
asS'copy_location'
p7894
(lp7895
g441
asS'paDeviceUnavailable'
p7896
(lp7897
g9
asS'cclass'
p7898
(lp7899
g84
asS'get_boolop'
p7900
(lp7901
g1290
asS'getopt'
p7902
(lp7903
g149
asS'minimum_cut_value'
p7904
(lp7905
g21
asS'memoize'
p7906
(lp7907
g112
asS'articulation_points'
p7908
(lp7909
g21
asS'Acc'
p7910
(lp7911
g95
asS'stat'
p7912
(lp7913
g76
asS'repeat'
p7914
(lp7915
g220
ag27
ag24
asS'getcheckinterval'
p7916
(lp7917
g39
asS'setup_module'
p7918
(lp7919
g745
asS'iterdecode'
p7920
(lp7921
g6
asS'CV_BayerRG2RGB'
p7922
(lp7923
g95
asS'readlink'
p7924
(lp7925
g76
asS'serialize_all'
p7926
(lp7927
g245
asS'CV_BayerRG2BGR_VNG'
p7928
(lp7929
g95
asS'paJACK'
p7930
(lp7931
g9
asS'pygraphviz_layout'
p7932
(lp7933
g21
asS'initUndistortRectifyMap'
p7934
(lp7935
g24
asS'RelayEndReason'
p7936
(lp7937
g687
asS'view_pygraphviz'
p7938
(lp7939
g21
asS'lock_held'
p7940
(lp7941
g227
asS'fpathconf'
p7942
(lp7943
g76
asS'cmdoptions'
p7944
(lp7945
g87
asS'scale_free_graph'
p7946
(lp7947
g21
asS'extras'
p7948
(lp7949
g743
asS'bipartite_preferential_attachment_graph'
p7950
(lp7951
g21
asg788
(lp7952
g788
asS'noquot'
p7953
(lp7954
g741
asS'boxFilter'
p7955
(lp7956
g24
asS'interactive_prompt'
p7957
(lp7958
g169
as.