ccollections
defaultdict
p1
(c__builtin__
list
p2
tRp3
S'OrderedMultiDict'
p4
(lp5
S'werkzeug'
p6
asS'TypeType'
p7
(lp8
S'types'
p9
asS'UnicodeDammit'
p10
(lp11
S'BeautifulSoup'
p12
asS'SFTPServer'
p13
(lp14
S'paramiko'
p15
asS'WeakSet'
p16
(lp17
S'abc'
p18
asS'ImageDescriptor'
p19
(lp20
S'pyopencl'
p21
asS'OpenMPOp'
p22
(lp23
S'theano'
p24
asS'zipimporter'
p25
(lp26
S'zipimport'
p27
asS'QSettingsWrapper'
p28
(lp29
S'qtutils'
p30
asS'pp_longdoublecomplex'
p31
(lp32
S'Cython'
p33
asS'p_char'
p34
(lp35
g33
asS'SocketError'
p36
(lp37
S'stem'
p38
asS'Keyword'
p39
(lp40
S'pyparsing'
p41
asS'void'
p42
(lp43
S'numpy'
p44
aS'scipy'
p45
asS'boolop'
p46
(lp47
S'ast'
p48
aS'codegen'
p49
asS'ParseError'
p50
(lp51
S'configobj'
p52
asS'interpy.codec.tokenizer'
p53
(lp54
S'InterpolationError'
p55
aS'StringIO'
p56
asS'AliasEvent'
p57
(lp58
S'yaml'
p59
asS'Gt'
p60
(lp61
g48
ag49
asS'TestResult'
p62
(lp63
S'unittest'
p64
aS'unittest2'
p65
asS'RuntimeWarning'
p66
(lp67
S'exceptions'
p68
asS'Presence'
p69
(lp70
S'sleekxmpp'
p71
asS'forbiddenfruit'
p72
(lp73
S'PyObject'
p74
aS'Py_ssize_t'
p75
aS'SlotsProxy'
p76
aS'defaultdict'
p77
asS'ResponseStreamMixin'
p78
(lp79
g6
asS'UnsatisfiableRequest'
p80
(lp81
g38
asS'InsecureRequestWarning'
p82
(lp83
S'pip'
p84
asS'Panda'
p85
(lp86
S'panda'
p87
asS'AutoAddPolicy'
p88
(lp89
g15
asS'InstallationError'
p90
(lp91
g84
asS'TagToken'
p92
(lp93
g59
asS'cl_uchar'
p94
(lp95
S'opencl'
p96
asg87
(lp97
g85
aS'datetime'
p98
aS'timedelta'
p99
aS'tzinfo'
p100
asS'OldStyleClass'
p101
(lp102
S'mock'
p103
asS'RawTextHelpFormatter'
p104
(lp105
S'argparse'
p106
asS'p_Py_UNICODE'
p107
(lp108
g33
asS'ppp_float'
p109
(lp110
g33
asS'Metadata'
p111
(lp112
S'mutagen'
p113
asS'PaMacCoreStreamInfo'
p114
(lp115
S'pyaudio'
p116
asS'codecs'
p117
(lp118
S'BufferedIncrementalDecoder'
p119
aS'BufferedIncrementalEncoder'
p120
aS'Codec'
p121
aS'CodecInfo'
p122
aS'IncrementalDecoder'
p123
aS'IncrementalEncoder'
p124
aS'StreamReader'
p125
aS'StreamReaderWriter'
p126
aS'StreamRecoder'
p127
aS'StreamWriter'
p128
asS'unicode_'
p129
(lp130
g44
ag45
asS'BaseRequest'
p131
(lp132
g6
asS'SFTPError'
p133
(lp134
g15
asg113
(lp135
S'FileType'
p136
ag111
asS'ColoredStreamHandler'
p137
(lp138
S'coloredlogs'
p139
asS'Serial'
p140
(lp141
S'serial'
p142
asS'SparsePanel'
p143
(lp144
S'pandas'
p145
asS'complex_'
p146
(lp147
g44
ag45
asS'Group'
p148
(lp149
S'execnet'
p150
ag41
asS'StringEnd'
p151
(lp152
g41
asS'Ellipsis'
p153
(lp154
g48
ag49
asS'BaseXMPP'
p155
(lp156
g71
asS'LazySet'
p157
(lp158
S'pytz'
p159
asS'FileSystemLoader'
p160
(lp161
S'jinja2'
p162
asS'BeautifulSOAP'
p163
(lp164
g12
asS'tokenize'
p165
(lp166
S'StopTokenizing'
p167
aS'TokenError'
p168
aS'Untokenizer'
p169
aS'chain'
p170
asS'ExpressionError'
p171
(lp172
S'cssselect'
p173
asS'Snapshot'
p174
(lp175
S'leveldb'
p176
asS'Str'
p177
(lp178
g48
ag49
asS'HTTPError'
p179
(lp180
S'requests'
p181
asS'cl_float2'
p182
(lp183
g96
asg126
(lp184
g117
asS'cl_float4'
p185
(lp186
g96
asS'cl_float8'
p187
(lp188
g96
asS'XMLStream'
p189
(lp190
g71
asS'AmbiguousTimeError'
p191
(lp192
g159
asS'Trackball'
p193
(lp194
S'glumpy'
p195
asg68
(lp196
S'ArithmeticError'
p197
aS'AssertionError'
p198
aS'AttributeError'
p199
aS'BaseException'
p200
aS'BufferError'
p201
aS'BytesWarning'
p202
aS'DeprecationWarning'
p203
aS'EOFError'
p204
aS'EnvironmentError'
p205
aS'Exception'
p206
aS'FloatingPointError'
p207
aS'FutureWarning'
p208
aS'GeneratorExit'
p209
aS'IOError'
p210
aS'ImportError'
p211
aS'ImportWarning'
p212
aS'IndentationError'
p213
aS'IndexError'
p214
aS'KeyError'
p215
aS'KeyboardInterrupt'
p216
aS'LookupError'
p217
aS'MemoryError'
p218
aS'NameError'
p219
aS'NotImplementedError'
p220
aS'OSError'
p221
aS'OverflowError'
p222
aS'PendingDeprecationWarning'
p223
aS'ReferenceError'
p224
aS'RuntimeError'
p225
ag66
aS'StandardError'
p226
aS'StopIteration'
p227
aS'SyntaxError'
p228
aS'SyntaxWarning'
p229
aS'SystemError'
p230
aS'SystemExit'
p231
aS'TabError'
p232
aS'TypeError'
p233
aS'UnboundLocalError'
p234
aS'UnicodeDecodeError'
p235
aS'UnicodeEncodeError'
p236
aS'UnicodeError'
p237
aS'UnicodeTranslateError'
p238
aS'UnicodeWarning'
p239
aS'UserWarning'
p240
aS'ValueError'
p241
aS'Warning'
p242
aS'ZeroDivisionError'
p243
asS'NetworkXPointlessConcept'
p244
(lp245
S'networkx'
p246
asS'filter_mode'
p247
(lp248
g21
asS'ImageFormat'
p249
(lp250
g96
ag21
asS'RepeatSectionError'
p251
(lp252
g52
asS'cl_uint8'
p253
(lp254
g96
asS'Lt'
p255
(lp256
g48
ag49
asS'Period'
p257
(lp258
g145
asS'cl_uint2'
p259
(lp260
g96
asS'cl_uint4'
p261
(lp262
g96
asS'LevelDBError'
p263
(lp264
g176
asg221
(lp265
g68
asS'Format'
p266
(lp267
S'scikits.audiolab'
p268
asS'TestCase'
p269
(lp270
g64
ag65
asS'CharsNotIn'
p271
(lp272
g41
asS'image_info'
p273
(lp274
g21
asS'NodeVisitor'
p275
(lp276
g48
ag49
asS'str_'
p277
(lp278
g44
ag45
asg99
(lp279
g87
asg9
(lp280
S'BooleanType'
p281
aS'BufferType'
p282
aS'BuiltinFunctionType'
p283
aS'BuiltinMethodType'
p284
aS'ClassType'
p285
aS'CodeType'
p286
aS'ComplexType'
p287
aS'DictProxyType'
p288
aS'DictType'
p289
aS'DictionaryType'
p290
aS'EllipsisType'
p291
ag136
aS'FloatType'
p292
aS'FrameType'
p293
aS'FunctionType'
p294
aS'GeneratorType'
p295
aS'GetSetDescriptorType'
p296
aS'InstanceType'
p297
aS'IntType'
p298
aS'LambdaType'
p299
aS'ListType'
p300
aS'LongType'
p301
aS'MemberDescriptorType'
p302
aS'MethodType'
p303
aS'ModuleType'
p304
aS'NoneType'
p305
aS'NotImplementedType'
p306
aS'ObjectType'
p307
aS'SliceType'
p308
aS'StringType'
p309
aS'TracebackType'
p310
aS'TupleType'
p311
ag7
aS'UnboundMethodType'
p312
aS'UnicodeType'
p313
aS'XRangeType'
p314
asg282
(lp315
g9
asS'Verbose'
p316
(lp317
S'matplotlib'
p318
asS'p_doublecomplex'
p319
(lp320
g33
asS'SocketClosed'
p321
(lp322
g38
asS'alias'
p323
(lp324
g48
ag49
asS'CythonType'
p325
(lp326
g33
asg220
(lp327
g68
asS'itemgetter'
p328
(lp329
S'heapq'
p330
aS'operator'
p331
asS'WarningMessage'
p332
(lp333
S'warnings'
p334
asS'functools'
p335
(lp336
S'partial'
p337
asS'LooseVersion'
p338
(lp339
g145
asS'pp_Py_UNICODE'
p340
(lp341
g33
asS'ParseElementEnhance'
p342
(lp343
g41
asS'vectorize'
p344
(lp345
g44
ag45
asS'MemoryMap'
p346
(lp347
g21
asS'PureWindowsPath'
p348
(lp349
S'pathlib'
p350
asS'timedelta64'
p351
(lp352
g44
ag45
asg219
(lp353
g68
asS'imp'
p354
(lp355
S'NullImporter'
p356
asS'Path'
p357
(lp358
g350
asS'Optional'
p359
(lp360
S'docopt'
p361
ag41
asg162
(lp362
S'BaseLoader'
p363
aS'BytecodeCache'
p364
aS'ChoiceLoader'
p365
aS'DebugUndefined'
p366
aS'DictLoader'
p367
aS'Environment'
p368
aS'FileSystemBytecodeCache'
p369
ag160
aS'FunctionLoader'
p370
aS'Markup'
p371
aS'MemcachedBytecodeCache'
p372
aS'ModuleLoader'
p373
aS'PackageLoader'
p374
aS'PrefixLoader'
p375
aS'StrictUndefined'
p376
aS'Template'
p377
aS'TemplateAssertionError'
p378
aS'TemplateError'
p379
aS'TemplateNotFound'
p380
aS'TemplateSyntaxError'
p381
aS'TemplatesNotFound'
p382
aS'Undefined'
p383
aS'UndefinedError'
p384
asS'FileMultiDict'
p385
(lp386
g6
asS'GlobalInfo'
p387
(lp388
S'shedskin'
p389
asS'decorator'
p390
(lp391
S'ContextManager'
p392
aS'FunctionMaker'
p393
aS'GeneratorContextManager'
p394
aS'getfullargspec'
p395
asS'Reference'
p396
(lp397
S'pytools'
p398
asS'p_floatcomplex'
p399
(lp400
g33
asS'SFTPAttributes'
p401
(lp402
g15
asg366
(lp403
g162
asS'PointerType'
p404
(lp405
g33
asS'kernel_arg_address_qualifier'
p406
(lp407
g21
asS'Transport'
p408
(lp409
g15
asg238
(lp410
g68
asS'RcParams'
p411
(lp412
g318
asS'Type'
p413
(lp414
g24
asS'BadHostKeyException'
p415
(lp416
g15
asS'PosixPath'
p417
(lp418
g350
asS'ErrorTree'
p419
(lp420
S'jsonschema'
p421
asS'poly1d'
p422
(lp423
g44
ag45
asS're'
p424
(lp425
S'Scanner'
p426
asS'UnknownPointerError'
p427
(lp428
S'objc'
p429
asS'LocalStack'
p430
(lp431
g6
asS'Word'
p432
(lp433
g41
asS'Extension'
p434
(lp435
S'setuptools'
p436
asS'WWWAuthenticate'
p437
(lp438
g6
asS'python_method'
p439
(lp440
g429
asS'FollowedBy'
p441
(lp442
g41
asS'UninitializedDeallocWarning'
p443
(lp444
g429
asS'CSafeDumper'
p445
(lp446
g59
asS'Interpreter'
p447
(lp448
S'asteval'
p449
aS'jedi'
p450
aS'plac'
p451
asS'signedinteger'
p452
(lp453
g44
ag45
asS'ZMQBaseError'
p454
(lp455
S'zmq'
p456
asS'DistributionCache'
p457
(lp458
S'rosdistro'
p459
asg225
(lp460
g68
ag21
asS'UniqueNameGenerator'
p461
(lp462
g398
asS'tox'
p463
(lp464
S'exception'
p465
asS'cl_uchar8'
p466
(lp467
g96
asS'cl_uchar4'
p468
(lp469
g96
asS'cl_uchar2'
p470
(lp471
g96
asS'pp_longdouble'
p472
(lp473
g33
asS'ABCMeta'
p474
(lp475
g18
asS'TarClient'
p476
(lp477
S'vcstools'
p478
asg71
(lp479
g155
aS'Callback'
p480
aS'ClientXMPP'
p481
aS'ComponentXMPP'
p482
aS'ElementBase'
p483
aS'InvalidJID'
p484
aS'Iq'
p485
aS'MatchMany'
p486
aS'MatchXMLMask'
p487
aS'MatchXPath'
p488
aS'MatcherId'
p489
aS'Message'
p490
ag69
aS'RestartStream'
p491
aS'StanzaPath'
p492
aS'Waiter'
p493
aS'XMLCallback'
p494
ag189
aS'XMLWaiter'
p495
asS'inexact'
p496
(lp497
g44
ag45
asg301
(lp498
g9
asS'Set'
p499
(lp500
S'collections'
p501
ag48
ag49
asS'keyword'
p502
(lp503
g48
ag49
asS'expr'
p504
(lp505
g48
ag49
asS'NestingError'
p506
(lp507
g52
asg382
(lp508
g162
asS'StringStart'
p509
(lp510
g41
asS'cl_char'
p511
(lp512
g96
asS'StreamStartEvent'
p513
(lp514
g59
asS'CSafeLoader'
p515
(lp516
g59
asS'MemorizedResult'
p517
(lp518
S'joblib'
p519
asS'TestSuite'
p520
(lp521
g64
ag65
asS'Component'
p522
(lp523
g24
aS'docutils'
p524
asS'StreamEndToken'
p525
(lp526
g59
asS'RevivedObjectiveCObjectWarning'
p527
(lp528
g429
asS'WordEnd'
p529
(lp530
g41
asS'DictMixin'
p531
(lp532
S'UserDict'
p533
aS'ordereddict'
p534
asS'object'
p535
(lp536
g44
asS'FileLock'
p537
(lp538
S'lockfile'
p539
asg483
(lp540
g71
asS'BitXor'
p541
(lp542
g48
ag49
asg213
(lp543
g68
asS'profiling_info'
p544
(lp545
g21
asS'pp_void'
p546
(lp547
g33
asg199
(lp548
g68
asS'RosPack'
p549
(lp550
S'rospkg'
p551
asS'Monitor'
p552
(lp553
g451
asS'Flask'
p554
(lp555
S'flask'
p556
asg377
(lp557
S'string'
p558
ag162
asS'FrozenRequirement'
p559
(lp560
g84
asg128
(lp561
g117
asg381
(lp562
g162
asS'Draft4Validator'
p563
(lp564
g421
asS'LocalMemory'
p565
(lp566
g21
asg100
(lp567
g87
asS'itsdangerous'
p568
(lp569
S'BadData'
p570
aS'BadHeader'
p571
aS'BadPayload'
p572
aS'BadSignature'
p573
aS'BadTimeSignature'
p574
aS'HMACAlgorithm'
p575
aS'JSONWebSignatureSerializer'
p576
aS'NoneAlgorithm'
p577
aS'Serializer'
p578
aS'SignatureExpired'
p579
aS'Signer'
p580
aS'SigningAlgorithm'
p581
aS'TimedJSONWebSignatureSerializer'
p582
aS'TimedSerializer'
p583
aS'TimestampSigner'
p584
aS'URLSafeSerializer'
p585
aS'URLSafeSerializerMixin'
p586
aS'URLSafeTimedSerializer'
p587
ag98
aS'izip'
p588
aS'text_type'
p589
asg586
(lp590
g568
asg231
(lp591
g68
asS'device_affinity_domain'
p592
(lp593
g21
asS'program_info'
p594
(lp595
g21
asS'cl_char16'
p596
(lp597
g96
asS'PosixSerial'
p598
(lp599
g142
asS'ValueToken'
p600
(lp601
g59
asS'SFTPServerInterface'
p602
(lp603
g15
asS'Agent'
p604
(lp605
g15
asS'enchant'
p606
(lp607
S'Broker'
p608
aS'DefaultLanguageNotFoundError'
p609
aS'Dict'
p610
aS'DictNotFoundError'
p611
aS'DictWithPWL'
p612
aS'EnchantStr'
p613
aS'Error'
p614
aS'ProviderDesc'
p615
aS'PyPWL'
p616
aS'TokenizerNotFoundError'
p617
asS'NodeEvent'
p618
(lp619
g59
asS'Invert'
p620
(lp621
g48
ag49
asS'p_size_t'
p622
(lp623
g33
asS'CollectionNode'
p624
(lp625
g59
asS'CBaseLoader'
p626
(lp627
g59
asg383
(lp628
g162
asS'ppp_size_t'
p629
(lp630
g33
asS'ProfileStats'
p631
(lp632
g24
asS'NetworkXError'
p633
(lp634
g246
asS'Counter'
p635
(lp636
g501
asS'Queue'
p637
(lp638
g96
asS'theanets'
p639
(lp640
S'Autoencoder'
p641
aS'Classifier'
p642
aS'Experiment'
p643
aS'Network'
p644
aS'Regressor'
p645
asS'WeakRef'
p646
(lp647
g429
asg181
(lp648
S'ConnectionError'
p649
ag179
aS'NullHandler'
p650
aS'PreparedRequest'
p651
aS'Request'
p652
aS'RequestException'
p653
aS'Response'
p654
aS'Session'
p655
aS'Timeout'
p656
aS'TooManyRedirects'
p657
aS'URLRequired'
p658
asS'MinimalSoup'
p659
(lp660
g12
asS'Regex'
p661
(lp662
g41
asS'DiGraph'
p663
(lp664
g246
asS'comprehension'
p665
(lp666
g48
ag49
asS'Sampler'
p667
(lp668
g21
asS'TryExcept'
p669
(lp670
g48
ag49
asS'LocalLinker'
p671
(lp672
g24
asS'VarianceAggregator'
p673
(lp674
g398
asg306
(lp675
g9
asS'flexible'
p676
(lp677
g44
ag45
asS'dropwhile'
p678
(lp679
S'itertools'
p680
asg44
(lp681
S'ComplexWarning'
p682
aS'DataSource'
p683
aS'MachAr'
p684
aS'ModuleDeprecationWarning'
p685
ag374
aS'RankWarning'
p686
aS'Tester'
p687
aS'VisibleDeprecationWarning'
p688
aS'bool'
p689
aS'bool8'
p690
aS'bool_'
p691
aS'broadcast'
p692
aS'busdaycalendar'
p693
aS'byte'
p694
aS'bytes_'
p695
aS'cdouble'
p696
aS'cfloat'
p697
aS'character'
p698
aS'chararray'
p699
aS'clongdouble'
p700
aS'clongfloat'
p701
aS'complex'
p702
aS'complex128'
p703
aS'complex256'
p704
aS'complex64'
p705
ag146
aS'complexfloating'
p706
aS'csingle'
p707
aS'datetime64'
p708
aS'double'
p709
aS'dtype'
p710
aS'errstate'
p711
aS'finfo'
p712
aS'flatiter'
p713
ag676
aS'float'
p714
aS'float128'
p715
aS'float16'
p716
aS'float32'
p717
aS'float64'
p718
aS'float_'
p719
aS'floating'
p720
aS'format_parser'
p721
aS'generic'
p722
aS'half'
p723
aS'iinfo'
p724
ag496
aS'int'
p725
aS'int0'
p726
aS'int16'
p727
aS'int32'
p728
aS'int64'
p729
aS'int8'
p730
aS'int_'
p731
aS'intc'
p732
aS'integer'
p733
aS'intp'
p734
aS'long'
p735
aS'longcomplex'
p736
aS'longdouble'
p737
aS'longfloat'
p738
aS'longlong'
p739
aS'matrix'
p740
aS'memmap'
p741
aS'ndarray'
p742
aS'ndenumerate'
p743
aS'ndindex'
p744
aS'nditer'
p745
aS'number'
p746
ag535
aS'object0'
p747
aS'object_'
p748
ag422
aS'recarray'
p749
aS'record'
p750
aS'short'
p751
ag452
aS'single'
p752
aS'singlecomplex'
p753
aS'str'
p754
ag277
aS'string0'
p755
aS'string_'
p756
ag351
aS'ubyte'
p757
aS'ufunc'
p758
aS'uint'
p759
aS'uint0'
p760
aS'uint16'
p761
aS'uint32'
p762
aS'uint64'
p763
aS'uint8'
p764
aS'uintc'
p765
aS'uintp'
p766
aS'ulonglong'
p767
aS'unicode'
p768
aS'unicode0'
p769
ag129
aS'unsignedinteger'
p770
aS'ushort'
p771
ag344
ag42
aS'void0'
p772
asg688
(lp773
g44
ag45
asS'FlowEntryToken'
p774
(lp775
g59
asg159
(lp776
g191
aS'InvalidTimeError'
p777
aS'LazyDict'
p778
aS'LazyList'
p779
ag157
aS'NonExistentTimeError'
p780
aS'UnknownTimeZoneError'
p781
asg236
(lp782
g68
asS'MultiChannel'
p783
(lp784
g150
asg465
(lp785
g463
asS'cmpop'
p786
(lp787
g48
ag49
asS'Process'
p788
(lp789
S'psutil'
p790
asS'device_fp_config'
p791
(lp792
g21
asS'ObjCLazyModule'
p793
(lp794
g429
asg436
(lp795
S'Command'
p796
aS'Distribution'
p797
ag434
aS'Feature'
p798
aS'PEP420PackageFinder'
p799
aS'PackageFinder'
p800
aS'Require'
p801
aS'filterfalse'
p802
asS'RosDistro'
p803
(lp804
g459
asg294
(lp805
g9
asg218
(lp806
g68
ag21
asg609
(lp807
g606
asS'unirest'
p808
(lp809
g56
aS'UnirestResponse'
p810
asS'ResourceNotFound'
p811
(lp812
g551
asS'LockFile'
p813
(lp814
g539
asS'SerialTimeoutException'
p815
(lp816
g142
asg713
(lp817
g44
ag45
asS'mftrack'
p818
(lp819
S'mftracker'
p820
asg239
(lp821
g68
asg702
(lp822
g44
asg15
(lp823
g604
aS'AgentKey'
p824
aS'AuthHandler'
p825
aS'AuthenticationException'
p826
ag88
aS'BadAuthenticationType'
p827
ag415
aS'BaseSFTP'
p828
aS'BufferedFile'
p829
aS'Channel'
p830
aS'ChannelException'
p831
aS'ChannelFile'
p832
aS'DSSKey'
p833
aS'ECDSAKey'
p834
aS'HostKeys'
p835
aS'InteractiveQuery'
p836
ag490
aS'MissingHostKeyPolicy'
p837
aS'PKey'
p838
aS'Packetizer'
p839
aS'PasswordRequiredException'
p840
aS'ProxyCommand'
p841
aS'ProxyCommandFailure'
p842
aS'RSAKey'
p843
aS'RejectPolicy'
p844
ag401
aS'SFTPClient'
p845
ag133
aS'SFTPFile'
p846
aS'SFTPHandle'
p847
ag13
ag602
aS'SSHClient'
p848
aS'SSHConfig'
p849
aS'SSHException'
p850
aS'SecurityOptions'
p851
aS'ServerInterface'
p852
aS'SubsystemHandler'
p853
ag408
aS'WarningPolicy'
p854
asS'NotIn'
p855
(lp856
g48
ag49
asS'word2vec'
p857
(lp858
S'WordClusters'
p859
aS'WordVectors'
p860
asS'CachedManifestProvider'
p861
(lp862
g459
asg136
(lp863
g9
ag106
ag113
asS'CaselessLiteral'
p864
(lp865
g41
asS'OpFromGraph'
p866
(lp867
g24
asg859
(lp868
g857
asS'cycle'
p869
(lp870
g680
asg145
(lp871
S'Categorical'
p872
aS'DataFrame'
p873
aS'DateOffset'
p874
aS'DateRange'
p875
aS'DatetimeIndex'
p876
aS'ExcelFile'
p877
aS'ExcelWriter'
p878
aS'Expr'
p879
aS'Float64Index'
p880
aS'HDFStore'
p881
aS'Index'
p882
aS'Int64Index'
p883
ag338
aS'MultiIndex'
p884
aS'Panel'
p885
aS'Panel4D'
p886
ag257
aS'PeriodIndex'
p887
aS'Series'
p888
aS'SparseArray'
p889
aS'SparseDataFrame'
p890
aS'SparseList'
p891
ag143
aS'SparseSeries'
p892
aS'SparseTimeSeries'
p893
aS'Term'
p894
aS'TimeGrouper'
p895
aS'TimeSeries'
p896
aS'Timestamp'
p897
aS'WidePanel'
p898
ag98
asS'Table'
p899
(lp900
g398
asg222
(lp901
g68
asg711
(lp902
g44
ag45
asg825
(lp903
g15
asg733
(lp904
g44
ag45
asS'SourceGenerator'
p905
(lp906
g49
asS'iplimage'
p907
(lp908
S'cv'
p909
asS'debugger'
p910
(lp911
S'DebugMetaclass'
p912
asg96
(lp913
S'CommandQueue'
p914
aS'Context'
p915
aS'ContextProperties'
p916
aS'Device'
p917
aS'DeviceMemoryView'
p918
aS'Event'
p919
aS'Image'
p920
ag249
aS'Kernel'
p921
aS'MemoryObject'
p922
aS'OpenCLException'
p923
aS'Platform'
p924
aS'Program'
p925
ag637
aS'UserEvent'
p926
aS'array_type'
p927
ag511
ag596
aS'cl_char2'
p928
aS'cl_char4'
p929
aS'cl_char8'
p930
aS'cl_double'
p931
aS'cl_double16'
p932
aS'cl_double2'
p933
aS'cl_double4'
p934
aS'cl_double8'
p935
aS'cl_float'
p936
aS'cl_float16'
p937
ag182
ag185
ag187
aS'cl_half'
p938
aS'cl_int'
p939
aS'cl_int16'
p940
aS'cl_int2'
p941
aS'cl_int4'
p942
aS'cl_int8'
p943
aS'cl_long'
p944
aS'cl_long16'
p945
aS'cl_long2'
p946
aS'cl_long4'
p947
aS'cl_long8'
p948
aS'cl_short'
p949
aS'cl_short16'
p950
aS'cl_short2'
p951
aS'cl_short4'
p952
aS'cl_short8'
p953
ag94
aS'cl_uchar16'
p954
ag470
ag468
ag466
aS'cl_uint'
p955
aS'cl_uint16'
p956
ag259
ag261
ag253
aS'cl_ulong'
p957
aS'cl_ulong16'
p958
aS'cl_ulong2'
p959
aS'cl_ulong4'
p960
aS'cl_ulong8'
p961
aS'cl_ushort'
p962
aS'cl_ushort16'
p963
aS'cl_ushort2'
p964
aS'cl_ushort4'
p965
aS'cl_ushort8'
p966
aS'cl_vector'
p967
aS'constant_memory'
p968
aS'contextual_memory'
p969
aS'global_memory'
p970
aS'int_type'
p971
aS'local_memory'
p972
aS'mem_layout'
p973
aS'typed_property'
p974
asg698
(lp975
g44
ag45
asg761
(lp976
g44
ag45
asg501
(lp977
S'Callable'
p978
aS'Container'
p979
ag635
aS'Hashable'
p980
aS'ItemsView'
p981
aS'Iterable'
p982
aS'Iterator'
p983
aS'KeysView'
p984
aS'Mapping'
p985
aS'MappingView'
p986
aS'MutableMapping'
p987
aS'MutableSequence'
p988
aS'MutableSet'
p989
aS'OrderedDict'
p990
aS'Sequence'
p991
ag499
aS'Sized'
p992
aS'ValuesView'
p993
ag77
aS'deque'
p994
asg778
(lp995
g159
asg829
(lp996
g15
asg682
(lp997
g44
ag45
asg395
(lp998
g390
ag451
asS'UserAgent'
p999
(lp1000
g6
asg798
(lp1001
g436
asS'Module_six_moves_urllib_robotparser'
p1002
(lp1003
S'six'
p1004
asS'ndgpuarray'
p1005
(lp1006
S'pygpu'
p1007
asg836
(lp1008
g15
asS'ppp_Py_UCS4'
p1009
(lp1010
g33
asS'Poller'
p1011
(lp1012
g456
asg820
(lp1013
g818
asg370
(lp1014
g162
asS'Again'
p1015
(lp1016
g456
asS'NonCallableMock'
p1017
(lp1018
g103
asg947
(lp1019
g96
asg946
(lp1020
g96
asg948
(lp1021
g96
asg292
(lp1022
g9
asS'PipError'
p1023
(lp1024
g84
asS'External'
p1025
(lp1026
g24
asS'TkMonitor'
p1027
(lp1028
g451
asg212
(lp1029
g68
asS'ControllerError'
p1030
(lp1031
g38
asS'ReleaseBuildFile'
p1032
(lp1033
g459
asS'Greenlet'
p1034
(lp1035
S'gevent'
p1036
asS'MovedAttribute'
p1037
(lp1038
g1004
asS'EnvironBuilder'
p1039
(lp1040
g6
asS'super'
p1041
(lp1042
g429
asg920
(lp1043
g195
ag96
ag21
asS'Argument'
p1044
(lp1045
g361
asS'SymbolicOutput'
p1046
(lp1047
g24
asg361
(lp1048
S'AnyOptions'
p1049
ag1044
aS'ChildPattern'
p1050
ag796
ag610
aS'DocoptExit'
p1051
aS'DocoptLanguageError'
p1052
aS'Either'
p1053
aS'OneOrMore'
p1054
aS'Option'
p1055
ag359
aS'ParentPattern'
p1056
aS'Pattern'
p1057
aS'Required'
p1058
aS'TokenStream'
p1059
asg714
(lp1060
g44
asS'VcsClient'
p1061
(lp1062
g478
asg368
(lp1063
g162
asS'ImmutableDict'
p1064
(lp1065
g6
asg689
(lp1066
g44
asS'Config'
p1067
(lp1068
g556
asg585
(lp1069
g568
asS'event_info'
p1070
(lp1071
g21
asg828
(lp1072
g15
asg917
(lp1073
g96
ag21
asS'PropertyMock'
p1074
(lp1075
g103
asg268
(lp1076
g266
aS'PyaudioException'
p1077
aS'PyaudioIOError'
p1078
aS'Sndfile'
p1079
ag687
aS'formatinfo'
p1080
aS'sndfile'
p1081
asS'pp_long'
p1082
(lp1083
g33
asS'ZMQBindError'
p1084
(lp1085
g456
asS'Interactive'
p1086
(lp1087
g48
ag49
asg942
(lp1088
g96
asg941
(lp1089
g96
asg943
(lp1090
g96
asS'array_property'
p1091
(lp1092
g429
asg700
(lp1093
g44
ag45
asS'SchemaError'
p1094
(lp1095
g421
asg205
(lp1096
g68
asS'HelpFormatter'
p1097
(lp1098
g106
asg720
(lp1099
g44
ag45
asS'FormatChecker'
p1100
(lp1101
g421
asg576
(lp1102
g568
asS'AliasToken'
p1103
(lp1104
g59
asg830
(lp1105
g15
asS'LevelDB'
p1106
(lp1107
g176
asS'PyObjCStrBridgeWarning'
p1108
(lp1109
g429
asS'YAMLError'
p1110
(lp1111
g59
asS'QuotedString'
p1112
(lp1113
g41
asS'FormatError'
p1114
(lp1115
g421
asS'ppp_floatcomplex'
p1116
(lp1117
g33
asS'islice'
p1118
(lp1119
g680
ag330
asS'Constant'
p1120
(lp1121
g24
asS'InvalidDate'
p1122
(lp1123
S'humanfriendly'
p1124
asS'IfExp'
p1125
(lp1126
g48
ag49
asg824
(lp1127
g15
asg170
(lp1128
g680
ag330
ag165
ag318
asg912
(lp1129
g910
asS'ParseBaseException'
p1130
(lp1131
g41
asS'izip_longest'
p1132
(lp1133
g680
asg556
(lp1134
S'Blueprint'
p1135
ag1067
ag554
ag371
aS'Module'
p1136
ag652
ag654
ag655
asS'FlowSequenceStartToken'
p1137
(lp1138
g59
asg914
(lp1139
g96
ag21
asg307
(lp1140
g9
asg989
(lp1141
g501
asg558
(lp1142
S'Formatter'
p1143
ag377
aS'atof_error'
p1144
aS'atoi_error'
p1145
aS'atol_error'
p1146
aS'index_error'
p1147
asS'MultiGraph'
p1148
(lp1149
g246
asg693
(lp1150
g44
ag45
asS'FSSpec'
p1151
(lp1152
g429
asS'Yield'
p1153
(lp1154
g48
ag49
asS'markupsafe'
p1155
(lp1156
S'EscapeFormatter'
p1157
ag985
ag371
ag589
asg931
(lp1158
g96
asg303
(lp1159
g9
asS'NoMatch'
p1160
(lp1161
g41
asg214
(lp1162
g68
asS'Global'
p1163
(lp1164
g48
ag49
asS'Tag'
p1165
(lp1166
g12
asS'greenlet'
p1167
(lp1168
S'GreenletExit'
p1169
ag1167
ag1167
asg299
(lp1170
g9
asg77
(lp1171
g501
ag72
aS'pyasn'
p1172
asg76
(lp1173
g72
asg891
(lp1174
g145
asS'CaselessKeyword'
p1175
(lp1176
g41
asg372
(lp1177
g162
asg421
(lp1178
S'Draft3Validator'
p1179
ag563
ag419
ag1100
ag1114
aS'RefResolutionError'
p1180
aS'RefResolver'
p1181
ag1094
aS'ValidationError'
p1182
asS'NetworkXUnfeasible'
p1183
(lp1184
g246
asS'CLoader'
p1185
(lp1186
g59
asS'NetworkXAlgorithmError'
p1187
(lp1188
g246
asS'abstractproperty'
p1189
(lp1190
g18
asS'PosixPollSerial'
p1191
(lp1192
g142
asg986
(lp1193
g501
asS'stmt'
p1194
(lp1195
g48
ag49
asg653
(lp1196
g181
asg797
(lp1197
g459
ag436
asg939
(lp1198
g96
asg216
(lp1199
g68
asS'NSDecimal'
p1200
(lp1201
g429
asg655
(lp1202
g181
ag556
asg173
(lp1203
g171
aS'FunctionalPseudoElement'
p1204
aS'GenericTranslator'
p1205
aS'HTMLTranslator'
p1206
aS'Selector'
p1207
aS'SelectorError'
p1208
aS'SelectorSyntaxError'
p1209
asS'LtE'
p1210
(lp1211
g48
ag49
asS'objc_meta_class'
p1212
(lp1213
g429
asS'LockType'
p1214
(lp1215
S'thread'
p1216
asg200
(lp1217
g68
asg707
(lp1218
g44
ag45
asg710
(lp1219
g44
ag45
asg770
(lp1220
g44
ag45
asS'RequestCacheControl'
p1221
(lp1222
g6
asS'Spinner'
p1223
(lp1224
g1124
asS'Import'
p1225
(lp1226
g48
ag49
asS'Node'
p1227
(lp1228
g59
asg695
(lp1229
g44
ag45
asS'Enum'
p1230
(lp1231
S'enum'
p1232
asg851
(lp1233
g15
asg1205
(lp1234
g173
asS'pp_doublecomplex'
p1235
(lp1236
g33
asS'cached_property'
p1237
(lp1238
g6
asg801
(lp1239
g436
asg1058
(lp1240
g361
asS'device_exec_capabilities'
p1241
(lp1242
g21
asS'Expression'
p1243
(lp1244
g48
ag49
asS'OrderedUpdates'
p1245
(lp1246
g24
asS'rc_context'
p1247
(lp1248
g318
asS'Out'
p1249
(lp1250
g24
asg209
(lp1251
g68
asS'SGMLParser'
p1252
(lp1253
g12
asS'permutations'
p1254
(lp1255
g680
asS'RosStack'
p1256
(lp1257
g551
asg657
(lp1258
g181
asS'MappingStartEvent'
p1259
(lp1260
g59
asS'ppp_longdouble'
p1261
(lp1262
g33
asS'interpy.codec.utils'
p1263
(lp1264
g56
asS'product'
p1265
(lp1266
g680
asS'DispatcherMiddleware'
p1267
(lp1268
g6
asg759
(lp1269
g44
ag45
asg169
(lp1270
g165
asg1007
(lp1271
g1005
asS'MIMEAccept'
p1272
(lp1273
g6
asS'repeat'
p1274
(lp1275
g680
asS'ComponentList'
p1276
(lp1277
g24
asS'MagicMock'
p1278
(lp1279
g103
asg888
(lp1280
g145
asg841
(lp1281
g15
asg729
(lp1282
g44
ag45
asS'ppp_void'
p1283
(lp1284
g33
asg519
(lp1285
S'Logger'
p1286
ag517
aS'Memory'
p1287
aS'Parallel'
p1288
aS'PrintTime'
p1289
asS'GeneratorExp'
p1290
(lp1291
g48
ag49
asg75
(lp1292
g72
asg651
(lp1293
g181
asS'ImmutableOrderedMultiDict'
p1294
(lp1295
g6
asg491
(lp1296
g71
asS'Param'
p1297
(lp1298
g24
ag48
ag49
asS'White'
p1299
(lp1300
g41
asS'UnknownType'
p1301
(lp1302
g52
asS'UserAgentMixin'
p1303
(lp1304
g6
asS'Module_six_moves_urllib_request'
p1305
(lp1306
g1004
asg59
(lp1307
g57
ag1103
aS'AnchorToken'
p1308
aS'BaseDumper'
p1309
ag363
aS'BlockEndToken'
p1310
aS'BlockEntryToken'
p1311
aS'BlockMappingStartToken'
p1312
aS'BlockSequenceStartToken'
p1313
aS'CBaseDumper'
p1314
ag626
aS'CDumper'
p1315
ag1185
ag445
ag515
aS'CollectionEndEvent'
p1316
ag624
aS'CollectionStartEvent'
p1317
aS'DirectiveToken'
p1318
aS'DocumentEndEvent'
p1319
aS'DocumentEndToken'
p1320
aS'DocumentStartEvent'
p1321
aS'DocumentStartToken'
p1322
aS'Dumper'
p1323
ag919
ag774
aS'FlowMappingEndToken'
p1324
aS'FlowMappingStartToken'
p1325
aS'FlowSequenceEndToken'
p1326
ag1137
aS'KeyToken'
p1327
aS'Loader'
p1328
aS'MappingEndEvent'
p1329
aS'MappingNode'
p1330
ag1259
aS'Mark'
p1331
aS'MarkedYAMLError'
p1332
ag1227
ag618
aS'SafeDumper'
p1333
aS'SafeLoader'
p1334
aS'ScalarEvent'
p1335
aS'ScalarNode'
p1336
aS'ScalarToken'
p1337
aS'SequenceEndEvent'
p1338
aS'SequenceNode'
p1339
aS'SequenceStartEvent'
p1340
aS'StreamEndEvent'
p1341
ag525
ag513
aS'StreamStartToken'
p1342
ag92
aS'Token'
p1343
ag600
ag1110
aS'YAMLObject'
p1344
aS'YAMLObjectMetaclass'
p1345
asS'BzrClient'
p1346
(lp1347
g478
asS'main'
p1348
(lp1349
S'nose'
p1350
ag64
ag65
asS'BaseTestSuite'
p1351
(lp1352
g64
ag65
asS'ICantBelieveItsBeautifulSoup'
p1353
(lp1354
g12
asg723
(lp1355
g44
ag45
asg235
(lp1356
g68
asg744
(lp1357
g44
ag45
asS'FunctionDef'
p1358
(lp1359
g48
ag49
asg898
(lp1360
g145
asS'pp_bint'
p1361
(lp1362
g33
asg582
(lp1363
g568
asS'ParserElement'
p1364
(lp1365
g41
asS'ProfileMode'
p1366
(lp1367
g24
asg919
(lp1368
g59
ag96
ag21
asg734
(lp1369
g44
ag45
asS'PerformLinker'
p1370
(lp1371
g24
asS'Generic'
p1372
(lp1373
g24
asS'SourceFile'
p1374
(lp1375
g459
asS'RecursiveGrammarException'
p1376
(lp1377
g41
asS'Subscript'
p1378
(lp1379
g48
ag49
asS'cvmat'
p1380
(lp1381
g909
asS'InvalidManifest'
p1382
(lp1383
g551
asS'Suppress'
p1384
(lp1385
g41
asg202
(lp1386
g68
asg762
(lp1387
g44
ag45
asS'HostNotFound'
p1388
(lp1389
g150
asS'Traceback'
p1390
(lp1391
S'inspect'
p1392
asg956
(lp1393
g96
asS'Record'
p1394
(lp1395
g398
asg1053
(lp1396
g361
asS'p_float'
p1397
(lp1398
g33
asg694
(lp1399
g44
ag45
asS'TokenConverter'
p1400
(lp1401
g41
asg237
(lp1402
g68
asS'Linker'
p1403
(lp1404
g24
asg847
(lp1405
g15
asg49
(lp1406
S'Add'
p1407
aS'And'
p1408
aS'Assert'
p1409
aS'Assign'
p1410
aS'Attribute'
p1411
aS'AugAssign'
p1412
aS'AugLoad'
p1413
aS'AugStore'
p1414
aS'BinOp'
p1415
aS'BitAnd'
p1416
aS'BitOr'
p1417
ag541
aS'BoolOp'
p1418
aS'Break'
p1419
aS'Call'
p1420
aS'ClassDef'
p1421
aS'Compare'
p1422
aS'Continue'
p1423
aS'Del'
p1424
aS'Delete'
p1425
ag610
aS'DictComp'
p1426
aS'Div'
p1427
ag153
aS'Eq'
p1428
aS'ExceptHandler'
p1429
aS'Exec'
p1430
ag879
ag1243
aS'ExtSlice'
p1431
aS'FloorDiv'
p1432
aS'For'
p1433
ag1358
ag1290
ag1163
ag60
aS'GtE'
p1434
aS'If'
p1435
ag1125
ag1225
aS'ImportFrom'
p1436
aS'In'
p1437
ag882
ag1086
ag620
aS'Is'
p1438
aS'IsNot'
p1439
aS'LShift'
p1440
aS'Lambda'
p1441
aS'List'
p1442
aS'ListComp'
p1443
aS'Load'
p1444
ag255
ag1210
aS'Mod'
p1445
ag1136
aS'Mult'
p1446
aS'Name'
p1447
aS'NodeTransformer'
p1448
ag275
aS'Not'
p1449
aS'NotEq'
p1450
ag855
aS'Num'
p1451
aS'Or'
p1452
ag1297
aS'Pass'
p1453
aS'Pow'
p1454
aS'Print'
p1455
aS'RShift'
p1456
aS'Raise'
p1457
aS'Repr'
p1458
aS'Return'
p1459
ag499
aS'SetComp'
p1460
aS'Slice'
p1461
ag905
aS'Store'
p1462
ag177
aS'Sub'
p1463
ag1378
aS'Suite'
p1464
ag669
aS'TryFinally'
p1465
aS'Tuple'
p1466
aS'UAdd'
p1467
aS'USub'
p1468
aS'UnaryOp'
p1469
aS'While'
p1470
aS'With'
p1471
ag1153
ag323
aS'arguments'
p1472
ag46
ag786
ag665
aS'excepthandler'
p1473
ag504
aS'expr_context'
p1474
ag502
aS'mod'
p1475
ag331
aS'slice'
p1476
ag1194
aS'unaryop'
p1477
asg683
(lp1478
g44
ag45
asS'RProp'
p1479
(lp1480
S'downhill'
p1481
asS'ppp_Py_ssize_t'
p1482
(lp1483
g33
asS'CommonRequestDescriptorsMixin'
p1484
(lp1485
g6
asS'device_local_mem_type'
p1486
(lp1487
g21
asg1317
(lp1488
g59
asS'InvalidRequest'
p1489
(lp1490
g38
asS'Combine'
p1491
(lp1492
g41
asS'command_execution_status'
p1493
(lp1494
g21
asg281
(lp1495
g9
asg1419
(lp1496
g48
ag49
asS'AuthorizationMixin'
p1497
(lp1498
g6
asg1469
(lp1499
g48
ag49
asg690
(lp1500
g44
ag45
asg1335
(lp1501
g59
asS'internal_error'
p1502
(lp1503
g429
asg654
(lp1504
g181
ag556
ag6
asS'BeautifulStoneSoup'
p1505
(lp1506
g12
asS'pyobjc_unicode'
p1507
(lp1508
g429
asS'ApplicationError'
p1509
(lp1510
g524
asg691
(lp1511
g44
ag45
asg692
(lp1512
g44
ag45
asg802
(lp1513
g436
asS'Client'
p1514
(lp1515
g6
asg482
(lp1516
g71
asS'GraphMLReader'
p1517
(lp1518
g246
asS'p_Py_UCS4'
p1519
(lp1520
g33
asS'posix'
p1521
(lp1522
S'stat_result'
p1523
aS'statvfs_result'
p1524
asS'BoundArguments'
p1525
(lp1526
S'funcsigs'
p1527
asg1316
(lp1528
g59
asg949
(lp1529
g96
asg979
(lp1530
g501
ag24
asS'RemoteError'
p1531
(lp1532
g150
asg1420
(lp1533
g48
ag49
asg1081
(lp1534
g268
asg312
(lp1535
g9
asS'platform_info'
p1536
(lp1537
g21
asS'formal_protocol'
p1538
(lp1539
g429
asS'NonCallableMagicMock'
p1540
(lp1541
g103
asg985
(lp1542
g501
ag1155
asg1467
(lp1543
g48
ag49
asg65
(lp1544
g1351
aS'FunctionTestCase'
p1545
aS'SkipTest'
p1546
ag269
aS'TestLoader'
p1547
aS'TestProgram'
p1548
ag62
ag520
aS'TextTestResult'
p1549
aS'TextTestRunner'
p1550
ag1348
asg827
(lp1551
g15
asg1447
(lp1552
g48
ag49
asS'compress'
p1553
(lp1554
g680
asS'LanguageAccept'
p1555
(lp1556
g6
asS'mem_migration_flags'
p1557
(lp1558
g21
asg953
(lp1559
g96
asS'colorama'
p1560
(lp1561
S'AnsiToWin32'
p1562
asS'migrate_mem_object_flags_ext'
p1563
(lp1564
g21
asg951
(lp1565
g96
asg952
(lp1566
g96
asg198
(lp1567
g68
asS'fileview'
p1568
(lp1569
S'virtualenv'
p1570
asg1136
(lp1571
g24
ag48
ag49
ag556
asS'DistributionFile'
p1572
(lp1573
g459
asg969
(lp1574
g96
asg1049
(lp1575
g361
asg98
(lp1576
g568
ag87
ag145
asg1345
(lp1577
g59
asg1439
(lp1578
g48
ag49
asg893
(lp1579
g145
asg1052
(lp1580
g361
asS'VertexBuffer'
p1581
(lp1582
g195
asg1431
(lp1583
g48
ag49
asS'VCSClient'
p1584
(lp1585
g478
asg800
(lp1586
g436
asS'gensim'
p1587
(lp1588
g650
asg958
(lp1589
g96
asg1411
(lp1590
g1392
ag48
ag49
asS'ConfigParserInterpolation'
p1591
(lp1592
g52
asS'NotLocked'
p1593
(lp1594
g539
asg838
(lp1595
g15
asS'NetworkXNotImplemented'
p1596
(lp1597
g246
asg1169
(lp1598
g1036
ag1167
asg309
(lp1599
g9
asS'NetworkXUnbounded'
p1600
(lp1601
g246
asS'CompilerWarning'
p1602
(lp1603
g21
asg613
(lp1604
g606
asg584
(lp1605
g568
asg304
(lp1606
g9
asg1523
(lp1607
S'os'
p1608
ag1521
asg494
(lp1609
g71
asg378
(lp1610
g162
asg1421
(lp1611
g48
ag49
asS'SvnClient'
p1612
(lp1613
g478
asg835
(lp1614
g15
asS'Each'
p1615
(lp1616
g41
asS'DocBuildFile'
p1617
(lp1618
g459
asg293
(lp1619
g9
asg240
(lp1620
g68
asS'groupby'
p1621
(lp1622
g680
asS'starmap'
p1623
(lp1624
g680
asg392
(lp1625
g390
asg64
(lp1626
g1351
ag1545
ag1546
ag269
ag1547
ag1548
ag62
ag520
ag1549
ag1550
ag1348
asg886
(lp1627
g145
asg227
(lp1628
g68
asS'CallableMixin'
p1629
(lp1630
g103
asS'varlist'
p1631
(lp1632
g429
asS'ppp_long'
p1633
(lp1634
g33
asg1332
(lp1635
g59
asS'RecordWithoutPickling'
p1636
(lp1637
g398
asS'ParseResults'
p1638
(lp1639
g41
asg918
(lp1640
g96
asg845
(lp1641
g15
asS'Action'
p1642
(lp1643
g106
asg167
(lp1644
g165
asg840
(lp1645
g15
asg1461
(lp1646
g48
ag49
asg298
(lp1647
g9
asg984
(lp1648
g501
asS'LocalProxy'
p1649
(lp1650
g6
asg229
(lp1651
g68
asg610
(lp1652
g48
ag49
ag361
ag606
ag41
asg895
(lp1653
g145
asg1182
(lp1654
g421
asg1458
(lp1655
g48
ag49
asg854
(lp1656
g15
asg736
(lp1657
g44
ag45
asg575
(lp1658
g568
asg1550
(lp1659
g64
ag65
asg1456
(lp1660
g48
ag49
asg879
(lp1661
g48
ag49
ag145
asg484
(lp1662
g71
asg478
(lp1663
g1346
aS'GitClient'
p1664
aS'HgClient'
p1665
ag1612
ag476
ag1584
ag1061
asg955
(lp1666
g96
asg485
(lp1667
g71
asg1438
(lp1668
g48
ag49
asS'PublicKey'
p1669
(lp1670
S'rsa'
p1671
asg1437
(lp1672
g24
ag48
ag49
asS'LineStart'
p1673
(lp1674
g41
asg330
(lp1675
g170
aS'count'
p1676
aS'imap'
p1677
ag1118
ag328
ag588
asg990
(lp1678
g501
ag1232
ag1527
ag534
asS'context_info'
p1679
(lp1680
g21
asg768
(lp1681
g44
asg940
(lp1682
g96
asS'RobustInsanelyWackAssHTMLParser'
p1683
(lp1684
g12
asS'astor'
p1685
(lp1686
S'CodeToAst'
p1687
aS'ExplicitNodeVisitor'
p1688
aS'TreeWalk'
p1689
asS'addressing_mode'
p1690
(lp1691
g21
asg758
(lp1692
g44
ag45
asS'Annotation'
p1693
(lp1694
g451
asg980
(lp1695
g501
asg831
(lp1696
g15
asS'nosuchclass_error'
p1697
(lp1698
g429
asS'CommandError'
p1699
(lp1700
g84
asg300
(lp1701
g9
asS'InterpolationEngine'
p1702
(lp1703
g52
asS'binary_type'
p1704
(lp1705
g1004
asS'fortune'
p1706
(lp1707
S'CommandLineParser'
p1708
asS'RawDescriptionHelpFormatter'
p1709
(lp1710
g106
asS'CythonMetaType'
p1711
(lp1712
g33
asS'FakeList'
p1713
(lp1714
g398
asg1350
(lp1715
S'DeprecatedTest'
p1716
ag1546
ag1348
aS'run_exit'
p1717
asg1331
(lp1718
g59
asS'ParseSyntaxException'
p1719
(lp1720
g41
asg724
(lp1721
g44
ag45
asg1476
(lp1722
g48
ag49
asg1146
(lp1723
g558
asS'ImmutableList'
p1724
(lp1725
g6
asg962
(lp1726
g96
asg971
(lp1727
g96
asS'UiLoader'
p1728
(lp1729
g30
asg295
(lp1730
g9
asg373
(lp1731
g162
asg894
(lp1732
g145
asS'altgraph'
p1733
(lp1734
S'GraphError'
p1735
asS'LockError'
p1736
(lp1737
g539
ag429
asS'ModuleInfo'
p1738
(lp1739
g1392
asS'Signature'
p1740
(lp1741
g1527
asg127
(lp1742
g117
asS'ImmutableMultiDict'
p1743
(lp1744
g6
asg934
(lp1745
g96
asg489
(lp1746
g71
asg933
(lp1747
g96
asS'BotoCoreObject'
p1748
(lp1749
S'botocore'
p1750
asS'dict_property'
p1751
(lp1752
g429
asg935
(lp1753
g96
asg897
(lp1754
g145
asS'ZMQVersionError'
p1755
(lp1756
g456
asg490
(lp1757
g15
ag456
ag71
asg1608
(lp1758
S'error'
p1759
ag1523
ag1524
asg393
(lp1760
g24
ag390
asg987
(lp1761
g501
asg1407
(lp1762
g48
ag49
asg331
(lp1763
S'attrgetter'
p1764
ag328
aS'methodcaller'
p1765
ag48
ag49
asS'Empty'
p1766
(lp1767
g41
asg1312
(lp1768
g59
asS'gl_context_info'
p1769
(lp1770
g21
asg967
(lp1771
g96
asg703
(lp1772
g44
ag45
asg1050
(lp1773
g361
asg757
(lp1774
g44
ag45
asS'CircuitExtensionFailed'
p1775
(lp1776
g38
asS'TimeoutError'
p1777
(lp1778
g150
asS'pp_complex'
p1779
(lp1780
g33
asg614
(lp1781
g539
ag790
ag606
ag21
asg1410
(lp1782
g48
ag49
asS'p_longdoublecomplex'
p1783
(lp1784
g33
asg922
(lp1785
g96
ag21
asS'program_binary_type'
p1786
(lp1787
g21
asg1079
(lp1788
g268
asg55
(lp1789
g53
ag52
asg1474
(lp1790
g48
ag49
asg120
(lp1791
g117
asS'ppp_short'
p1792
(lp1793
g33
asg1413
(lp1794
g48
ag49
asS'ProtocolError'
p1795
(lp1796
g429
ag38
asS'MissingInterpolationOption'
p1797
(lp1798
g52
asS'takewhile'
p1799
(lp1800
g680
asS'ppp_longlong'
p1801
(lp1802
g33
asg1344
(lp1803
g59
asg1473
(lp1804
g48
ag49
asg755
(lp1805
g44
ag45
asg574
(lp1806
g568
asg1208
(lp1807
g173
asg923
(lp1808
g96
asg756
(lp1809
g44
ag45
asS'MultiDiGraph'
p1810
(lp1811
g246
asg992
(lp1812
g501
asg850
(lp1813
g15
asS'RobustXMLParser'
p1814
(lp1815
g12
asg832
(lp1816
g15
asS'ArgInfo'
p1817
(lp1818
g1392
asS'ItimerError'
p1819
(lp1820
S'signal'
p1821
asg779
(lp1822
g159
asg374
(lp1823
g44
ag45
ag162
asg1432
(lp1824
g48
ag49
asg288
(lp1825
g9
asS'ppp_bint'
p1826
(lp1827
g33
asg456
(lp1828
g1015
ag915
aS'ContextTerminated'
p1829
aS'Frame'
p1830
ag490
aS'MessageTracker'
p1831
aS'NotDone'
p1832
ag1011
aS'Socket'
p1833
aS'Stopwatch'
p1834
ag454
ag1084
aS'ZMQError'
p1835
ag1755
asg1288
(lp1836
g519
asS'DataFormatError'
p1837
(lp1838
g150
asg611
(lp1839
g606
asg492
(lp1840
g71
asg769
(lp1841
g44
ag45
asS'Headers'
p1842
(lp1843
g6
asg1416
(lp1844
g48
ag49
asg1056
(lp1845
g361
asg772
(lp1846
g44
ag45
asg645
(lp1847
g639
asS'EnumMeta'
p1848
(lp1849
g1232
asS'ppp_double'
p1850
(lp1851
g33
asg1311
(lp1852
g59
asg843
(lp1853
g15
asg1077
(lp1854
g268
asg364
(lp1855
g162
asg887
(lp1856
g145
asS'ParseFatalException'
p1857
(lp1858
g41
asS'object_property'
p1859
(lp1860
g429
asg1313
(lp1861
g59
asg18
(lp1862
g474
ag16
ag1189
asg450
(lp1863
g447
aS'NotFoundError'
p1864
aS'Script'
p1865
asS'device_mem_cache_type'
p1866
(lp1867
g21
asg741
(lp1868
g44
ag45
asg705
(lp1869
g44
ag45
asS'OnlyOnce'
p1870
(lp1871
g41
asg993
(lp1872
g501
asS'pp_char'
p1873
(lp1874
g33
asg1144
(lp1875
g558
asS'LockFailed'
p1876
(lp1877
g539
asg642
(lp1878
g639
asS'program_kind'
p1879
(lp1880
g21
asg641
(lp1881
g639
asg56
(lp1882
g56
ag56
ag1263
ag1004
aS'interpy.codec.register'
p1883
ag53
aS'pygments'
p1884
ag808
asg1735
(lp1885
g1733
asg766
(lp1886
g44
ag45
asS'NetworkXNoPath'
p1887
(lp1888
g246
asS'ReadlineInput'
p1889
(lp1890
g451
asg765
(lp1891
g44
ag45
asS'wkref'
p1892
(lp1893
g41
asS'ppp_int'
p1894
(lp1895
g33
asg365
(lp1896
g162
asg1689
(lp1897
g1685
asg125
(lp1898
g117
asg994
(lp1899
g501
asg760
(lp1900
g44
ag45
asg1548
(lp1901
g64
ag65
asg764
(lp1902
g44
ag45
asg699
(lp1903
g44
ag45
asS'OperationFailed'
p1904
(lp1905
g38
asg763
(lp1906
g44
ag45
asS'kernel_arg_info'
p1907
(lp1908
g21
asg551
(lp1909
g1382
aS'Manifest'
p1910
ag811
ag549
ag1256
asS'SourceBuildFile'
p1911
(lp1912
g459
asg1547
(lp1913
g64
ag65
asg842
(lp1914
g15
asg875
(lp1915
g145
asg121
(lp1916
g117
asS'Norm'
p1917
(lp1918
g398
asg1833
(lp1919
g456
asg1330
(lp1920
g59
asg1080
(lp1921
g268
asS'HTMLBuilder'
p1922
(lp1923
g6
asS'mem_object_type'
p1924
(lp1925
g21
asg241
(lp1926
g68
asg308
(lp1927
g9
asS'NannyEvent'
p1928
(lp1929
g21
asg1442
(lp1930
g48
ag49
asg735
(lp1931
g44
ag790
asg1423
(lp1932
g48
ag49
asg1459
(lp1933
g48
ag49
asg106
(lp1934
g1642
aS'ArgumentDefaultsHelpFormatter'
p1935
aS'ArgumentError'
p1936
aS'ArgumentParser'
p1937
aS'ArgumentTypeError'
p1938
ag136
ag1097
aS'Namespace'
p1939
ag1709
ag104
asg751
(lp1940
g44
ag45
asg883
(lp1941
g145
asS'ifilterfalse'
p1942
(lp1943
g680
asS'ZeroOrMore'
p1944
(lp1945
g41
asS'typedef'
p1946
(lp1947
g33
asS'BaseResponse'
p1948
(lp1949
g6
asS'FileStorage'
p1950
(lp1951
g6
asS'selenium'
p1952
(lp1953
g1952
ag1952
asg481
(lp1954
g71
asS'BlockFinder'
p1955
(lp1956
g1392
asg1446
(lp1957
g48
ag49
asg1472
(lp1958
g48
ag49
asS'DataError'
p1959
(lp1960
g524
asg226
(lp1961
g68
asg1412
(lp1962
g48
ag49
asg1883
(lp1963
g56
asg45
(lp1964
g682
ag683
ag684
ag685
ag374
ag686
ag687
ag688
ag690
ag691
ag692
ag693
ag694
ag695
ag696
ag697
ag698
ag699
ag700
ag701
ag703
ag704
ag705
ag146
ag706
ag707
ag708
ag709
ag710
ag711
ag712
ag713
ag676
ag715
ag716
ag717
ag718
ag719
ag720
ag721
ag722
ag723
ag724
ag496
ag726
ag727
ag728
ag729
ag730
ag731
ag732
ag733
ag734
ag736
ag737
ag738
ag739
ag740
ag741
ag742
ag743
ag744
ag745
ag746
ag747
ag748
ag422
ag749
ag750
ag751
ag452
ag752
ag753
ag277
ag755
ag756
ag351
ag757
ag758
ag759
ag760
ag761
ag762
ag763
ag764
ag765
ag766
ag767
ag769
ag129
ag770
ag771
ag344
ag42
ag772
asg938
(lp1965
g96
asg486
(lp1966
g71
asS'GoToColumn'
p1967
(lp1968
g41
asS'RMSProp'
p1969
(lp1970
g1481
asg1339
(lp1971
g59
asS'ReleaseCache'
p1972
(lp1973
g459
asS'pp_float'
p1974
(lp1975
g33
asg1337
(lp1976
g59
asg379
(lp1977
g162
asg1939
(lp1978
g106
asg924
(lp1979
g96
ag21
asS'device_type'
p1980
(lp1981
g21
asS'p_void'
p1982
(lp1983
g33
asS'NameFinder'
p1984
(lp1985
g449
asg1688
(lp1986
g1685
asS'pyquery'
p1987
(lp1988
S'PyQuery'
p1989
asg48
(lp1990
g1407
ag1408
ag1409
ag1410
ag1411
ag1412
ag1413
ag1414
ag1415
ag1416
ag1417
ag541
ag1418
ag1419
ag1420
ag1421
ag1422
ag1423
ag1424
ag1425
ag610
ag1426
ag1427
ag153
ag1428
ag1429
ag1430
ag879
ag1243
ag1431
ag1432
ag1433
ag1358
ag1290
ag1163
ag60
ag1434
ag1435
ag1125
ag1225
ag1436
ag1437
ag882
ag1086
ag620
ag1438
ag1439
ag1440
ag1441
ag1442
ag1443
ag1444
ag255
ag1210
ag1445
ag1136
ag1446
ag1447
ag1448
ag275
ag1449
ag1450
ag855
ag1451
ag1452
ag1297
ag1453
ag1454
ag1455
ag1456
ag1457
ag1458
ag1459
ag499
ag1460
ag1461
ag1462
ag177
ag1463
ag1378
ag1464
ag669
ag1465
ag1466
ag1467
ag1468
ag1469
ag1470
ag1471
ag1153
ag323
ag1472
ag46
ag786
ag665
ag1473
ag504
ag1474
ag502
ag1475
ag331
ag1476
ag1194
ag1477
asS'Builder'
p1991
(lp1992
g52
asS'basestring'
p1993
(lp1994
g350
asg927
(lp1995
g96
asg1938
(lp1996
g106
asg1425
(lp1997
g48
ag49
asg195
(lp1998
S'Figure'
p1999
ag920
ag193
ag1581
aS'Window'
p2000
asg1216
(lp2001
g1214
asg116
(lp2002
g114
aS'PyAudio'
p2003
aS'Stream'
p2004
aS'paMacCoreStreamInfo'
p2005
asg1453
(lp2006
g48
ag49
asg1428
(lp2007
g48
ag49
asg1448
(lp2008
g48
ag49
asg746
(lp2009
g44
ag45
asg124
(lp2010
g117
asS'LockTimeout'
p2011
(lp2012
g539
asg777
(lp2013
g159
asg833
(lp2014
g15
asS'ConfigspecError'
p2015
(lp2016
g52
asg297
(lp2017
g9
asS'CombinedMultiDict'
p2018
(lp2019
g6
asS'selector'
p2020
(lp2021
g429
asg480
(lp2022
g71
asg709
(lp2023
g44
ag45
asg1451
(lp2024
g48
ag49
asg754
(lp2025
g44
asS'WindowsPath'
p2026
(lp2027
g350
asS'GraphMLWriter'
p2028
(lp2029
g246
asS'CythonDotParallel'
p2030
(lp2031
g33
asg2000
(lp2032
g195
asS'CommonResponseDescriptorsMixin'
p2033
(lp2034
g6
asg1336
(lp2035
g59
asg203
(lp2036
g68
asS'MovedModule'
p2037
(lp2038
g1004
asS'FancyModule'
p2039
(lp2040
g24
asg1329
(lp2041
g59
asS'ppp_char'
p2042
(lp2043
g33
asg929
(lp2044
g96
asS'WWWAuthenticateMixin'
p2045
(lp2046
g6
asg928
(lp2047
g96
asg449
(lp2048
g447
ag1984
asg1471
(lp2049
g48
ag49
asg615
(lp2050
g606
asS'MagicProxy'
p2051
(lp2052
g103
asg334
(lp2053
g332
aS'catch_warnings'
p2054
asg243
(lp2055
g68
asS'p_bint'
p2056
(lp2057
g33
asg451
(lp2058
g1693
ag1937
ag447
ag552
ag1889
ag1027
ag395
asg1078
(lp2059
g268
asg650
(lp2060
g181
ag1750
ag1587
asS'IterableUserDict'
p2061
(lp2062
g533
asS'autorelease_pool'
p2063
(lp2064
g429
asg1315
(lp2065
g59
asg24
(lp2066
S'Apply'
p2067
aS'CLinker'
p2068
ag522
aS'ComponentDict'
p2069
ag1276
aS'Composite'
p2070
ag1120
ag979
aS'DualLinker'
p2071
ag1025
ag2039
aS'FunctionGraph'
p2072
ag393
ag1372
ag1437
aS'InconsistencyError'
p2073
ag1403
ag671
aS'Member'
p2074
aS'Method'
p2075
aS'Mode'
p2076
ag1136
aS'Op'
p2077
ag866
aS'OpWiseCLinker'
p2078
ag22
ag1245
ag1249
ag1297
ag1370
ag1366
ag631
aS'SymbolicInput'
p2079
ag1046
ag413
aS'Variable'
p2080
aS'object2'
p2081
asg1435
(lp2082
g48
ag49
asg305
(lp2083
g9
asg839
(lp2084
g15
asg738
(lp2085
g44
ag45
asg872
(lp2086
g145
asg228
(lp2087
g68
asS'mem_flags'
p2088
(lp2089
g21
asg853
(lp2090
g15
asg246
(lp2091
g663
aS'Graph'
p2092
ag1517
ag2028
ag1810
ag1148
ag1187
ag633
aS'NetworkXException'
p2093
ag1887
ag1596
ag244
aS'NetworkXTreewidthBoundExceeded'
p2094
ag1600
ag1183
asg878
(lp2095
g145
asS'Forward'
p2096
(lp2097
g41
asg1464
(lp2098
g48
ag49
asg30
(lp2099
S'DisconnectContextManager'
p2100
ag28
ag1728
asS'Base'
p2101
(lp2102
g103
asg1059
(lp2103
g361
asg1418
(lp2104
g48
ag49
asg1470
(lp2105
g48
ag49
asS'combinations'
p2106
(lp2107
g680
asS'p_longdouble'
p2108
(lp2109
g33
asS'InvalidArguments'
p2110
(lp2111
g38
asg369
(lp2112
g162
asS'SerialBase'
p2113
(lp2114
g142
asg1433
(lp2115
g48
ag49
asg860
(lp2116
g857
asg968
(lp2117
g96
asg936
(lp2118
g96
asg1832
(lp2119
g456
asS'ImmutableTypeConversionDict'
p2120
(lp2121
g6
asS'AlreadyLocked'
p2122
(lp2123
g539
asg876
(lp2124
g145
asg207
(lp2125
g68
asg350
(lp2126
g357
ag417
aS'PurePath'
p2127
aS'PurePosixPath'
p2128
ag348
ag991
ag2026
ag1764
ag1993
asg1207
(lp2129
g173
asg1429
(lp2130
g48
ag49
asS'Href'
p2131
(lp2132
g6
asg1562
(lp2133
g1560
asg208
(lp2134
g68
asg973
(lp2135
g96
asg1172
(lp2136
g77
ag1172
ag1172
asg658
(lp2137
g181
asg233
(lp2138
g68
asg719
(lp2139
g44
ag45
asS'pp_longlong'
p2140
(lp2141
g33
asS'ParseException'
p2142
(lp2143
g41
asg810
(lp2144
g808
asg892
(lp2145
g145
asS'Authorization'
p2146
(lp2147
g6
asg12
(lp2148
g163
ag12
ag12
ag1505
aS'CData'
p2149
aS'Comment'
p2150
aS'Declaration'
p2151
ag1353
ag659
aS'NavigableString'
p2152
aS'PageElement'
p2153
aS'ProcessingInstruction'
p2154
aS'ResultSet'
p2155
aS'RobustHTMLParser'
p2156
ag1683
aS'RobustWackAssHTMLParser'
p2157
ag1814
aS'SGMLParseError'
p2158
ag1252
aS'SimplifyingSOAPParser'
p2159
aS'SoupStrainer'
p2160
aS'StopParsing'
p2161
ag1165
ag10
asS'informal_protocol'
p2162
(lp2163
g429
asg937
(lp2164
g96
asg1181
(lp2165
g421
asg966
(lp2166
g96
asg965
(lp2167
g96
asg1935
(lp2168
g106
asg964
(lp2169
g96
asS'AcceptMixin'
p2170
(lp2171
g6
asg1677
(lp2172
g680
ag330
asg1209
(lp2173
g173
asg139
(lp2174
g137
asg285
(lp2175
g9
ag103
asg1054
(lp2176
g361
ag41
asg1759
(lp2177
g1608
asg534
(lp2178
g531
ag990
asg296
(lp2179
g9
asS'ArrayType'
p2180
(lp2181
g33
asg1286
(lp2182
g519
ag1570
asS'ppp_complex'
p2183
(lp2184
g33
asS'AccessDenied'
p2185
(lp2186
g790
asg176
(lp2187
g1106
ag263
ag174
aS'WriteBatch'
p2188
asg2158
(lp2189
g12
asS'p_complex'
p2190
(lp2191
g33
asS'CPyUserInterface'
p2192
(lp2193
g398
asg1322
(lp2194
g59
asS'UnreprError'
p2195
(lp2196
g52
asg1829
(lp2197
g456
asg1999
(lp2198
g195
asS'PrivateKey'
p2199
(lp2200
g1671
asg1343
(lp2201
g59
ag41
asg1414
(lp2202
g48
ag49
asg587
(lp2203
g568
asg826
(lp2204
g15
asg588
(lp2205
g680
ag330
ag568
asg286
(lp2206
g9
asg1834
(lp2207
g456
asg697
(lp2208
g44
ag45
asg1475
(lp2209
g48
ag49
asg717
(lp2210
g44
ag45
asg289
(lp2211
g9
asg27
(lp2212
S'ZipImportError'
p2213
ag25
asg493
(lp2214
g71
asS'FileWrapper'
p2215
(lp2216
g6
asS'AptDistro'
p2217
(lp2218
g459
asg1427
(lp2219
g48
ag49
asg1452
(lp2220
g48
ag49
ag41
asg2077
(lp2221
g24
asg2074
(lp2222
g24
asS'ivar'
p2223
(lp2224
g429
asg426
(lp2225
g424
asg930
(lp2226
g96
asg1821
(lp2227
g1819
ag1036
asg926
(lp2228
g96
ag21
asS'DevelDistro'
p2229
(lp2230
g459
asg1057
(lp2231
g361
asg1864
(lp2232
g450
asS'mem_info'
p2233
(lp2234
g21
asg1426
(lp2235
g48
ag49
asg2072
(lp2236
g24
asg1417
(lp2237
g48
ag49
asg583
(lp2238
g568
asg1570
(lp2239
S'ConfigOptionParser'
p2240
ag1286
aS'UpdatingDefaultsHelpFormatter'
p2241
ag1568
asg1750
(lp2242
g1748
ag650
asS'ResponseCacheControl'
p2243
(lp2244
g6
asg2094
(lp2245
g246
asg6
(lp2246
S'Aborter'
p2247
aS'Accept'
p2248
ag2170
aS'ArgumentValidationError'
p2249
ag2146
ag1497
ag131
ag1948
aS'CallbackDict'
p2250
aS'CharsetAccept'
p2251
ag1514
aS'ClosingIterator'
p2252
ag2018
ag1484
ag2033
aS'DebuggedApplication'
p2253
ag1267
aS'ETagRequestMixin'
p2254
aS'ETagResponseMixin'
p2255
aS'ETags'
p2256
ag1039
aS'EnvironHeaders'
p2257
ag385
ag1950
ag2215
ag1922
aS'HeaderSet'
p2258
ag1842
ag2131
ag1064
ag1724
ag1743
ag1294
ag2120
ag1555
aS'LimitedStream'
p2259
aS'Local'
p2260
aS'LocalManager'
p2261
ag1649
ag430
ag1272
aS'MultiDict'
p2262
ag4
ag652
ag1221
ag654
ag2243
ag78
aS'SharedDataMiddleware'
p2263
aS'TypeConversionDict'
p2264
ag999
ag1303
ag437
ag2045
ag1237
aS'environ_property'
p2265
aS'header_property'
p2266
asS'SerialException'
p2267
(lp2268
g142
asg944
(lp2269
g96
asg533
(lp2270
g531
ag2061
ag533
ag533
asg2263
(lp2271
g6
asS'RSync'
p2272
(lp2273
g150
asS'Timer'
p2274
(lp2275
g1124
asg38
(lp2276
g1775
ag1030
ag2110
ag1489
ag1904
ag1795
ag321
ag36
ag80
asg796
(lp2277
g361
ag436
asg580
(lp2278
g568
asg2071
(lp2279
g24
asg539
(lp2280
g2122
ag614
ag537
aS'LockBase'
p2281
ag1736
ag1876
ag813
ag2011
ag1593
aS'NotMyLock'
p2282
aS'UnlockError'
p2283
asg1319
(lp2284
g59
asg2150
(lp2285
g12
asg2188
(lp2286
g176
asg2154
(lp2287
g12
asg1308
(lp2288
g59
asS'kernel_info'
p2289
(lp2290
g21
asS'range'
p2291
(lp2292
g41
ag398
asg581
(lp2293
g568
asS'Module_six_moves_urllib_parse'
p2294
(lp2295
g1004
asS'NotAny'
p2296
(lp2297
g41
asg732
(lp2298
g44
ag45
asg495
(lp2299
g71
asS'Literal'
p2300
(lp2301
g41
asg643
(lp2302
g639
asS'InvalidSize'
p2303
(lp2304
g1124
asg2251
(lp2305
g6
asg1481
(lp2306
S'Adam'
p2307
aS'Dataset'
p2308
aS'Optimizer'
p2309
ag1969
ag1479
asg837
(lp2310
g15
asg1466
(lp2311
g48
ag49
asg2070
(lp2312
g24
asg290
(lp2313
g9
asg696
(lp2314
g44
ag45
asg2265
(lp2315
g6
asg877
(lp2316
g145
asS'device_info'
p2317
(lp2318
g21
asg2080
(lp2319
g24
asg731
(lp2320
g44
ag45
asg487
(lp2321
g71
asg848
(lp2322
g15
asg2156
(lp2323
g12
asg880
(lp2324
g145
asS'InfixOperator'
p2325
(lp2326
g398
asg726
(lp2327
g44
ag45
asg730
(lp2328
g44
ag45
asg1444
(lp2329
g48
ag49
asS'channel_order'
p2330
(lp2331
g21
asg846
(lp2332
g15
asg1687
(lp2333
g1685
asg2073
(lp2334
g24
asg974
(lp2335
g96
asg52
(lp2336
g1991
aS'ConfigObj'
p2337
aS'ConfigObjError'
p2338
ag1591
ag2015
aS'DuplicateError'
p2339
ag1702
ag55
aS'InterpolationLoopError'
p2340
ag1797
ag506
ag50
aS'ReloadError'
p2341
ag251
aS'Section'
p2342
aS'SimpleVal'
p2343
aS'TemplateInterpolation'
p2344
ag1301
ag2195
asg33
(lp2345
g2180
ag2030
ag1711
ag325
aS'CythonTypeObject'
p2346
ag404
aS'StructType'
p2347
aS'UnionType'
p2348
ag1519
ag107
aS'p_Py_ssize_t'
p2349
ag2056
ag34
ag2190
aS'p_double'
p2350
ag319
ag1397
ag399
aS'p_int'
p2351
aS'p_long'
p2352
ag2108
ag1783
aS'p_longlong'
p2353
aS'p_short'
p2354
ag622
ag1982
aS'pp_Py_UCS4'
p2355
ag340
aS'pp_Py_ssize_t'
p2356
ag1361
ag1873
ag1779
aS'pp_double'
p2357
ag1235
ag1974
aS'pp_floatcomplex'
p2358
aS'pp_int'
p2359
ag1082
ag472
ag31
ag2140
aS'pp_short'
p2360
aS'pp_size_t'
p2361
ag546
ag1009
aS'ppp_Py_UNICODE'
p2362
ag1482
ag1826
ag2042
ag2183
ag1850
aS'ppp_doublecomplex'
p2363
ag109
ag1116
ag1894
ag1633
ag1261
aS'ppp_longdoublecomplex'
p2364
ag1801
ag1792
ag629
ag1283
ag1946
asS'TransformSpec'
p2365
(lp2366
g524
asg752
(lp2367
g44
ag45
asS'Arguments'
p2368
(lp2369
g1392
asg1287
(lp2370
g519
asg1549
(lp2371
g64
ag65
asg1325
(lp2372
g59
asg687
(lp2373
g44
ag268
ag45
asg1764
(lp2374
g331
ag1392
ag350
asg1460
(lp2375
g48
ag49
asg103
(lp2376
g2101
ag1629
ag285
aS'MagicMixin'
p2377
ag1278
ag2051
aS'Mock'
p2378
ag1540
ag1017
ag101
ag1074
asS'VerificationError'
p2379
(lp2380
g1671
asg2355
(lp2381
g33
asg2346
(lp2382
g33
asg1415
(lp2383
g48
ag49
asg1289
(lp2384
g519
asg1327
(lp2385
g59
asS'CodecRegistryError'
p2386
(lp2387
S'encodings'
p2388
asg2261
(lp2389
g6
asg991
(lp2390
g501
ag350
asg2248
(lp2391
g6
asS'channel_type'
p2392
(lp2393
g21
asg1334
(lp2394
g59
asS'set_property'
p2395
(lp2396
g429
asg337
(lp2397
g335
aS'functools32'
p2398
asg2247
(lp2399
g6
asS'XSpec'
p2400
(lp2401
g150
asg356
(lp2402
g354
asg1449
(lp2403
g48
ag49
asg2153
(lp2404
g12
asg2361
(lp2405
g33
asS'BytesIO'
p2406
(lp2407
g1004
asg2377
(lp2408
g103
asg2353
(lp2409
g33
asg1145
(lp2410
g558
asg1204
(lp2411
g173
asg1936
(lp2412
g106
asg882
(lp2413
g48
ag49
ag145
ag459
asg1333
(lp2414
g59
asg2157
(lp2415
g12
asg747
(lp2416
g44
ag45
asg2081
(lp2417
g24
asS'FSRef'
p2418
(lp2419
g429
asg1835
(lp2420
g456
asg649
(lp2421
g181
asg2003
(lp2422
g116
asg849
(lp2423
g15
asg959
(lp2424
g96
asg1392
(lp2425
g1817
aS'ArgSpec'
p2426
ag2368
ag1411
ag1955
aS'EndOfBlock'
p2427
ag1738
ag1390
ag1764
asg960
(lp2428
g96
asg961
(lp2429
g96
asS'Popen'
p2430
(lp2431
g790
asg318
(lp2432
g411
ag316
ag170
ag1247
asg2282
(lp2433
g539
asS'LogicError'
p2434
(lp2435
g21
asS'DocFile'
p2436
(lp2437
g459
asg921
(lp2438
g96
ag21
asS'ReleaseFile'
p2439
(lp2440
g459
asg684
(lp2441
g44
ag45
asg2004
(lp2442
g116
asS'command_queue_properties'
p2443
(lp2444
g21
asg881
(lp2445
g145
asg230
(lp2446
g68
asg2079
(lp2447
g24
asg748
(lp2448
g44
ag45
asg1326
(lp2449
g59
asg2152
(lp2450
g12
asg2281
(lp2451
g539
asg873
(lp2452
g145
asg2350
(lp2453
g33
asS'Module_six_moves_urllib_error'
p2454
(lp2455
g1004
asS'BadPrototypeError'
p2456
(lp2457
g429
asg2378
(lp2458
g103
asg1135
(lp2459
g556
asg745
(lp2460
g44
ag45
asS'zip'
p2461
(lp2462
g398
asg2338
(lp2463
g52
asS'ReleaseBuild'
p2464
(lp2465
g459
asg2151
(lp2466
g12
asg1665
(lp2467
g478
asg589
(lp2468
g1004
ag568
ag1155
asg371
(lp2469
g556
ag162
ag1155
asg215
(lp2470
g68
asS'SkipTo'
p2471
(lp2472
g41
asg2398
(lp2473
g337
asS'ParseExpression'
p2474
(lp2475
g41
asg123
(lp2476
g117
asg1441
(lp2477
g48
ag49
asg1830
(lp2478
g456
asg616
(lp2479
g606
asS'bool_property'
p2480
(lp2481
g429
asg712
(lp2482
g44
ag45
asg1546
(lp2483
g1350
ag64
ag65
asS'MatchFirst'
p2484
(lp2485
g41
asg1309
(lp2486
g59
asg223
(lp2487
g68
asg2283
(lp2488
g539
asg142
(lp2489
S'FileLike'
p2490
ag1191
ag598
ag140
ag2113
ag2267
ag815
asg945
(lp2491
g96
asg1004
(lp2492
g2406
ag983
aS'Module_six_moves_urllib'
p2493
ag2454
ag2294
ag1305
aS'Module_six_moves_urllib_response'
p2494
ag1002
ag1037
ag2037
ag56
ag1704
ag589
asS'DictionaryWithDefault'
p2495
(lp2496
g398
asg1409
(lp2497
g48
ag49
asg1340
(lp2498
g59
asg739
(lp2499
g44
ag45
asg799
(lp2500
g436
asg727
(lp2501
g44
ag45
asg21
(lp2502
S'Buffer'
p2503
ag914
ag1602
ag915
ag917
ag614
ag919
ag920
ag19
ag249
ag921
ag565
ag2434
ag218
ag346
ag922
aS'MemoryObjectHolder'
p2504
aS'MemoryPool'
p2505
ag1928
ag924
aS'PooledBuffer'
p2506
ag925
ag225
ag667
ag926
ag1690
aS'affinity_domain_ext'
p2507
ag2330
ag2392
ag1493
aS'command_queue_info'
p2508
ag2443
aS'command_type'
p2509
ag1679
aS'context_properties'
p2510
ag592
ag1241
ag791
ag2317
ag1486
ag1866
aS'device_partition_property'
p2511
aS'device_partition_property_ext'
p2512
ag1980
ag1070
ag247
ag1769
ag273
aS'kernel_arg_access_qualifier'
p2513
ag406
ag1907
ag2289
aS'kernel_work_group_info'
p2514
aS'map_flags'
p2515
ag2088
ag2233
ag1557
ag1924
ag1563
ag1536
ag544
ag1786
aS'program_build_info'
p2516
ag594
ag1879
aS'sampler_info'
p2517
aS'status_code'
p2518
asg652
(lp2519
g181
ag556
ag6
asg988
(lp2520
g501
asg2363
(lp2521
g33
asg2352
(lp2522
g33
asg376
(lp2523
g162
asg2308
(lp2524
g1481
asg852
(lp2525
g15
asg2250
(lp2526
g6
asg287
(lp2527
g9
asg2067
(lp2528
g24
asg1457
(lp2529
g48
ag49
asg957
(lp2530
g96
asg2100
(lp2531
g30
asg1124
(lp2532
g1122
ag2303
ag1223
ag2274
asg2503
(lp2533
g21
asg978
(lp2534
g501
asg2358
(lp2535
g33
asg2504
(lp2536
g21
asg1157
(lp2537
g1155
asg232
(lp2538
g68
asg2307
(lp2539
g1481
asg119
(lp2540
g117
asS'LineEnd'
p2541
(lp2542
g41
asg2348
(lp2543
g33
asS'WordStart'
p2544
(lp2545
g41
asS'SettingsSpec'
p2546
(lp2547
g524
asg983
(lp2548
g501
ag1004
asg2516
(lp2549
g21
asg1328
(lp2550
g59
asg790
(lp2551
g2185
ag614
aS'NoSuchProcess'
p2552
ag2430
ag788
aS'TimeoutExpired'
p2553
ag735
asg749
(lp2554
g44
ag45
asg2493
(lp2555
g1004
asg1320
(lp2556
g59
asg844
(lp2557
g15
asg982
(lp2558
g501
asg743
(lp2559
g44
ag45
asg1527
(lp2560
g1525
ag990
aS'Parameter'
p2561
ag1740
asg644
(lp2562
g639
asS'DecryptionError'
p2563
(lp2564
g1671
asg2161
(lp2565
g12
asg363
(lp2566
g59
ag162
asg2093
(lp2567
g246
asg2388
(lp2568
g2386
asg1455
(lp2569
g48
ag49
asg2561
(lp2570
g1527
asg716
(lp2571
g44
ag45
asg767
(lp2572
g44
ag45
asg740
(lp2573
g44
ag45
asg2069
(lp2574
g24
asg2357
(lp2575
g33
asg524
(lp2576
g1509
ag522
ag1959
ag2546
ag2365
asg1462
(lp2577
g48
ag49
asg2160
(lp2578
g12
asg2362
(lp2579
g33
asg291
(lp2580
g9
asg577
(lp2581
g568
asg2005
(lp2582
g116
asg1831
(lp2583
g456
asS'ProgressBar'
p2584
(lp2585
g398
asg1323
(lp2586
g59
asg2359
(lp2587
g33
asg375
(lp2588
g162
asg2340
(lp2589
g52
asg571
(lp2590
g568
asg925
(lp2591
g96
ag21
asg2260
(lp2592
g6
asg380
(lp2593
g162
asg970
(lp2594
g96
asg1434
(lp2595
g48
ag49
asg1708
(lp2596
g1706
asg1051
(lp2597
g361
asg2347
(lp2598
g33
asg206
(lp2599
g68
asg2213
(lp2600
g27
asg1671
(lp2601
g2563
ag2199
ag1669
ag2379
asg2427
(lp2602
g1392
asg1717
(lp2603
g1350
asg2253
(lp2604
g6
asg197
(lp2605
g68
asg2512
(lp2606
g21
asg2149
(lp2607
g12
asg122
(lp2608
g117
asg2506
(lp2609
g21
asg234
(lp2610
g68
asg1765
(lp2611
g331
asg2494
(lp2612
g1004
asg2426
(lp2613
g1392
asg579
(lp2614
g568
asg2127
(lp2615
g350
asg1910
(lp2616
g551
asg367
(lp2617
g162
asg2076
(lp2618
g24
asg896
(lp2619
g145
asg2309
(lp2620
g1481
asg224
(lp2621
g68
asg1454
(lp2622
g48
ag49
asg389
(lp2623
g387
asg2240
(lp2624
g84
ag1570
asg1443
(lp2625
g48
ag49
asS'object_lock'
p2626
(lp2627
g429
asg2505
(lp2628
g21
asg429
(lp2629
g2456
ag2418
ag1151
ag1736
ag1200
ag793
aS'ObjCPointer'
p2630
ag1795
ag1108
ag527
ag443
ag427
ag646
ag1091
ag2063
ag2480
ag1751
ag1538
aS'function'
p2631
ag2162
ag1502
ag2223
ag1697
aS'objc_class'
p2632
ag1212
aS'objc_object'
p2633
ag2626
ag1859
ag1507
ag439
ag2020
ag2395
ag1041
ag1631
asg41
(lp2634
g1408
ag1175
ag864
ag271
ag1491
ag610
ag1615
ag1766
ag441
ag2096
ag1967
ag148
ag39
ag2541
ag1673
ag2300
ag2484
ag1160
ag2296
ag1054
ag1870
ag359
ag1452
ag1130
ag342
ag2142
ag2474
ag1857
ag1638
ag1719
ag1364
ag1112
ag1376
ag661
ag2471
ag151
ag509
ag1384
ag1343
ag1400
aS'Upcase'
p2635
ag1299
ag432
ag529
ag2544
ag1944
ag2291
ag1892
asg2254
(lp2636
g6
asg612
(lp2637
g606
asg1206
(lp2638
g173
asg578
(lp2639
g568
asg1465
(lp2640
g48
ag49
asg2518
(lp2641
g21
asg1445
(lp2642
g48
ag49
asg2337
(lp2643
g52
asg704
(lp2644
g44
ag45
asg685
(lp2645
g44
ag45
asg2255
(lp2646
g6
asg384
(lp2647
g162
asg2635
(lp2648
g41
asg2632
(lp2649
g429
asS'MovedFunctionDeprecationWrapper'
p2650
(lp2651
g398
asg981
(lp2652
g501
asg1341
(lp2653
g59
asg314
(lp2654
g9
asg1865
(lp2655
g450
asg2128
(lp2656
g350
asS'IntEnum'
p2657
(lp2658
g1232
asg1147
(lp2659
g558
asg1440
(lp2660
g48
ag49
asg2630
(lp2661
g429
asg1143
(lp2662
g558
asg572
(lp2663
g568
asg302
(lp2664
g9
asg890
(lp2665
g145
asg1180
(lp2666
g421
asg2257
(lp2667
g6
asg884
(lp2668
g145
asg1321
(lp2669
g59
asg718
(lp2670
g44
ag45
asg1450
(lp2671
g48
ag49
asg771
(lp2672
g44
ag45
asg617
(lp2673
g606
asg680
(lp2674
g170
ag2106
aS'combinations_with_replacement'
p2675
ag1553
ag1676
ag869
ag678
ag1621
aS'ifilter'
p2676
ag1942
ag1677
ag1118
ag588
ag1132
ag1254
ag1265
ag1274
ag1623
ag1799
asg2266
(lp2677
g6
asg874
(lp2678
g145
asg1884
(lp2679
g56
asg2508
(lp2680
g21
asg909
(lp2681
g1380
ag907
asg2341
(lp2682
g52
asg972
(lp2683
g96
asg211
(lp2684
g68
asg1468
(lp2685
g48
ag49
asg2259
(lp2686
g6
asg2364
(lp2687
g33
asg753
(lp2688
g44
ag45
asg2252
(lp2689
g6
asg1342
(lp2690
g59
asg2351
(lp2691
g33
asg311
(lp2692
g9
asg1408
(lp2693
g48
ag49
ag41
asg2517
(lp2694
g21
asg2360
(lp2695
g33
asg963
(lp2696
g96
asg313
(lp2697
g9
asg2490
(lp2698
g142
asg2552
(lp2699
g790
asg737
(lp2700
g44
ag45
asg1524
(lp2701
g1608
ag1521
asg2241
(lp2702
g84
ag1570
asg722
(lp2703
g44
ag45
asg1338
(lp2704
g59
asg283
(lp2705
g9
asg1545
(lp2706
g64
ag65
asg168
(lp2707
g165
asg2354
(lp2708
g33
asg721
(lp2709
g44
ag45
asg885
(lp2710
g145
asg2510
(lp2711
g21
asg1664
(lp2712
g478
asg1989
(lp2713
g1987
asg780
(lp2714
g159
asg686
(lp2715
g44
ag45
asg2513
(lp2716
g21
asg889
(lp2717
g145
asg950
(lp2718
g96
asS'StderrToStdout'
p2719
(lp2720
g398
asg708
(lp2721
g44
ag45
asg1179
(lp2722
g421
asg706
(lp2723
g44
ag45
asg1430
(lp2724
g48
ag49
asg608
(lp2725
g606
asg398
(lp2726
g2192
aS'DependentDictionary'
p2727
ag2495
ag1713
ag2325
ag2650
ag1917
ag2584
ag1394
ag1636
ag396
ag2719
ag899
ag461
ag673
ag2291
ag2461
asg210
(lp2728
g68
asg728
(lp2729
g44
ag45
asg74
(lp2730
g72
asg1318
(lp2731
g59
asS'Release'
p2732
(lp2733
g459
asg2349
(lp2734
g33
asg2633
(lp2735
g429
asg242
(lp2736
g68
asg1463
(lp2737
g48
ag49
asg2342
(lp2738
g52
asg1937
(lp2739
g106
ag451
asg573
(lp2740
g568
asg1036
(lp2741
g1034
ag1169
ag656
ag1821
asg1716
(lp2742
g1350
asg715
(lp2743
g44
ag45
asg2515
(lp2744
g21
asg201
(lp2745
g68
asg1055
(lp2746
g361
asg2075
(lp2747
g24
asg204
(lp2748
g68
asg1232
(lp2749
g1230
ag1848
ag2657
ag990
asg954
(lp2750
g96
asg2356
(lp2751
g33
asg916
(lp2752
g96
asg2511
(lp2753
g21
asg1314
(lp2754
g59
asg2262
(lp2755
g6
asg2068
(lp2756
g24
asg488
(lp2757
g71
asg2092
(lp2758
g246
asg2344
(lp2759
g52
asg394
(lp2760
g390
asg217
(lp2761
g68
asg781
(lp2762
g159
asg2258
(lp2763
g6
asg1324
(lp2764
g59
asg2343
(lp2765
g52
asg2631
(lp2766
g429
asg2078
(lp2767
g24
asg1477
(lp2768
g48
ag49
asg2054
(lp2769
g334
asg570
(lp2770
g568
asg1424
(lp2771
g48
ag49
asg656
(lp2772
g181
ag1036
asg2159
(lp2773
g12
asg1676
(lp2774
g680
ag330
asg1422
(lp2775
g48
ag49
asg750
(lp2776
g44
ag45
asg834
(lp2777
g15
asg725
(lp2778
g44
asg2339
(lp2779
g52
asg2675
(lp2780
g680
asg2155
(lp2781
g12
asg84
(lp2782
g1699
ag2240
ag559
ag82
ag90
ag1023
ag2241
asg2509
(lp2783
g21
asg284
(lp2784
g9
asg2553
(lp2785
g790
asg2507
(lp2786
g21
asg1436
(lp2787
g48
ag49
asg1310
(lp2788
g59
asg310
(lp2789
g9
asg150
(lp2790
g1837
ag148
ag1388
ag783
ag2272
ag1531
ag1777
ag2400
asg2256
(lp2791
g6
asg2249
(lp2792
g6
asg915
(lp2793
g96
ag21
ag456
asg2514
(lp2794
g21
asg742
(lp2795
g44
ag45
asg2676
(lp2796
g680
asg2727
(lp2797
g398
asg701
(lp2798
g44
ag45
asg2264
(lp2799
g6
asg459
(lp2800
g2217
ag861
ag2229
ag797
ag457
ag1572
ag1617
ag2436
ag882
ag2732
ag2464
ag1032
ag1972
ag2439
ag803
ag1911
ag1374
asg932
(lp2801
g96
as.