ccollections
defaultdict
p1
(c__builtin__
list
p2
tRp3
S'OrderedMultiDict'
p4
(lp5
S'werkzeug'
p6
asS'TypeType'
p7
(lp8
S'types'
p9
aS'pickle'
p10
asS'UnicodeDammit'
p11
(lp12
S'BeautifulSoup'
p13
asS'SFTPServer'
p14
(lp15
S'paramiko'
p16
asS'LocaleTextCalendar'
p17
(lp18
S'calendar'
p19
asS'WeakSet'
p20
(lp21
S'abc'
p22
asS'Subplot'
p23
(lp24
S'pylab'
p25
asS'kqueue'
p26
(lp27
S'select'
p28
asS'ImageDescriptor'
p29
(lp30
S'pyopencl'
p31
asS'pprint'
p32
(lp33
S'PrettyPrinter'
p34
asS'OpenMPOp'
p35
(lp36
S'theano'
p37
asS'zipimporter'
p38
(lp39
S'zipimport'
p40
aS'pkgutil'
p41
asS'QSettingsWrapper'
p42
(lp43
S'qtutils'
p44
asS'pp_longdoublecomplex'
p45
(lp46
S'Cython'
p47
asS'BZ2Decompressor'
p48
(lp49
S'bz2'
p50
asS'p_char'
p51
(lp52
g47
asS'SocketError'
p53
(lp54
S'stem'
p55
asS'Keyword'
p56
(lp57
S'pyparsing'
p58
asS'void'
p59
(lp60
S'numpy'
p61
aS'scipy'
p62
ag25
asS'boolop'
p63
(lp64
S'ast'
p65
aS'codegen'
p66
asS'BabylMailbox'
p67
(lp68
S'mailbox'
p69
asS'ParseError'
p70
(lp71
S'configobj'
p72
asS'interpy.codec.tokenizer'
p73
(lp74
S'InterpolationError'
p75
aS'StringIO'
p76
asS'AliasEvent'
p77
(lp78
S'yaml'
p79
asS'DebugRunner'
p80
(lp81
S'doctest'
p82
asS'Gt'
p83
(lp84
g65
ag66
asS'TestResult'
p85
(lp86
S'unittest'
p87
aS'unittest2'
p88
asS'RuntimeWarning'
p89
(lp90
S'exceptions'
p91
aS'power_parser'
p92
aS'english_parser'
p93
aS'english_tokens'
p94
asS'Presence'
p95
(lp96
S'sleekxmpp'
p97
asS'forbiddenfruit'
p98
(lp99
S'PyObject'
p100
aS'Py_ssize_t'
p101
aS'SlotsProxy'
p102
aS'defaultdict'
p103
asS'cmd'
p104
(lp105
S'Cmd'
p106
asS'ResponseStreamMixin'
p107
(lp108
g6
asS'imaplib'
p109
(lp110
S'IMAP4_stream'
p111
asS'shlex'
p112
(lp113
S'deque'
p114
ag112
ag112
asS'UnsatisfiableRequest'
p115
(lp116
g55
asS'InsecureRequestWarning'
p117
(lp118
S'pip'
p119
asS'Panda'
p120
(lp121
S'panda'
p122
asS'DatabaseError'
p123
(lp124
S'sqlite3'
p125
asS'EndOfLine'
p126
(lp127
g92
ag93
asS'AutoAddPolicy'
p128
(lp129
g16
asS'InstallationError'
p130
(lp131
g119
asS'TagToken'
p132
(lp133
g79
asS'cl_uchar'
p134
(lp135
S'opencl'
p136
asg122
(lp137
g120
aS'datetime'
p138
aS'timedelta'
p139
aS'tzinfo'
p140
asS'OldStyleClass'
p141
(lp142
S'mock'
p143
asS'RawTextHelpFormatter'
p144
(lp145
S'argparse'
p146
asS'p_Py_UNICODE'
p147
(lp148
g47
asS'GNUTranslations'
p149
(lp150
S'gettext'
p151
asS'tarfile'
p152
(lp153
S'CompressionError'
p154
aS'EOFHeaderError'
p155
aS'EmptyHeaderError'
p156
aS'ExFileObject'
p157
aS'ExtractError'
p158
aS'HeaderError'
p159
aS'InvalidHeaderError'
p160
aS'ReadError'
p161
aS'StreamError'
p162
aS'SubsequentHeaderError'
p163
aS'TarError'
p164
aS'TarFile'
p165
aS'TarFileCompat'
p166
aS'TarInfo'
p167
aS'TarIter'
p168
aS'TruncatedHeaderError'
p169
asS'c_double'
p170
(lp171
S'ctypes'
p172
asS'ppp_float'
p173
(lp174
g47
asS'Metadata'
p175
(lp176
S'mutagen'
p177
asS'SMTPDataError'
p178
(lp179
S'smtplib'
p180
asS'PaMacCoreStreamInfo'
p181
(lp182
S'pyaudio'
p183
asS'LocaleHTMLCalendar'
p184
(lp185
g19
asS'gaierror'
p186
(lp187
S'socket'
p188
asS'OptionConflictError'
p189
(lp190
S'optparse'
p191
asS'codecs'
p192
(lp193
S'BufferedIncrementalDecoder'
p194
aS'BufferedIncrementalEncoder'
p195
aS'Codec'
p196
aS'CodecInfo'
p197
aS'IncrementalDecoder'
p198
aS'IncrementalEncoder'
p199
aS'StreamReader'
p200
aS'StreamReaderWriter'
p201
aS'StreamRecoder'
p202
aS'StreamWriter'
p203
asS'unicode_'
p204
(lp205
g61
ag62
ag25
asS'BaseRequest'
p206
(lp207
g6
asS'SFTPError'
p208
(lp209
g16
asS'Rounded'
p210
(lp211
S'decimal'
p212
asS'InterfaceError'
p213
(lp214
g125
asg177
(lp215
S'FileType'
p216
ag175
asS'ColoredStreamHandler'
p217
(lp218
S'coloredlogs'
p219
asS'Serial'
p220
(lp221
S'serial'
p222
asS'InterpFormContentDict'
p223
(lp224
S'cgi'
p225
asS'SparsePanel'
p226
(lp227
S'pandas'
p228
asS'complex_'
p229
(lp230
g61
ag62
ag25
asS'Group'
p231
(lp232
S'execnet'
p233
ag58
asS'InvalidContext'
p234
(lp235
g212
asS'silent_list'
p236
(lp237
g25
asS'StringEnd'
p238
(lp239
g58
asS'Ellipsis'
p240
(lp241
g65
ag66
asS'BaseXMPP'
p242
(lp243
g97
asS'LazySet'
p244
(lp245
S'pytz'
p246
asS'FileSystemLoader'
p247
(lp248
S'jinja2'
p249
asS'Inexact'
p250
(lp251
g212
asS'dispatcher'
p252
(lp253
S'asyncore'
p254
asS'BeautifulSOAP'
p255
(lp256
g13
asS'tokenize'
p257
(lp258
S'StopTokenizing'
p259
aS'TokenError'
p260
aS'Untokenizer'
p261
aS'chain'
p262
asg161
(lp263
g152
asS'ExpressionError'
p264
(lp265
S'cssselect'
p266
asS'Snapshot'
p267
(lp268
S'leveldb'
p269
asS'Str'
p270
(lp271
g65
ag66
asS'HTTPError'
p272
(lp273
S'requests'
p274
asS'nodes'
p275
(lp276
S'Argument'
p277
aS'Condition'
p278
aS'Function'
p279
aS'FunctionCall'
p280
aS'Pointer'
p281
aS'Property'
p282
aS'Quote'
p283
aS'Variable'
p284
asS'cl_float2'
p285
(lp286
g136
asg201
(lp287
g192
asS'cl_float4'
p288
(lp289
g136
asS'Text'
p290
(lp291
g25
asS'cl_float8'
p292
(lp293
g136
asS'MMDFMessage'
p294
(lp295
g69
asS'NoSuchMailboxError'
p296
(lp297
g69
asS'DateLocator'
p298
(lp299
g25
asS'XMLStream'
p300
(lp301
g97
asS'AmbiguousTimeError'
p302
(lp303
g246
asS'Trackball'
p304
(lp305
S'glumpy'
p306
asg91
(lp307
S'ArithmeticError'
p308
aS'AssertionError'
p309
aS'AttributeError'
p310
aS'BaseException'
p311
aS'BufferError'
p312
aS'BytesWarning'
p313
aS'DeprecationWarning'
p314
aS'EOFError'
p315
aS'EnvironmentError'
p316
aS'Exception'
p317
aS'FloatingPointError'
p318
aS'FutureWarning'
p319
aS'GeneratorExit'
p320
aS'IOError'
p321
aS'ImportError'
p322
aS'ImportWarning'
p323
aS'IndentationError'
p324
aS'IndexError'
p325
aS'KeyError'
p326
aS'KeyboardInterrupt'
p327
aS'LookupError'
p328
aS'MemoryError'
p329
aS'NameError'
p330
aS'NotImplementedError'
p331
aS'OSError'
p332
aS'OverflowError'
p333
aS'PendingDeprecationWarning'
p334
aS'ReferenceError'
p335
aS'RuntimeError'
p336
ag89
aS'StandardError'
p337
aS'StopIteration'
p338
aS'SyntaxError'
p339
aS'SyntaxWarning'
p340
aS'SystemError'
p341
aS'SystemExit'
p342
aS'TabError'
p343
aS'TypeError'
p344
aS'UnboundLocalError'
p345
aS'UnicodeDecodeError'
p346
aS'UnicodeEncodeError'
p347
aS'UnicodeError'
p348
aS'UnicodeTranslateError'
p349
aS'UnicodeWarning'
p350
aS'UserWarning'
p351
aS'ValueError'
p352
aS'Warning'
p353
aS'ZeroDivisionError'
p354
asS'NetworkXPointlessConcept'
p355
(lp356
S'networkx'
p357
asS'filter_mode'
p358
(lp359
g31
asS'ImageFormat'
p360
(lp361
g136
ag31
asS'RepeatSectionError'
p362
(lp363
g72
asS'Chrome'
p364
(lp365
S'webbrowser'
p366
asS'cl_uint8'
p367
(lp368
g136
asS'Lt'
p369
(lp370
g65
ag66
asS'Period'
p371
(lp372
g228
asS'cl_uint2'
p373
(lp374
g136
asS'cl_uint4'
p375
(lp376
g136
asS'LevelDBError'
p377
(lp378
g269
asg332
(lp379
g91
ag92
ag93
ag94
asS'Format'
p380
(lp381
S'scikits.audiolab'
p382
asS'RRuleLocator'
p383
(lp384
g25
asS'TestCase'
p385
(lp386
g87
ag88
asS'CharsNotIn'
p387
(lp388
g58
asS'image_info'
p389
(lp390
g31
asS'NodeVisitor'
p391
(lp392
g65
ag66
asS'str_'
p393
(lp394
g61
ag62
ag25
asg139
(lp395
g122
ag138
asS'OpcodeInfo'
p396
(lp397
S'pickletools'
p398
asg9
(lp399
S'BooleanType'
p400
aS'BufferType'
p401
aS'BuiltinFunctionType'
p402
aS'BuiltinMethodType'
p403
aS'ClassType'
p404
aS'CodeType'
p405
aS'ComplexType'
p406
aS'DictProxyType'
p407
aS'DictType'
p408
aS'DictionaryType'
p409
aS'EllipsisType'
p410
ag216
aS'FloatType'
p411
aS'FrameType'
p412
aS'FunctionType'
p413
aS'GeneratorType'
p414
aS'GetSetDescriptorType'
p415
aS'InstanceType'
p416
aS'IntType'
p417
aS'LambdaType'
p418
aS'ListType'
p419
aS'LongType'
p420
aS'MemberDescriptorType'
p421
aS'MethodType'
p422
aS'ModuleType'
p423
aS'NoneType'
p424
aS'NotImplementedType'
p425
aS'ObjectType'
p426
aS'SliceType'
p427
aS'StringType'
p428
aS'TracebackType'
p429
aS'TupleType'
p430
ag7
aS'UnboundMethodType'
p431
aS'UnicodeType'
p432
aS'XRangeType'
p433
asg401
(lp434
g9
ag10
asS'Verbose'
p435
(lp436
S'matplotlib'
p437
asS'p_doublecomplex'
p438
(lp439
g47
asS'struct_pwent'
p440
(lp441
S'pwd'
p442
asS'IPv4Network'
p443
(lp444
S'ipaddress'
p445
asS'SocketClosed'
p446
(lp447
g55
asS'alias'
p448
(lp449
g65
ag66
asS'CythonType'
p450
(lp451
g47
asg331
(lp452
g91
ag92
ag93
ag94
asS'itemgetter'
p453
(lp454
S'heapq'
p455
aS'operator'
p456
aS'pyclbr'
p457
asS'interpretation'
p458
(lp459
S'Interpretation'
p460
asS'WarningMessage'
p461
(lp462
S'warnings'
p463
asS'functools'
p464
(lp465
S'partial'
p466
asS'LooseVersion'
p467
(lp468
g228
asS'DivisionByZero'
p469
(lp470
g212
asS'pp_Py_UNICODE'
p471
(lp472
g47
asS'ParseElementEnhance'
p473
(lp474
g58
asS'RawIOBase'
p475
(lp476
S'io'
p477
asS'vectorize'
p478
(lp479
g61
ag62
ag25
asS'MemoryMap'
p480
(lp481
g31
asS'PureWindowsPath'
p482
(lp483
S'pathlib'
p484
asS'timedelta64'
p485
(lp486
g61
ag62
ag25
asg330
(lp487
g91
ag92
ag93
ag94
asS'imp'
p488
(lp489
S'NullImporter'
p490
asS'SSLError'
p491
(lp492
S'ssl'
p493
asS'Path'
p494
(lp495
g484
asS'Optional'
p496
(lp497
S'docopt'
p498
ag58
asg249
(lp499
S'BaseLoader'
p500
aS'BytecodeCache'
p501
aS'ChoiceLoader'
p502
aS'DebugUndefined'
p503
aS'DictLoader'
p504
aS'Environment'
p505
aS'FileSystemBytecodeCache'
p506
ag247
aS'FunctionLoader'
p507
aS'Markup'
p508
aS'MemcachedBytecodeCache'
p509
aS'ModuleLoader'
p510
aS'PackageLoader'
p511
aS'PrefixLoader'
p512
aS'StrictUndefined'
p513
aS'Template'
p514
aS'TemplateAssertionError'
p515
aS'TemplateError'
p516
aS'TemplateNotFound'
p517
aS'TemplateSyntaxError'
p518
aS'TemplatesNotFound'
p519
aS'Undefined'
p520
aS'UndefinedError'
p521
asS'Arrow'
p522
(lp523
g25
asS'FileMultiDict'
p524
(lp525
g6
asS'GlobalInfo'
p526
(lp527
S'shedskin'
p528
asS'decorator'
p529
(lp530
S'ContextManager'
p531
aS'FunctionMaker'
p532
aS'GeneratorContextManager'
p533
aS'getfullargspec'
p534
asS'Reference'
p535
(lp536
S'pytools'
p537
asS'relativedelta'
p538
(lp539
g25
asS'p_floatcomplex'
p540
(lp541
g47
asS'SFTPAttributes'
p542
(lp543
g16
asg503
(lp544
g249
asS'PointerType'
p545
(lp546
g47
asS'kernel_arg_address_qualifier'
p547
(lp548
g31
asS'Transport'
p549
(lp550
g16
asS'DictReader'
p551
(lp552
S'csv'
p553
asg349
(lp554
g91
ag92
ag93
ag94
asS'RcParams'
p555
(lp556
g437
asS'sched'
p557
(lp558
S'Event'
p559
aS'scheduler'
p560
asS'Type'
p561
(lp562
g37
asS'BadHostKeyException'
p563
(lp564
g16
asS'PosixPath'
p565
(lp566
g484
asS'ErrorTree'
p567
(lp568
S'jsonschema'
p569
asS'poly1d'
p570
(lp571
g61
ag62
ag25
asS're'
p572
(lp573
S'Scanner'
p574
asS'UnknownPointerError'
p575
(lp576
S'objc'
p577
asS'LocalStack'
p578
(lp579
g6
asS'Dummy'
p580
(lp581
S'ffruit'
p582
asS'Word'
p583
(lp584
g58
asS'Extension'
p585
(lp586
S'setuptools'
p587
asS'WWWAuthenticate'
p588
(lp589
g6
asS'DumbWriter'
p590
(lp591
S'formatter'
p592
asS'python_method'
p593
(lp594
g577
asS'Cursor'
p595
(lp596
g125
asS'FileInput'
p597
(lp598
S'fileinput'
p599
asS'Pdb'
p600
(lp601
S'pdb'
p602
asS'c_ushort'
p603
(lp604
g172
asS'FollowedBy'
p605
(lp606
g58
asS'logging'
p607
(lp608
S'BufferingFormatter'
p609
aS'FileHandler'
p610
aS'Filter'
p611
aS'Filterer'
p612
aS'Formatter'
p613
aS'Handler'
p614
aS'LogRecord'
p615
aS'Logger'
p616
aS'LoggerAdapter'
p617
aS'Manager'
p618
aS'NullHandler'
p619
aS'PlaceHolder'
p620
aS'RootLogger'
p621
aS'StreamHandler'
p622
asS'ExecError'
p623
(lp624
S'shutil'
p625
asS'UninitializedDeallocWarning'
p626
(lp627
g577
asS'CSafeDumper'
p628
(lp629
g79
asS'Interpreter'
p630
(lp631
S'asteval'
p632
aS'jedi'
p633
aS'plac'
p634
asS'signedinteger'
p635
(lp636
g61
ag62
ag25
asS'ZMQBaseError'
p637
(lp638
S'zmq'
p639
asS'DistributionCache'
p640
(lp641
S'rosdistro'
p642
asS'URLopener'
p643
(lp644
S'urllib'
p645
asS'IOBase'
p646
(lp647
g477
asg336
(lp648
g91
ag31
ag92
ag93
ag94
asS'MaxNLocator'
p649
(lp650
g25
asS'UniqueNameGenerator'
p651
(lp652
g537
asg614
(lp653
g607
asS'PureProxy'
p654
(lp655
S'smtpd'
p656
asS'tox'
p657
(lp658
S'exception'
p659
asS'cl_uchar8'
p660
(lp661
g136
asS'cl_uchar4'
p662
(lp663
g136
asS'cl_uchar2'
p664
(lp665
g136
asS'pp_longdouble'
p666
(lp667
g47
asS'ABCMeta'
p668
(lp669
g22
aS'numbers'
p670
asS'TarClient'
p671
(lp672
S'vcstools'
p673
asS'async_chat'
p674
(lp675
S'asynchat'
p676
asg97
(lp677
g242
aS'Callback'
p678
aS'ClientXMPP'
p679
aS'ComponentXMPP'
p680
aS'ElementBase'
p681
aS'InvalidJID'
p682
aS'Iq'
p683
aS'MatchMany'
p684
aS'MatchXMLMask'
p685
aS'MatchXPath'
p686
aS'MatcherId'
p687
aS'Message'
p688
ag95
aS'RestartStream'
p689
aS'StanzaPath'
p690
aS'Waiter'
p691
aS'XMLCallback'
p692
ag300
aS'XMLWaiter'
p693
asS'NNTPReplyError'
p694
(lp695
S'nntplib'
p696
asS'inexact'
p697
(lp698
g61
ag62
ag25
asS'JSONEncoder'
p699
(lp700
S'json'
p701
asg420
(lp702
g9
ag10
asS'Set'
p703
(lp704
S'collections'
p705
ag65
ag66
asS'keyword'
p706
(lp707
g65
ag66
asS'expr'
p708
(lp709
g65
ag66
asS'ModuleFinder'
p710
(lp711
S'modulefinder'
p712
asS'NestingError'
p713
(lp714
g72
asS'DistributionNotFound'
p715
(lp716
S'pkg_resources'
p717
asg519
(lp718
g249
asS'StringStart'
p719
(lp720
g58
asS'cl_char'
p721
(lp722
g136
asS'StreamStartEvent'
p723
(lp724
g79
asS'CSafeLoader'
p725
(lp726
g79
asS'MemorizedResult'
p727
(lp728
S'joblib'
p729
asS'TestSuite'
p730
(lp731
g87
ag88
asS'Component'
p732
(lp733
g37
aS'docutils'
p734
asS'StreamEndToken'
p735
(lp736
g79
asS'RevivedObjectiveCObjectWarning'
p737
(lp738
g577
asS'WordEnd'
p739
(lp740
g58
asS'BufferedRWPair'
p741
(lp742
g477
asS'Artist'
p743
(lp744
g25
asS'DictMixin'
p745
(lp746
S'UserDict'
p747
aS'ordereddict'
p748
asS'object'
p749
(lp750
g61
asS'FileLock'
p751
(lp752
S'lockfile'
p753
asg681
(lp754
g97
asS'BitXor'
p755
(lp756
g65
ag66
asg324
(lp757
g91
ag92
ag93
ag94
asg168
(lp758
g152
asS'profiling_info'
p759
(lp760
g31
asS'MailmanProxy'
p761
(lp762
g656
asS'pp_void'
p763
(lp764
g47
asS'VersionConflict'
p765
(lp766
g717
asS'IMetadataProvider'
p767
(lp768
g717
asS'ResolutionError'
p769
(lp770
g717
asg310
(lp771
g91
ag92
ag93
ag94
asS'FuncFormatter'
p772
(lp773
g25
asg167
(lp774
g152
asS'RosPack'
p775
(lp776
S'rospkg'
p777
asS'Monitor'
p778
(lp779
g634
asS'EndOfDocument'
p780
(lp781
g92
ag93
asS'Flask'
p782
(lp783
S'flask'
p784
asS'Unpickler'
p785
(lp786
g10
asS'random'
p787
(lp788
S'Random'
p789
aS'SystemRandom'
p790
aS'WichmannHill'
p791
asg514
(lp792
S'string'
p793
ag249
aS'pipes'
p794
asS'MaxRecursionReached'
p795
(lp796
g92
ag93
asS'FrozenRequirement'
p797
(lp798
g119
asg203
(lp799
g192
asS'GenericBrowser'
p800
(lp801
g366
asg154
(lp802
g152
asg518
(lp803
g249
asS'Draft4Validator'
p804
(lp805
g569
asS'ZipManifests'
p806
(lp807
g717
asS'LocalMemory'
p808
(lp809
g31
asg140
(lp810
g122
ag138
asS'itsdangerous'
p811
(lp812
S'BadData'
p813
aS'BadHeader'
p814
aS'BadPayload'
p815
aS'BadSignature'
p816
aS'BadTimeSignature'
p817
aS'HMACAlgorithm'
p818
aS'JSONWebSignatureSerializer'
p819
aS'NoneAlgorithm'
p820
aS'Serializer'
p821
aS'SignatureExpired'
p822
aS'Signer'
p823
aS'SigningAlgorithm'
p824
aS'TimedJSONWebSignatureSerializer'
p825
aS'TimedSerializer'
p826
aS'TimestampSigner'
p827
aS'URLSafeSerializer'
p828
aS'URLSafeSerializerMixin'
p829
aS'URLSafeTimedSerializer'
p830
ag138
aS'izip'
p831
aS'text_type'
p832
asg829
(lp833
g811
asg342
(lp834
g91
ag92
ag93
ag94
asS'device_affinity_domain'
p835
(lp836
g31
asS'program_info'
p837
(lp838
g31
asS'cl_char16'
p839
(lp840
g136
asg696
(lp841
S'NNTPDataError'
p842
aS'NNTPError'
p843
aS'NNTPPermanentError'
p844
aS'NNTPProtocolError'
p845
ag694
aS'NNTPTemporaryError'
p846
aS'error_data'
p847
aS'error_perm'
p848
aS'error_proto'
p849
aS'error_reply'
p850
aS'error_temp'
p851
asS'OptionContainer'
p852
(lp853
g191
asS'PosixSerial'
p854
(lp855
g222
asS'DecimalTuple'
p856
(lp857
g212
asS'ValueToken'
p858
(lp859
g79
asS'SFTPServerInterface'
p860
(lp861
g16
asg849
(lp862
g696
aS'poplib'
p863
aS'ftplib'
p864
asS'binhex'
p865
(lp866
S'BinHex'
p867
aS'Error'
p868
aS'FInfo'
p869
aS'HexBin'
p870
aS'openrsrc'
p871
asS'Agent'
p872
(lp873
g16
asg94
(lp874
g308
ag309
ag310
ag311
ag312
aS'BytesIO'
p875
ag313
ag314
ag315
ag316
ag317
ag318
ag319
ag320
ag321
ag322
ag323
ag324
ag325
ag326
ag327
ag328
ag329
ag330
ag331
ag332
ag333
ag334
ag283
ag335
ag336
ag89
ag337
ag338
ag339
ag340
ag341
ag342
ag343
ag344
ag345
ag346
ag347
ag348
ag349
ag350
ag351
ag352
ag353
ag354
asS'enchant'
p876
(lp877
S'Broker'
p878
aS'DefaultLanguageNotFoundError'
p879
aS'Dict'
p880
aS'DictNotFoundError'
p881
aS'DictWithPWL'
p882
aS'EnchantStr'
p883
ag868
aS'ProviderDesc'
p884
aS'PyPWL'
p885
aS'TokenizerNotFoundError'
p886
asS'FileMetadata'
p887
(lp888
g717
asS'NodeEvent'
p889
(lp890
g79
asS'Invert'
p891
(lp892
g65
ag66
asS'p_size_t'
p893
(lp894
g47
asS'CollectionNode'
p895
(lp896
g79
asS'CBaseLoader'
p897
(lp898
g79
asg520
(lp899
g249
asS'OptionValueError'
p900
(lp901
g191
asS'Dialect'
p902
(lp903
g553
asS'SMTPConnectError'
p904
(lp905
g180
asg645
(lp906
S'ContentTooShortError'
p907
aS'FancyURLopener'
p908
ag643
aS'addbase'
p909
aS'addclosehook'
p910
aS'addinfo'
p911
aS'addinfourl'
p912
aS'ftpwrapper'
p913
asS'ppp_size_t'
p914
(lp915
g47
asS'SSLSocket'
p916
(lp917
g493
asS'ProfileStats'
p918
(lp919
g37
asS'TestResults'
p920
(lp921
g82
asS'NetworkXError'
p922
(lp923
g357
asS'Counter'
p924
(lp925
g705
asS'Queue'
p926
(lp927
g136
asg172
(lp928
S'ArgumentError'
p929
aS'Array'
p930
aS'BigEndianStructure'
p931
aS'LibraryLoader'
p932
aS'LittleEndianStructure'
p933
aS'PyDLL'
p934
aS'Structure'
p935
aS'Union'
p936
aS'c_bool'
p937
aS'c_byte'
p938
aS'c_char'
p939
aS'c_char_p'
p940
ag170
aS'c_float'
p941
aS'c_int'
p942
aS'c_int16'
p943
aS'c_int32'
p944
aS'c_int64'
p945
aS'c_int8'
p946
aS'c_long'
p947
aS'c_longdouble'
p948
aS'c_longlong'
p949
aS'c_short'
p950
aS'c_size_t'
p951
aS'c_ssize_t'
p952
aS'c_ubyte'
p953
aS'c_uint'
p954
aS'c_uint16'
p955
aS'c_uint32'
p956
aS'c_uint64'
p957
aS'c_uint8'
p958
aS'c_ulong'
p959
aS'c_ulonglong'
p960
ag603
aS'c_void_p'
p961
aS'c_voidp'
p962
aS'c_wchar'
p963
aS'c_wchar_p'
p964
aS'py_object'
p965
asS'xchar'
p966
(lp967
g93
aS'extensions'
p968
asS'AutoLocator'
p969
(lp970
g25
asS'theanets'
p971
(lp972
S'Autoencoder'
p973
aS'Classifier'
p974
aS'Experiment'
p975
aS'Network'
p976
aS'Regressor'
p977
asS'BsdDbShelf'
p978
(lp979
S'shelve'
p980
asS'Wave_write'
p981
(lp982
S'wave'
p983
asS'WeakRef'
p984
(lp985
g577
asg274
(lp986
S'ConnectionError'
p987
ag272
ag619
aS'PreparedRequest'
p988
aS'Request'
p989
aS'RequestException'
p990
aS'Response'
p991
aS'Session'
p992
aS'Timeout'
p993
aS'TooManyRedirects'
p994
aS'URLRequired'
p995
asS'MinimalSoup'
p996
(lp997
g13
asg164
(lp998
g152
asS'Regex'
p999
(lp1000
g58
asS'DiGraph'
p1001
(lp1002
g357
asS'NullProvider'
p1003
(lp1004
g717
asS'comprehension'
p1005
(lp1006
g65
ag66
asS'Sampler'
p1007
(lp1008
g31
asS'SSLFakeFile'
p1009
(lp1010
g180
asg870
(lp1011
g865
asS'TryExcept'
p1012
(lp1013
g65
ag66
asg851
(lp1014
g696
ag864
asg41
(lp1015
S'ImpImporter'
p1016
aS'ImpLoader'
p1017
ag423
ag38
asS'LocalLinker'
p1018
(lp1019
g37
asS'VarianceAggregator'
p1020
(lp1021
g537
asg425
(lp1022
g9
ag10
asS'flexible'
p1023
(lp1024
g61
ag62
ag25
asS'dropwhile'
p1025
(lp1026
S'itertools'
p1027
asg61
(lp1028
S'ComplexWarning'
p1029
aS'DataSource'
p1030
aS'MachAr'
p1031
aS'ModuleDeprecationWarning'
p1032
ag511
aS'RankWarning'
p1033
aS'Tester'
p1034
aS'VisibleDeprecationWarning'
p1035
aS'bool'
p1036
aS'bool8'
p1037
aS'bool_'
p1038
aS'broadcast'
p1039
aS'busdaycalendar'
p1040
aS'byte'
p1041
aS'bytes_'
p1042
aS'cdouble'
p1043
aS'cfloat'
p1044
aS'character'
p1045
aS'chararray'
p1046
aS'clongdouble'
p1047
aS'clongfloat'
p1048
aS'complex'
p1049
aS'complex128'
p1050
aS'complex256'
p1051
aS'complex64'
p1052
ag229
aS'complexfloating'
p1053
aS'csingle'
p1054
aS'datetime64'
p1055
aS'double'
p1056
aS'dtype'
p1057
aS'errstate'
p1058
aS'finfo'
p1059
aS'flatiter'
p1060
ag1023
aS'float'
p1061
aS'float128'
p1062
aS'float16'
p1063
aS'float32'
p1064
aS'float64'
p1065
aS'float_'
p1066
aS'floating'
p1067
aS'format_parser'
p1068
aS'generic'
p1069
aS'half'
p1070
aS'iinfo'
p1071
ag697
aS'int'
p1072
aS'int0'
p1073
aS'int16'
p1074
aS'int32'
p1075
aS'int64'
p1076
aS'int8'
p1077
aS'int_'
p1078
aS'intc'
p1079
aS'integer'
p1080
aS'intp'
p1081
aS'long'
p1082
aS'longcomplex'
p1083
aS'longdouble'
p1084
aS'longfloat'
p1085
aS'longlong'
p1086
aS'matrix'
p1087
aS'memmap'
p1088
aS'ndarray'
p1089
aS'ndenumerate'
p1090
aS'ndindex'
p1091
aS'nditer'
p1092
aS'number'
p1093
ag749
aS'object0'
p1094
aS'object_'
p1095
ag570
aS'recarray'
p1096
aS'record'
p1097
aS'short'
p1098
ag635
aS'single'
p1099
aS'singlecomplex'
p1100
aS'str'
p1101
ag393
aS'string0'
p1102
aS'string_'
p1103
ag485
aS'ubyte'
p1104
aS'ufunc'
p1105
aS'uint'
p1106
aS'uint0'
p1107
aS'uint16'
p1108
aS'uint32'
p1109
aS'uint64'
p1110
aS'uint8'
p1111
aS'uintc'
p1112
aS'uintp'
p1113
aS'ulonglong'
p1114
aS'unicode'
p1115
aS'unicode0'
p1116
ag204
aS'unsignedinteger'
p1117
aS'ushort'
p1118
ag478
ag59
aS'void0'
p1119
asg956
(lp1120
g172
asg1035
(lp1121
g61
ag62
ag25
asS'Time'
p1122
(lp1123
g125
asS'FlowEntryToken'
p1124
(lp1125
g79
asg246
(lp1126
g302
aS'InvalidTimeError'
p1127
aS'LazyDict'
p1128
aS'LazyList'
p1129
ag244
aS'NonExistentTimeError'
p1130
aS'UnknownTimeZoneError'
p1131
asg939
(lp1132
g172
asg347
(lp1133
g91
ag92
ag93
ag94
asS'MultiChannel'
p1134
(lp1135
g233
asg659
(lp1136
g657
asS'cmpop'
p1137
(lp1138
g65
ag66
asS'Process'
p1139
(lp1140
S'psutil'
p1141
aS'multiprocessing'
p1142
asS'ASTType'
p1143
(lp1144
S'parser'
p1145
asS'device_fp_config'
p1146
(lp1147
g31
asS'ObjCLazyModule'
p1148
(lp1149
g577
asS'Hook'
p1150
(lp1151
S'cgitb'
p1152
asg587
(lp1153
S'Command'
p1154
aS'Distribution'
p1155
ag585
aS'Feature'
p1156
aS'PEP420PackageFinder'
p1157
aS'PackageFinder'
p1158
aS'Require'
p1159
aS'filterfalse'
p1160
asS'RosDistro'
p1161
(lp1162
g642
asg413
(lp1163
g9
ag10
asg329
(lp1164
g91
ag31
ag92
ag93
ag94
asg879
(lp1165
g876
asg962
(lp1166
g172
asS'unirest'
p1167
(lp1168
g76
aS'UnirestResponse'
p1169
asS'ResourceNotFound'
p1170
(lp1171
g777
asg477
(lp1172
S'BlockingIOError'
p1173
aS'BufferedIOBase'
p1174
ag741
aS'BufferedRandom'
p1175
aS'BufferedReader'
p1176
aS'BufferedWriter'
p1177
ag875
aS'FileIO'
p1178
ag646
aS'IncrementalNewlineDecoder'
p1179
ag475
ag76
aS'TextIOBase'
p1180
aS'TextIOWrapper'
p1181
aS'UnsupportedOperation'
p1182
asS'LockFile'
p1183
(lp1184
g753
asS'SerialTimeoutException'
p1185
(lp1186
g222
asg1060
(lp1187
g61
ag62
ag25
asS'mftrack'
p1188
(lp1189
S'mftracker'
p1190
asg350
(lp1191
g91
ag92
ag93
ag94
asg1049
(lp1192
g61
asg931
(lp1193
g172
asg16
(lp1194
g872
aS'AgentKey'
p1195
aS'AuthHandler'
p1196
aS'AuthenticationException'
p1197
ag128
aS'BadAuthenticationType'
p1198
ag563
aS'BaseSFTP'
p1199
aS'BufferedFile'
p1200
aS'Channel'
p1201
aS'ChannelException'
p1202
aS'ChannelFile'
p1203
aS'DSSKey'
p1204
aS'ECDSAKey'
p1205
aS'HostKeys'
p1206
aS'InteractiveQuery'
p1207
ag688
aS'MissingHostKeyPolicy'
p1208
aS'PKey'
p1209
aS'Packetizer'
p1210
aS'PasswordRequiredException'
p1211
aS'ProxyCommand'
p1212
aS'ProxyCommandFailure'
p1213
aS'RSAKey'
p1214
aS'RejectPolicy'
p1215
ag542
aS'SFTPClient'
p1216
ag208
aS'SFTPFile'
p1217
aS'SFTPHandle'
p1218
ag14
ag860
aS'SSHClient'
p1219
aS'SSHConfig'
p1220
aS'SSHException'
p1221
aS'SecurityOptions'
p1222
aS'ServerInterface'
p1223
aS'SubsystemHandler'
p1224
ag549
aS'WarningPolicy'
p1225
asS'NotIn'
p1226
(lp1227
g65
ag66
asS'word2vec'
p1228
(lp1229
S'WordClusters'
p1230
aS'WordVectors'
p1231
asS'CachedManifestProvider'
p1232
(lp1233
g642
asg216
(lp1234
g9
ag146
ag177
ag10
asg965
(lp1235
g172
asS'CaselessLiteral'
p1236
(lp1237
g58
asS'Values'
p1238
(lp1239
g191
asS'CommandCompiler'
p1240
(lp1241
S'code'
p1242
aS'codeop'
p1243
asS'OpFromGraph'
p1244
(lp1245
g37
asg1230
(lp1246
g1228
asS'NannyNag'
p1247
(lp1248
S'tabnanny'
p1249
asS'cycle'
p1250
(lp1251
g1027
asg228
(lp1252
S'Categorical'
p1253
aS'DataFrame'
p1254
aS'DateOffset'
p1255
aS'DateRange'
p1256
aS'DatetimeIndex'
p1257
aS'ExcelFile'
p1258
aS'ExcelWriter'
p1259
aS'Expr'
p1260
aS'Float64Index'
p1261
aS'HDFStore'
p1262
aS'Index'
p1263
aS'Int64Index'
p1264
ag467
aS'MultiIndex'
p1265
aS'Panel'
p1266
aS'Panel4D'
p1267
ag371
aS'PeriodIndex'
p1268
aS'Series'
p1269
aS'SparseArray'
p1270
aS'SparseDataFrame'
p1271
aS'SparseList'
p1272
ag226
aS'SparseSeries'
p1273
aS'SparseTimeSeries'
p1274
aS'Term'
p1275
aS'TimeGrouper'
p1276
aS'TimeSeries'
p1277
aS'Timestamp'
p1278
aS'WidePanel'
p1279
ag138
asg618
(lp1280
g607
asg621
(lp1281
g607
asS'gzip'
p1282
(lp1283
S'GzipFile'
p1284
asS'Table'
p1285
(lp1286
g537
asg333
(lp1287
g91
ag92
ag93
ag94
asg1284
(lp1288
g1282
asg1058
(lp1289
g61
ag62
ag25
asg1196
(lp1290
g16
asg1080
(lp1291
g61
ag62
ag25
asS'SourceGenerator'
p1292
(lp1293
g66
asS'iplimage'
p1294
(lp1295
S'cv'
p1296
asS'debugger'
p1297
(lp1298
S'DebugMetaclass'
p1299
asS'DefaultVerifyPaths'
p1300
(lp1301
g493
asg136
(lp1302
S'CommandQueue'
p1303
aS'Context'
p1304
aS'ContextProperties'
p1305
aS'Device'
p1306
aS'DeviceMemoryView'
p1307
ag559
aS'Image'
p1308
ag360
aS'Kernel'
p1309
aS'MemoryObject'
p1310
aS'OpenCLException'
p1311
aS'Platform'
p1312
aS'Program'
p1313
ag926
aS'UserEvent'
p1314
aS'array_type'
p1315
ag721
ag839
aS'cl_char2'
p1316
aS'cl_char4'
p1317
aS'cl_char8'
p1318
aS'cl_double'
p1319
aS'cl_double16'
p1320
aS'cl_double2'
p1321
aS'cl_double4'
p1322
aS'cl_double8'
p1323
aS'cl_float'
p1324
aS'cl_float16'
p1325
ag285
ag288
ag292
aS'cl_half'
p1326
aS'cl_int'
p1327
aS'cl_int16'
p1328
aS'cl_int2'
p1329
aS'cl_int4'
p1330
aS'cl_int8'
p1331
aS'cl_long'
p1332
aS'cl_long16'
p1333
aS'cl_long2'
p1334
aS'cl_long4'
p1335
aS'cl_long8'
p1336
aS'cl_short'
p1337
aS'cl_short16'
p1338
aS'cl_short2'
p1339
aS'cl_short4'
p1340
aS'cl_short8'
p1341
ag134
aS'cl_uchar16'
p1342
ag664
ag662
ag660
aS'cl_uint'
p1343
aS'cl_uint16'
p1344
ag373
ag375
ag367
aS'cl_ulong'
p1345
aS'cl_ulong16'
p1346
aS'cl_ulong2'
p1347
aS'cl_ulong4'
p1348
aS'cl_ulong8'
p1349
aS'cl_ushort'
p1350
aS'cl_ushort16'
p1351
aS'cl_ushort2'
p1352
aS'cl_ushort4'
p1353
aS'cl_ushort8'
p1354
aS'cl_vector'
p1355
aS'constant_memory'
p1356
aS'contextual_memory'
p1357
aS'global_memory'
p1358
aS'int_type'
p1359
aS'local_memory'
p1360
aS'mem_layout'
p1361
aS'typed_property'
p1362
asg1045
(lp1363
g61
ag62
ag25
asg1108
(lp1364
g61
ag62
ag25
asg705
(lp1365
S'Callable'
p1366
aS'Container'
p1367
ag924
aS'Hashable'
p1368
aS'ItemsView'
p1369
aS'Iterable'
p1370
aS'Iterator'
p1371
aS'KeysView'
p1372
aS'Mapping'
p1373
aS'MappingView'
p1374
aS'MutableMapping'
p1375
aS'MutableSequence'
p1376
aS'MutableSet'
p1377
aS'OrderedDict'
p1378
aS'Sequence'
p1379
ag703
aS'Sized'
p1380
aS'ValuesView'
p1381
ag103
ag114
asg1128
(lp1382
g246
asg1200
(lp1383
g16
asg1029
(lp1384
g61
ag62
ag25
asS'SMTPHeloError'
p1385
(lp1386
g180
asg534
(lp1387
g529
ag634
asS'UserAgent'
p1388
(lp1389
g6
asg1156
(lp1390
g587
asS'Module_six_moves_urllib_robotparser'
p1391
(lp1392
S'six'
p1393
asg166
(lp1394
g152
asS'Reflector'
p1395
(lp1396
g93
asS'ndgpuarray'
p1397
(lp1398
S'pygpu'
p1399
asg457
(lp1400
S'Class'
p1401
ag279
ag453
asg1207
(lp1402
g16
asS'ppp_Py_UCS4'
p1403
(lp1404
g47
asS'Poller'
p1405
(lp1406
g639
asg1190
(lp1407
g1188
asg507
(lp1408
g249
asS'Again'
p1409
(lp1410
g639
asS'Bdb'
p1411
(lp1412
S'bdb'
p1413
asS'NonCallableMock'
p1414
(lp1415
g143
asg1335
(lp1416
g136
asg1334
(lp1417
g136
asg1336
(lp1418
g136
asg411
(lp1419
g9
ag10
asS'PipError'
p1420
(lp1421
g119
asS'External'
p1422
(lp1423
g37
asS'TkMonitor'
p1424
(lp1425
g634
asS'MHMessage'
p1426
(lp1427
g69
asg323
(lp1428
g91
ag92
ag93
ag94
asg947
(lp1429
g172
asS'ControllerError'
p1430
(lp1431
g55
asS'ReleaseBuildFile'
p1432
(lp1433
g642
asS'socket_error'
p1434
(lp1435
g493
asS'Greenlet'
p1436
(lp1437
S'gevent'
p1438
asS'MovedAttribute'
p1439
(lp1440
g1393
asS'EnvironBuilder'
p1441
(lp1442
g6
asg282
(lp1443
g275
ag93
asS'super'
p1444
(lp1445
g577
asg1152
(lp1446
g1150
asg1308
(lp1447
g306
ag136
ag31
asg277
(lp1448
g498
ag275
ag93
asS'NetrcParseError'
p1449
(lp1450
S'netrc'
p1451
asS'SymbolicOutput'
p1452
(lp1453
g37
asS'Calendar'
p1454
(lp1455
g19
asg498
(lp1456
S'AnyOptions'
p1457
ag277
aS'ChildPattern'
p1458
ag1154
ag880
aS'DocoptExit'
p1459
aS'DocoptLanguageError'
p1460
aS'Either'
p1461
aS'OneOrMore'
p1462
aS'Option'
p1463
ag496
aS'ParentPattern'
p1464
aS'Pattern'
p1465
aS'Required'
p1466
aS'TokenStream'
p1467
asg1061
(lp1468
g61
asS'VcsClient'
p1469
(lp1470
g673
asg505
(lp1471
g249
ag717
asS'ImmutableDict'
p1472
(lp1473
g6
asg1036
(lp1474
g61
asS'Config'
p1475
(lp1476
g784
asg828
(lp1477
g811
asS'event_info'
p1478
(lp1479
g31
asg1199
(lp1480
g16
asg1177
(lp1481
g477
asg1306
(lp1482
g136
ag31
asS'PropertyMock'
p1483
(lp1484
g143
asS'Decimal'
p1485
(lp1486
g212
asg382
(lp1487
g380
aS'PyaudioException'
p1488
aS'PyaudioIOError'
p1489
aS'Sndfile'
p1490
ag1034
aS'formatinfo'
p1491
aS'sndfile'
p1492
asS'pp_long'
p1493
(lp1494
g47
asS'file_dispatcher'
p1495
(lp1496
g254
asS'ZMQBindError'
p1497
(lp1498
g639
asS'Interactive'
p1499
(lp1500
g65
ag66
asg908
(lp1501
g645
asg1330
(lp1502
g136
asg1329
(lp1503
g136
asS'BackgroundBrowser'
p1504
(lp1505
g366
asg1331
(lp1506
g136
asS'array_property'
p1507
(lp1508
g577
asS'UnknownExtra'
p1509
(lp1510
g717
asg1047
(lp1511
g61
ag62
ag25
asS'SchemaError'
p1512
(lp1513
g569
asg938
(lp1514
g172
asS'Differ'
p1515
(lp1516
S'difflib'
p1517
asg847
(lp1518
g696
asS'EggMetadata'
p1519
(lp1520
g717
asg316
(lp1521
g91
ag92
ag93
ag94
asS'HelpFormatter'
p1522
(lp1523
g146
ag191
asg1067
(lp1524
g61
ag62
ag25
asS'FormatChecker'
p1525
(lp1526
g569
asg819
(lp1527
g811
asS'PEP440Warning'
p1528
(lp1529
g717
asS'AliasToken'
p1530
(lp1531
g79
asS'excel'
p1532
(lp1533
g553
asg1201
(lp1534
g16
asS'LevelDB'
p1535
(lp1536
g269
asS'PyObjCStrBridgeWarning'
p1537
(lp1538
g577
asS'YAMLError'
p1539
(lp1540
g79
asS'QuotedString'
p1541
(lp1542
g58
asS'FormatError'
p1543
(lp1544
g569
ag69
asg676
(lp1545
g674
aS'catch_warnings'
p1546
ag114
aS'fifo'
p1547
aS'simple_producer'
p1548
asS'OptimizedUnicode'
p1549
(lp1550
g125
asS'ppp_floatcomplex'
p1551
(lp1552
g47
asS'islice'
p1553
(lp1554
g1027
ag455
asS'Constant'
p1555
(lp1556
g37
asS'InvalidDate'
p1557
(lp1558
S'humanfriendly'
p1559
asS'IPv6Interface'
p1560
(lp1561
g445
asS'time'
p1562
(lp1563
g138
aS'struct_time'
p1564
asg366
(lp1565
g1504
aS'BaseBrowser'
p1566
ag364
aS'Chromium'
p1567
aS'Elinks'
p1568
ag868
aS'Galeon'
p1569
ag800
aS'Grail'
p1570
aS'Konqueror'
p1571
aS'MacOSX'
p1572
aS'MacOSXOSAScript'
p1573
aS'Mozilla'
p1574
aS'Netscape'
p1575
aS'Opera'
p1576
aS'UnixBrowser'
p1577
asS'SSLWantReadError'
p1578
(lp1579
g493
asS'Au_read'
p1580
(lp1581
S'sunau'
p1582
asS'IfExp'
p1583
(lp1584
g65
ag66
asg1195
(lp1585
g16
asg1568
(lp1586
g366
asg262
(lp1587
g1027
ag455
ag257
ag437
asg963
(lp1588
g172
asg1299
(lp1589
g1297
asg615
(lp1590
g607
asS'ParseBaseException'
p1591
(lp1592
g58
asS'izip_longest'
p1593
(lp1594
g1027
asg163
(lp1595
g152
asg784
(lp1596
S'Blueprint'
p1597
ag1475
ag782
ag508
aS'Module'
p1598
ag989
ag991
ag992
asS'FlowSequenceStartToken'
p1599
(lp1600
g79
asg1303
(lp1601
g136
ag31
asS'DocTest'
p1602
(lp1603
g82
asS'DivisionImpossible'
p1604
(lp1605
g212
asS'BZ2File'
p1606
(lp1607
g50
asg426
(lp1608
g9
ag10
asg1377
(lp1609
g705
asg793
(lp1610
g613
ag514
aS'atof_error'
p1611
aS'atoi_error'
p1612
aS'atol_error'
p1613
aS'index_error'
p1614
asS'MultiGraph'
p1615
(lp1616
g357
asg1040
(lp1617
g61
ag62
ag25
asS'FSSpec'
p1618
(lp1619
g577
asS'Yield'
p1620
(lp1621
g65
ag66
asS'markupsafe'
p1622
(lp1623
S'EscapeFormatter'
p1624
ag1373
ag508
ag832
asg1178
(lp1625
g477
asg1319
(lp1626
g136
asg422
(lp1627
g9
ag10
ag188
asS'NoMatch'
p1628
(lp1629
g58
asg942
(lp1630
g172
asg325
(lp1631
g91
ag92
ag93
ag94
asS'FormatStrFormatter'
p1632
(lp1633
g25
asS'Global'
p1634
(lp1635
g65
ag66
asS'Tag'
p1636
(lp1637
g13
asS'greenlet'
p1638
(lp1639
S'GreenletExit'
p1640
ag1638
ag1638
asS'IllegalWeekdayError'
p1641
(lp1642
g19
asg418
(lp1643
g9
ag10
asg1142
(lp1644
S'AuthenticationError'
p1645
aS'BufferTooShort'
p1646
ag1139
aS'ProcessError'
p1647
aS'TimeoutError'
p1648
asg103
(lp1649
g705
ag98
aS'pyasn'
p1650
asg1016
(lp1651
g41
asS'NotPassing'
p1652
(lp1653
g92
ag93
asS'GetoptError'
p1654
(lp1655
S'getopt'
p1656
asg102
(lp1657
g98
asg1272
(lp1658
g228
asS'CaselessKeyword'
p1659
(lp1660
g58
asg509
(lp1661
g249
asg569
(lp1662
S'Draft3Validator'
p1663
ag804
ag567
ag1525
ag1543
aS'RefResolutionError'
p1664
aS'RefResolver'
p1665
ag1512
aS'ValidationError'
p1666
asS'NetworkXUnfeasible'
p1667
(lp1668
g357
asS'CLoader'
p1669
(lp1670
g79
asS'NetworkXAlgorithmError'
p1671
(lp1672
g357
asS'abstractproperty'
p1673
(lp1674
g22
ag670
asS'PosixPollSerial'
p1675
(lp1676
g222
asg1374
(lp1677
g705
asg946
(lp1678
g172
asg790
(lp1679
g787
asg980
(lp1680
g978
aS'DbfilenameShelf'
p1681
aS'Shelf'
p1682
asS'stmt'
p1683
(lp1684
g65
ag66
asg1175
(lp1685
g477
asg990
(lp1686
g274
asg1155
(lp1687
g642
ag587
ag717
asg1327
(lp1688
g136
asS'DayLocator'
p1689
(lp1690
g25
asS'Packer'
p1691
(lp1692
S'xdrlib'
p1693
asg327
(lp1694
g91
ag92
ag93
ag94
asg1564
(lp1695
g1562
asS'NSDecimal'
p1696
(lp1697
g577
asg992
(lp1698
g274
ag784
asg266
(lp1699
g264
aS'FunctionalPseudoElement'
p1700
aS'GenericTranslator'
p1701
aS'HTMLTranslator'
p1702
aS'Selector'
p1703
aS'SelectorError'
p1704
aS'SelectorSyntaxError'
p1705
asS'LtE'
p1706
(lp1707
g65
ag66
asS'objc_meta_class'
p1708
(lp1709
g577
asS'LockType'
p1710
(lp1711
S'thread'
p1712
asg311
(lp1713
g91
ag92
ag93
ag94
asg1054
(lp1714
g61
ag62
ag25
asg1057
(lp1715
g61
ag62
ag25
asg1117
(lp1716
g61
ag62
ag25
asS'ErrorDuringImport'
p1717
(lp1718
S'pydoc'
p1719
asS'RequestCacheControl'
p1720
(lp1721
g6
asS'Spinner'
p1722
(lp1723
g1559
asS'Import'
p1724
(lp1725
g65
ag66
asS'Node'
p1726
(lp1727
g79
asg1042
(lp1728
g61
ag62
ag25
asg960
(lp1729
g172
asS'Enum'
p1730
(lp1731
S'enum'
p1732
asS'UndefinedRubyMethod'
p1733
(lp1734
g92
ag93
asg155
(lp1735
g152
asg1222
(lp1736
g16
asg1569
(lp1737
g366
asg1701
(lp1738
g266
asS'Restart'
p1739
(lp1740
g602
asS'pp_doublecomplex'
p1741
(lp1742
g47
asS'cached_property'
p1743
(lp1744
g6
asg1576
(lp1745
g366
asg1159
(lp1746
g587
asg1466
(lp1747
g498
asS'device_exec_capabilities'
p1748
(lp1749
g31
asS'Expression'
p1750
(lp1751
g65
ag66
asS'OrderedUpdates'
p1752
(lp1753
g37
asS'rc_context'
p1754
(lp1755
g437
asg10
(lp1756
g400
ag401
ag402
ag403
ag404
ag405
ag406
ag407
ag408
ag409
ag410
ag216
ag411
ag412
ag413
ag414
ag415
ag416
ag417
ag418
ag419
ag420
ag421
ag422
ag423
ag424
ag425
ag426
aS'PickleError'
p1757
aS'Pickler'
p1758
aS'PicklingError'
p1759
ag427
ag428
ag429
ag430
ag7
ag431
ag432
ag785
aS'UnpicklingError'
p1760
ag433
asS'Out'
p1761
(lp1762
g37
asg320
(lp1763
g91
ag92
ag93
ag94
asS'MinuteLocator'
p1764
(lp1765
g25
asS'SGMLParser'
p1766
(lp1767
g13
asS'ArgumentDescriptor'
p1768
(lp1769
g398
asS'permutations'
p1770
(lp1771
g1027
asS'RosStack'
p1772
(lp1773
g777
asg994
(lp1774
g274
asS'MappingStartEvent'
p1775
(lp1776
g79
asS'xfloat'
p1777
(lp1778
g93
ag968
asg955
(lp1779
g172
asS'mboxMessage'
p1780
(lp1781
g69
asg968
(lp1782
g1401
aS'Dir'
p1783
aS'Directory'
p1784
aS'Encoding'
p1785
aS'FalseClass'
p1786
aS'File'
p1787
aS'Integer'
p1788
aS'Numeric'
p1789
aS'Object'
p1790
ag966
aS'xdict'
p1791
ag1777
aS'xint'
p1792
aS'xlist'
p1793
aS'xstr'
p1794
asS'ppp_longdouble'
p1795
(lp1796
g47
asS'LogFormatter'
p1797
(lp1798
g25
asS'interpy.codec.utils'
p1799
(lp1800
g76
asS'product'
p1801
(lp1802
g1027
asg846
(lp1803
g696
asS'PortableUnixMailbox'
p1804
(lp1805
g69
asS'DispatcherMiddleware'
p1806
(lp1807
g6
asg1106
(lp1808
g61
ag62
ag25
asg1243
(lp1809
g1240
aS'Compile'
p1810
asg261
(lp1811
g257
asg1399
(lp1812
g1397
asS'MIMEAccept'
p1813
(lp1814
g6
asS'repeat'
p1815
(lp1816
g1027
asS'ComponentList'
p1817
(lp1818
g37
asS'MagicMock'
p1819
(lp1820
g143
asg1269
(lp1821
g228
asS'TickHelper'
p1822
(lp1823
g25
asg1212
(lp1824
g16
asg1076
(lp1825
g61
ag62
ag25
asS'ppp_void'
p1826
(lp1827
g47
asg729
(lp1828
g616
ag727
aS'Memory'
p1829
aS'Parallel'
p1830
aS'PrintTime'
p1831
asS'GeneratorExp'
p1832
(lp1833
g65
ag66
asg101
(lp1834
g98
asS'GridSpec'
p1835
(lp1836
g25
asS'tempfile'
p1837
(lp1838
S'SpooledTemporaryFile'
p1839
asg988
(lp1840
g274
asS'ImmutableOrderedMultiDict'
p1841
(lp1842
g6
asg689
(lp1843
g97
asg1786
(lp1844
g93
ag968
asS'Param'
p1845
(lp1846
g37
ag65
ag66
asS'White'
p1847
(lp1848
g58
asS'UnknownType'
p1849
(lp1850
g72
asS'Widget'
p1851
(lp1852
g25
asS'ContextualZipFile'
p1853
(lp1854
g717
asS'UserAgentMixin'
p1855
(lp1856
g6
asS'Module_six_moves_urllib_request'
p1857
(lp1858
g1393
asg79
(lp1859
g77
ag1530
aS'AnchorToken'
p1860
aS'BaseDumper'
p1861
ag500
aS'BlockEndToken'
p1862
aS'BlockEntryToken'
p1863
aS'BlockMappingStartToken'
p1864
aS'BlockSequenceStartToken'
p1865
aS'CBaseDumper'
p1866
ag897
aS'CDumper'
p1867
ag1669
ag628
ag725
aS'CollectionEndEvent'
p1868
ag895
aS'CollectionStartEvent'
p1869
aS'DirectiveToken'
p1870
aS'DocumentEndEvent'
p1871
aS'DocumentEndToken'
p1872
aS'DocumentStartEvent'
p1873
aS'DocumentStartToken'
p1874
aS'Dumper'
p1875
ag559
ag1124
aS'FlowMappingEndToken'
p1876
aS'FlowMappingStartToken'
p1877
aS'FlowSequenceEndToken'
p1878
ag1599
aS'KeyToken'
p1879
aS'Loader'
p1880
aS'MappingEndEvent'
p1881
aS'MappingNode'
p1882
ag1775
aS'Mark'
p1883
aS'MarkedYAMLError'
p1884
ag1726
ag889
aS'SafeDumper'
p1885
aS'SafeLoader'
p1886
aS'ScalarEvent'
p1887
aS'ScalarNode'
p1888
aS'ScalarToken'
p1889
aS'SequenceEndEvent'
p1890
aS'SequenceNode'
p1891
aS'SequenceStartEvent'
p1892
aS'StreamEndEvent'
p1893
ag735
ag723
aS'StreamStartToken'
p1894
ag132
aS'Token'
p1895
ag858
ag1539
aS'YAMLObject'
p1896
aS'YAMLObjectMetaclass'
p1897
asS'BzrClient'
p1898
(lp1899
g673
asS'main'
p1900
(lp1901
S'nose'
p1902
ag87
ag88
asS'UnknownCommandError'
p1903
(lp1904
g92
ag93
asS'BaseTestSuite'
p1905
(lp1906
g87
ag88
asS'ICantBelieveItsBeautifulSoup'
p1907
(lp1908
g13
asg1070
(lp1909
g61
ag62
ag25
asg346
(lp1910
g91
ag92
ag93
ag94
asg106
(lp1911
g104
asg1091
(lp1912
g61
ag62
ag25
asS'FunctionDef'
p1913
(lp1914
g65
ag66
asg1279
(lp1915
g228
asS'pp_bint'
p1916
(lp1917
g47
asS'DocTestParser'
p1918
(lp1919
g82
asg825
(lp1920
g811
asS'ParserElement'
p1921
(lp1922
g58
asS'ProfileMode'
p1923
(lp1924
g37
asS'make_option'
p1925
(lp1926
g191
asg559
(lp1927
g79
ag136
ag31
ag557
aS'events'
p1928
asg1081
(lp1929
g61
ag62
ag25
asg1182
(lp1930
g477
asS'PerformLinker'
p1931
(lp1932
g37
asS'Generic'
p1933
(lp1934
g37
asS'SourceFile'
p1935
(lp1936
g642
asS'RecursiveGrammarException'
p1937
(lp1938
g58
asS'Subscript'
p1939
(lp1940
g65
ag66
asS'BdbQuit'
p1941
(lp1942
g1413
asS'cvmat'
p1943
(lp1944
g1296
asS'InvalidManifest'
p1945
(lp1946
g777
asS'Suppress'
p1947
(lp1948
g58
asS'DocTestRunner'
p1949
(lp1950
g82
asg313
(lp1951
g91
ag92
ag93
ag94
asS'PyCompileError'
p1952
(lp1953
S'py_compile'
p1954
asg1109
(lp1955
g61
ag62
ag25
asS'HostNotFound'
p1956
(lp1957
g233
asS'Traceback'
p1958
(lp1959
S'inspect'
p1960
asg1344
(lp1961
g136
asS'Record'
p1962
(lp1963
g537
asg1461
(lp1964
g498
asS'p_float'
p1965
(lp1966
g47
asg1041
(lp1967
g61
ag62
ag25
asS'TokenConverter'
p1968
(lp1969
g58
asS'Options'
p1970
(lp1971
g656
asg348
(lp1972
g91
ag92
ag93
ag94
asg958
(lp1973
g172
asS'resource'
p1974
(lp1975
S'struct_rusage'
p1976
asS'Linker'
p1977
(lp1978
g37
asg1218
(lp1979
g16
asg66
(lp1980
S'Add'
p1981
aS'And'
p1982
aS'Assert'
p1983
aS'Assign'
p1984
aS'Attribute'
p1985
aS'AugAssign'
p1986
aS'AugLoad'
p1987
aS'AugStore'
p1988
aS'BinOp'
p1989
aS'BitAnd'
p1990
aS'BitOr'
p1991
ag755
aS'BoolOp'
p1992
aS'Break'
p1993
aS'Call'
p1994
aS'ClassDef'
p1995
aS'Compare'
p1996
aS'Continue'
p1997
aS'Del'
p1998
aS'Delete'
p1999
ag880
aS'DictComp'
p2000
aS'Div'
p2001
ag240
aS'Eq'
p2002
aS'ExceptHandler'
p2003
aS'Exec'
p2004
ag1260
ag1750
aS'ExtSlice'
p2005
aS'FloorDiv'
p2006
aS'For'
p2007
ag1913
ag1832
ag1634
ag83
aS'GtE'
p2008
aS'If'
p2009
ag1583
ag1724
aS'ImportFrom'
p2010
aS'In'
p2011
ag1263
ag1499
ag891
aS'Is'
p2012
aS'IsNot'
p2013
aS'LShift'
p2014
aS'Lambda'
p2015
aS'List'
p2016
aS'ListComp'
p2017
aS'Load'
p2018
ag369
ag1706
aS'Mod'
p2019
ag1598
aS'Mult'
p2020
aS'Name'
p2021
aS'NodeTransformer'
p2022
ag391
aS'Not'
p2023
aS'NotEq'
p2024
ag1226
aS'Num'
p2025
aS'Or'
p2026
ag1845
aS'Pass'
p2027
aS'Pow'
p2028
aS'Print'
p2029
aS'RShift'
p2030
aS'Raise'
p2031
aS'Repr'
p2032
aS'Return'
p2033
ag703
aS'SetComp'
p2034
aS'Slice'
p2035
ag1292
aS'Store'
p2036
ag270
aS'Sub'
p2037
ag1939
aS'Suite'
p2038
ag1012
aS'TryFinally'
p2039
aS'Tuple'
p2040
aS'UAdd'
p2041
aS'USub'
p2042
aS'UnaryOp'
p2043
aS'While'
p2044
aS'With'
p2045
ag1620
ag448
aS'arguments'
p2046
ag63
ag1137
ag1005
aS'excepthandler'
p2047
ag708
aS'expr_context'
p2048
ag706
aS'mod'
p2049
ag456
aS'slice'
p2050
ag1683
aS'unaryop'
p2051
asg1030
(lp2052
g61
ag62
ag25
asS'RProp'
p2053
(lp2054
S'downhill'
p2055
asS'ppp_Py_ssize_t'
p2056
(lp2057
g47
asS'CommonRequestDescriptorsMixin'
p2058
(lp2059
g6
asS'device_local_mem_type'
p2060
(lp2061
g31
asg1869
(lp2062
g79
asS'InvalidRequest'
p2063
(lp2064
g55
asS'Combine'
p2065
(lp2066
g58
asS'command_execution_status'
p2067
(lp2068
g31
asg400
(lp2069
g9
ag10
asS'array'
p2070
(lp2071
S'ArrayType'
p2072
ag2070
ag2070
asg1993
(lp2073
g65
ag66
asS'IResourceProvider'
p2074
(lp2075
g717
asS'KeywordNotExpected'
p2076
(lp2077
g92
ag93
asS'AuthorizationMixin'
p2078
(lp2079
g6
asg2043
(lp2080
g65
ag66
asg1037
(lp2081
g61
ag62
ag25
asg1887
(lp2082
g79
asS'Date'
p2083
(lp2084
g125
asS'internal_error'
p2085
(lp2086
g577
asS'Data'
p2087
(lp2088
S'plistlib'
p2089
asg991
(lp2090
g274
ag784
ag6
asS'BeautifulStoneSoup'
p2091
(lp2092
g13
asS'pyobjc_unicode'
p2093
(lp2094
g577
asg1760
(lp2095
g10
asS'ApplicationError'
p2096
(lp2097
g734
asg1038
(lp2098
g61
ag62
ag25
asg1039
(lp2099
g61
ag62
ag25
asg1160
(lp2100
g587
asS'Client'
p2101
(lp2102
g6
asS'copy'
p2103
(lp2104
g868
aS't'
asg620
(lp2105
g607
asg680
(lp2106
g97
asS'GraphMLReader'
p2107
(lp2108
g357
asS'p_Py_UCS4'
p2109
(lp2110
g47
asS'posix'
p2111
(lp2112
S'stat_result'
p2113
aS'statvfs_result'
p2114
asS'ShouldNotMatchKeyword'
p2115
(lp2116
g92
ag93
asS'BoundArguments'
p2117
(lp2118
S'funcsigs'
p2119
asg1868
(lp2120
g79
asS'RequirementParseError'
p2121
(lp2122
g717
asg1337
(lp2123
g136
asg1367
(lp2124
g705
ag37
asS'RemoteError'
p2125
(lp2126
g233
asS'ExitNow'
p2127
(lp2128
g254
asS'getpass'
p2129
(lp2130
S'GetPassWarning'
p2131
asg1017
(lp2132
g41
asg1994
(lp2133
g65
ag66
asg1492
(lp2134
g382
asg907
(lp2135
g645
asg431
(lp2136
g9
ag10
asS'platform_info'
p2137
(lp2138
g31
asS'formal_protocol'
p2139
(lp2140
g577
asS'NonCallableMagicMock'
p2141
(lp2142
g143
asg610
(lp2143
g607
asg1373
(lp2144
g705
ag1622
asg622
(lp2145
g607
asg2041
(lp2146
g65
ag66
asg88
(lp2147
g1905
aS'FunctionTestCase'
p2148
aS'SkipTest'
p2149
ag385
aS'TestLoader'
p2150
aS'TestProgram'
p2151
ag85
ag730
aS'TextTestResult'
p2152
aS'TextTestRunner'
p2153
ag1900
asg1198
(lp2154
g16
asg2021
(lp2155
g65
ag66
asS'compress'
p2156
(lp2157
g1027
asS'LanguageAccept'
p2158
(lp2159
g6
asS'mem_migration_flags'
p2160
(lp2161
g31
asg1341
(lp2162
g136
asS'colorama'
p2163
(lp2164
S'AnsiToWin32'
p2165
asS'migrate_mem_object_flags_ext'
p2166
(lp2167
g31
asg1339
(lp2168
g136
asg1340
(lp2169
g136
asg309
(lp2170
g91
ag92
ag93
ag94
asS'fileview'
p2171
(lp2172
S'virtualenv'
p2173
asS'Cache'
p2174
(lp2175
g125
asg1598
(lp2176
g37
ag65
ag66
ag784
ag712
asg1176
(lp2177
g477
asS'OperationalError'
p2178
(lp2179
g125
asg930
(lp2180
g172
asS'DistributionFile'
p2181
(lp2182
g642
asg1357
(lp2183
g136
asg1457
(lp2184
g498
asg138
(lp2185
g811
ag122
ag228
aS'date'
p2186
ag138
ag138
ag1562
ag139
ag140
asg1897
(lp2187
g79
asg2013
(lp2188
g65
ag66
asS'FigureCanvasBase'
p2189
(lp2190
g25
asg1274
(lp2191
g228
asg1460
(lp2192
g498
asS'Babyl'
p2193
(lp2194
g69
asS'PolarAxes'
p2195
(lp2196
g25
asS'cProfile'
p2197
(lp2198
S'Profile'
p2199
asS'VertexBuffer'
p2200
(lp2201
g306
asg2005
(lp2202
g65
ag66
asS'VCSClient'
p2203
(lp2204
g673
asS'Requirement'
p2205
(lp2206
g717
asg493
(lp2207
S'CertificateError'
p2208
ag1300
aS'Purpose'
p2209
aS'SSLContext'
p2210
aS'SSLEOFError'
p2211
ag491
ag916
aS'SSLSyscallError'
p2212
ag1578
aS'SSLWantWriteError'
p2213
aS'SSLZeroReturnError'
p2214
aS'closing'
p2215
ag188
ag1434
asS'ImmutableVaribale'
p2216
(lp2217
g92
ag93
asg1158
(lp2218
g587
asg460
(lp2219
g458
asS'gensim'
p2220
(lp2221
g619
asg609
(lp2222
g607
asg1346
(lp2223
g136
asS'TextCalendar'
p2224
(lp2225
g19
asg1719
(lp2226
S'Doc'
p2227
ag1717
aS'HTMLDoc'
p2228
aS'HTMLRepr'
p2229
aS'Helper'
p2230
aS'ModuleScanner'
p2231
ag2032
ag574
aS'TextDoc'
p2232
aS'TextRepr'
p2233
ag114
asg1985
(lp2234
g1960
ag65
ag66
asS'ConfigParserInterpolation'
p2235
(lp2236
g72
asS'NotLocked'
p2237
(lp2238
g753
asg1209
(lp2239
g16
asg19
(lp2240
g1454
aS'HTMLCalendar'
p2241
aS'IllegalMonthError'
p2242
ag1641
ag184
ag17
ag2224
aS'TimeEncoding'
p2243
asS'NetworkXNotImplemented'
p2244
(lp2245
g357
asg1640
(lp2246
g1438
ag1638
asg428
(lp2247
g9
ag10
asS'NetworkXUnbounded'
p2248
(lp2249
g357
asg2089
(lp2250
g2087
ag880
aS'DumbXMLWriter'
p2251
aS'Plist'
p2252
aS'PlistParser'
p2253
aS'PlistWriter'
p2254
asS'TitledHelpFormatter'
p2255
(lp2256
g191
asS'CompilerWarning'
p2257
(lp2258
g31
asg883
(lp2259
g876
asg827
(lp2260
g811
asS'SMTPServerDisconnected'
p2261
(lp2262
g180
asS'BabylMessage'
p2263
(lp2264
g69
asg423
(lp2265
g9
ag10
ag41
asg2113
(lp2266
S'os'
p2267
ag2111
asg692
(lp2268
g97
asg515
(lp2269
g249
asg1995
(lp2270
g65
ag66
asS'SvnClient'
p2271
(lp2272
g673
asg1206
(lp2273
g16
asS'Each'
p2274
(lp2275
g58
asg1784
(lp2276
g93
ag968
asS'DocBuildFile'
p2277
(lp2278
g642
asS'SMTPChannel'
p2279
(lp2280
g656
asg412
(lp2281
g9
ag10
asS'AvailableDistributions'
p2282
(lp2283
g717
asS'DateFormatter'
p2284
(lp2285
g25
asg351
(lp2286
g91
ag92
ag93
ag94
asS'pstats'
p2287
(lp2288
S'Stats'
p2289
aS'TupleComp'
p2290
asS'SMTPServer'
p2291
(lp2292
g656
asS'groupby'
p2293
(lp2294
g1027
asS'starmap'
p2295
(lp2296
g1027
asg531
(lp2297
g529
asg87
(lp2298
g1905
ag2148
ag2149
ag385
ag2150
ag2151
ag85
ag730
ag2152
ag2153
ag1900
asg1267
(lp2299
g228
asg338
(lp2300
g91
ag92
ag93
ag94
asS'Maildir'
p2301
(lp2302
g69
asS'CallableMixin'
p2303
(lp2304
g143
asS'ConversionSyntax'
p2305
(lp2306
g212
asS'varlist'
p2307
(lp2308
g577
asS'ppp_long'
p2309
(lp2310
g47
asg1884
(lp2311
g79
asS'RecordWithoutPickling'
p2312
(lp2313
g537
asS'ParseResults'
p2314
(lp2315
g58
asS'SequenceMatcher'
p2316
(lp2317
g1517
asS'struct_group'
p2318
(lp2319
S'grp'
p2320
asS'TreeNode'
p2321
(lp2322
g93
asg1307
(lp2323
g136
asS'FieldStorage'
p2324
(lp2325
g225
asg1216
(lp2326
g16
asS'Action'
p2327
(lp2328
g146
asS'FormContentDict'
p2329
(lp2330
g225
asg259
(lp2331
g257
asg1211
(lp2332
g16
asg952
(lp2333
g172
asg2035
(lp2334
g65
ag66
asg417
(lp2335
g9
ag10
asg1372
(lp2336
g705
asS'subprocess'
p2337
(lp2338
S'CalledProcessError'
p2339
aS'Popen'
p2340
asS'LocalProxy'
p2341
(lp2342
g6
asg340
(lp2343
g91
ag92
ag93
ag94
asg880
(lp2344
g65
ag66
ag498
ag876
ag58
ag2089
asg1276
(lp2345
g228
asS'pyexpat'
p2346
(lp2347
S'ExpatError'
p2348
aS'XMLParserType'
p2349
asg625
(lp2350
g868
ag623
aS'SpecialFileError'
p2351
asg911
(lp2352
g645
asg2199
(lp2353
g2197
aS'profile'
p2354
asg1666
(lp2355
g569
asg2229
(lp2356
g1719
asg2032
(lp2357
g65
ag66
ag1719
ag602
asg1225
(lp2358
g16
asg1083
(lp2359
g61
ag62
ag25
asg818
(lp2360
g811
asg2153
(lp2361
g87
ag88
asg2030
(lp2362
g65
ag66
asg2213
(lp2363
g493
asg1260
(lp2364
g65
ag66
ag228
asg954
(lp2365
g172
asg445
(lp2366
S'AddressValueError'
p2367
aS'IPv4Address'
p2368
aS'IPv4Interface'
p2369
ag443
aS'IPv6Address'
p2370
ag1560
aS'IPv6Network'
p2371
aS'NetmaskValueError'
p2372
asg682
(lp2373
g97
asg673
(lp2374
g1898
aS'GitClient'
p2375
aS'HgClient'
p2376
ag2271
ag671
ag2203
ag1469
asg1759
(lp2377
g10
asg1343
(lp2378
g136
asg683
(lp2379
g97
asg2012
(lp2380
g65
ag66
asS'PublicKey'
p2381
(lp2382
S'rsa'
p2383
asg2011
(lp2384
g37
ag65
ag66
asS'LineStart'
p2385
(lp2386
g58
asg455
(lp2387
g262
aS'count'
p2388
aS'imap'
p2389
ag1553
ag453
ag831
asg1378
(lp2390
g705
ag1732
ag2119
ag748
asS'ExtractionError'
p2391
(lp2392
g717
asS'context_info'
p2393
(lp2394
g31
asg1115
(lp2395
g61
asg912
(lp2396
g645
asS'MethodMissingError'
p2397
(lp2398
g92
ag93
asg1328
(lp2399
g136
asS'InteractiveInterpreter'
p2400
(lp2401
g1242
asS'mmap'
p2402
(lp2403
g2402
ag2402
asg950
(lp2404
g172
asS'RobustInsanelyWackAssHTMLParser'
p2405
(lp2406
g13
asS'astor'
p2407
(lp2408
S'CodeToAst'
p2409
aS'ExplicitNodeVisitor'
p2410
aS'TreeWalk'
p2411
asS'addressing_mode'
p2412
(lp2413
g31
asg1105
(lp2414
g61
ag62
ag25
asS'Completer'
p2415
(lp2416
S'rlcompleter'
p2417
asS'Annotation'
p2418
(lp2419
g634
ag25
asg1368
(lp2420
g705
asg1202
(lp2421
g16
asS'nosuchclass_error'
p2422
(lp2423
g577
asS'CommandError'
p2424
(lp2425
g119
asS'ConversionError'
p2426
(lp2427
g1693
asg560
(lp2428
g557
asg419
(lp2429
g9
ag10
asS'Example'
p2430
(lp2431
g82
asS'InterpolationEngine'
p2432
(lp2433
g72
asS'binary_type'
p2434
(lp2435
g1393
asS'fortune'
p2436
(lp2437
S'CommandLineParser'
p2438
asS'RawDescriptionHelpFormatter'
p2439
(lp2440
g146
asS'CythonMetaType'
p2441
(lp2442
g47
asS'FakeList'
p2443
(lp2444
g537
asg1902
(lp2445
S'DeprecatedTest'
p2446
ag2149
ag1900
aS'run_exit'
p2447
asS'Chunk'
p2448
(lp2449
S'chunk'
p2450
ag983
aS'aifc'
p2451
asS'macpath'
p2452
(lp2453
S'norm_error'
p2454
asg1883
(lp2455
g79
asg159
(lp2456
g152
asS'ParseSyntaxException'
p2457
(lp2458
g58
asS'rrule'
p2459
(lp2460
g25
asg1071
(lp2461
g61
ag62
ag25
asg2050
(lp2462
g65
ag66
asg1613
(lp2463
g793
asS'ImmutableList'
p2464
(lp2465
g6
asg1350
(lp2466
g136
asg1359
(lp2467
g136
asS'UiLoader'
p2468
(lp2469
g44
asg414
(lp2470
g9
ag10
asg510
(lp2471
g249
asS'LinearLocator'
p2472
(lp2473
g25
asS'UnexpectedException'
p2474
(lp2475
g82
asg1275
(lp2476
g228
asS'timeout'
p2477
(lp2478
g188
asS'altgraph'
p2479
(lp2480
S'GraphError'
p2481
asS'LogLocator'
p2482
(lp2483
g25
asS'LockError'
p2484
(lp2485
g753
ag577
asS'ModuleInfo'
p2486
(lp2487
g1960
asS'Signature'
p2488
(lp2489
g2119
asg202
(lp2490
g192
asS'ImmutableMultiDict'
p2491
(lp2492
g6
asS'UnixMailbox'
p2493
(lp2494
g69
asg1322
(lp2495
g136
asg687
(lp2496
g97
asg1321
(lp2497
g136
asS'HtmlDiff'
p2498
(lp2499
g1517
asS'BotoCoreObject'
p2500
(lp2501
S'botocore'
p2502
asS'dict_property'
p2503
(lp2504
g577
asg1323
(lp2505
g136
asg1278
(lp2506
g228
ag125
asS'ZMQVersionError'
p2507
(lp2508
g639
asg688
(lp2509
g16
ag639
ag97
ag69
asg2267
(lp2510
S'error'
p2511
ag2113
ag2114
asg532
(lp2512
g37
ag529
asS'ScalarFormatter'
p2513
(lp2514
g25
asS'IndentedHelpFormatter'
p2515
(lp2516
g191
asg850
(lp2517
g696
ag864
asg1375
(lp2518
g705
asS'JSONDecoder'
p2519
(lp2520
g701
asg1981
(lp2521
g65
ag66
asg456
(lp2522
S'attrgetter'
p2523
ag453
aS'methodcaller'
p2524
ag65
ag66
asS'Empty'
p2525
(lp2526
g58
asg1864
(lp2527
g79
asS'gl_context_info'
p2528
(lp2529
g31
asg1355
(lp2530
g136
asg1050
(lp2531
g61
ag62
ag25
asg1458
(lp2532
g498
asg1788
(lp2533
g93
ag968
asg1104
(lp2534
g61
ag62
ag25
asg1174
(lp2535
g477
asS'CircuitExtensionFailed'
p2536
(lp2537
g55
asS'WorkingSet'
p2538
(lp2539
g717
asg1648
(lp2540
g233
ag1142
asS'pp_complex'
p2541
(lp2542
g47
asS'GivingUp'
p2543
(lp2544
g92
ag93
asg868
(lp2545
g753
ag1141
ag876
ag31
aS'binascii'
p2546
ag865
ag2103
ag625
ag553
ag92
ag125
ag93
ag1582
ag864
ag983
ag366
ag2451
aS'locale'
p2547
ag1693
ag69
asg1984
(lp2548
g65
ag66
asS'p_longdoublecomplex'
p2549
(lp2550
g47
asg1310
(lp2551
g136
ag31
asS'program_binary_type'
p2552
(lp2553
g31
asg1490
(lp2554
g382
asg2233
(lp2555
g1719
asg75
(lp2556
g73
ag72
asg2048
(lp2557
g65
ag66
asS'InternalError'
p2558
(lp2559
g92
ag125
ag93
asg1573
(lp2560
g366
asg195
(lp2561
g192
asS'ppp_short'
p2562
(lp2563
g47
asg1987
(lp2564
g65
ag66
asS'ProtocolError'
p2565
(lp2566
g577
ag55
asS'Real'
p2567
(lp2568
g670
asS'MissingInterpolationOption'
p2569
(lp2570
g72
asS'takewhile'
p2571
(lp2572
g1027
asg2371
(lp2573
g445
asg283
(lp2574
g275
ag93
ag94
asS'ppp_longlong'
p2575
(lp2576
g47
asg1896
(lp2577
g79
asg2047
(lp2578
g65
ag66
asS'Slider'
p2579
(lp2580
g25
asg2209
(lp2581
g493
asS'EntryPoint'
p2582
(lp2583
g717
asS'MmdfMailbox'
p2584
(lp2585
g69
asg1102
(lp2586
g61
ag62
ag25
asg817
(lp2587
g811
asg937
(lp2588
g172
asS'mimetypes'
p2589
(lp2590
S'MimeTypes'
p2591
asg1704
(lp2592
g266
asg1311
(lp2593
g136
asg1103
(lp2594
g61
ag62
ag25
asS'MultiDiGraph'
p2595
(lp2596
g357
asg2368
(lp2597
g445
asg1380
(lp2598
g705
asg1221
(lp2599
g16
asS'RobustXMLParser'
p2600
(lp2601
g13
asS'DivisionUndefined'
p2602
(lp2603
g212
asg1203
(lp2604
g16
asS'SocketType'
p2605
(lp2606
g188
asS'DecimalException'
p2607
(lp2608
g212
asS'ArgInfo'
p2609
(lp2610
g1960
asS'ItimerError'
p2611
(lp2612
S'signal'
p2613
asg1129
(lp2614
g246
asg511
(lp2615
g61
ag62
ag249
ag25
asg2006
(lp2616
g65
ag66
asg407
(lp2617
g9
ag10
asS'Au_write'
p2618
(lp2619
g1582
asS'ppp_bint'
p2620
(lp2621
g47
asg639
(lp2622
g1409
ag1304
aS'ContextTerminated'
p2623
aS'Frame'
p2624
ag688
aS'MessageTracker'
p2625
aS'NotDone'
p2626
ag1405
aS'Socket'
p2627
aS'Stopwatch'
p2628
ag637
ag1497
aS'ZMQError'
p2629
ag2507
asg1830
(lp2630
g729
asS'DataFormatError'
p2631
(lp2632
g233
asg881
(lp2633
g876
asg690
(lp2634
g97
asS'MultipleLocator'
p2635
(lp2636
g25
asg1116
(lp2637
g61
ag62
ag25
asg1810
(lp2638
g1243
asS'Headers'
p2639
(lp2640
g6
asg1990
(lp2641
g65
ag66
asg1464
(lp2642
g498
asS'Incomplete'
p2643
(lp2644
g2546
asg1119
(lp2645
g61
ag62
ag25
asS'DefaultProvider'
p2646
(lp2647
g717
asg977
(lp2648
g971
asg1575
(lp2649
g366
asS'EnumMeta'
p2650
(lp2651
g1732
asg162
(lp2652
g152
asS'ppp_double'
p2653
(lp2654
g47
asS'dummy_threading'
p2655
(lp2656
S'Thread'
p2657
aS'local'
p2658
asg791
(lp2659
g787
asg1863
(lp2660
g79
asS'DocTestFailure'
p2661
(lp2662
g82
asg1214
(lp2663
g16
asg1488
(lp2664
g382
asg501
(lp2665
g249
asg1268
(lp2666
g228
asS'ParseFatalException'
p2667
(lp2668
g58
asS'object_property'
p2669
(lp2670
g577
asS'Circle'
p2671
(lp2672
g25
asg1865
(lp2673
g79
asg22
(lp2674
g668
ag20
ag1673
asS'YearLocator'
p2675
(lp2676
g25
asg1954
(lp2677
g1952
asS'Aifc_write'
p2678
(lp2679
g2451
asg633
(lp2680
g630
aS'NotFoundError'
p2681
aS'Script'
p2682
asS'device_mem_cache_type'
p2683
(lp2684
g31
asS'InvalidOperation'
p2685
(lp2686
g212
asg1088
(lp2687
g61
ag62
ag25
asg1052
(lp2688
g61
ag62
ag25
asS'OnlyOnce'
p2689
(lp2690
g58
asg1381
(lp2691
g705
asg191
(lp2692
S'AmbiguousOptionError'
p2693
aS'BadOptionError'
p2694
ag1522
ag2515
aS'OptParseError'
p2695
ag1463
ag189
ag852
aS'OptionError'
p2696
aS'OptionGroup'
p2697
aS'OptionParser'
p2698
ag900
ag2255
ag1238
ag1925
asS'pp_char'
p2699
(lp2700
g47
asg1611
(lp2701
g793
asS'LockFailed'
p2702
(lp2703
g753
asg974
(lp2704
g971
asS'program_kind'
p2705
(lp2706
g31
asg973
(lp2707
g971
asg76
(lp2708
g76
ag76
ag1799
ag1393
aS'interpy.codec.register'
p2709
ag73
aS'pygments'
p2710
ag1167
ag82
ag477
asS'IndexDateFormatter'
p2711
(lp2712
g25
asg82
(lp2713
g80
aS'DocFileCase'
p2714
ag1602
aS'DocTestCase'
p2715
ag2661
aS'DocTestFinder'
p2716
ag1918
ag1949
ag2430
aS'OutputChecker'
p2717
aS'SkipDocTestCase'
p2718
ag76
ag920
ag1034
ag2474
asS'HourLocator'
p2719
(lp2720
g25
asg2481
(lp2721
g2479
asg1113
(lp2722
g61
ag62
ag25
asS'NetworkXNoPath'
p2723
(lp2724
g357
asS'ReadlineInput'
p2725
(lp2726
g634
asg1112
(lp2727
g61
ag62
ag25
asg28
(lp2728
S'kevent'
p2729
ag26
asS'StackObject'
p2730
(lp2731
g398
asS'wkref'
p2732
(lp2733
g58
asS'ppp_int'
p2734
(lp2735
g47
asg502
(lp2736
g249
asg2411
(lp2737
g2407
asg200
(lp2738
g192
asg114
(lp2739
g705
ag1719
ag112
ag676
asg1107
(lp2740
g61
ag62
ag25
asg2151
(lp2741
g87
ag88
asg1111
(lp2742
g61
ag62
ag25
asg1046
(lp2743
g61
ag62
ag25
asS'OperationFailed'
p2744
(lp2745
g55
asg1110
(lp2746
g61
ag62
ag25
asS'kernel_arg_info'
p2747
(lp2748
g31
asg2230
(lp2749
g1719
asg777
(lp2750
g1945
aS'Manifest'
p2751
ag1170
ag775
ag1772
asg712
(lp2752
g1598
ag710
asS'SourceBuildFile'
p2753
(lp2754
g642
asg2150
(lp2755
g87
ag88
asg1213
(lp2756
g16
asg2715
(lp2757
g82
asS'Normalize'
p2758
(lp2759
g25
asg1256
(lp2760
g228
asg196
(lp2761
g192
asg670
(lp2762
g668
aS'Complex'
p2763
aS'Integral'
p2764
aS'Number'
p2765
aS'Rational'
p2766
ag2567
ag1673
asS'Norm'
p2767
(lp2768
g537
asg2627
(lp2769
g639
asg1882
(lp2770
g79
asg1491
(lp2771
g382
asS'HTMLBuilder'
p2772
(lp2773
g6
asg2208
(lp2774
g493
asS'mem_object_type'
p2775
(lp2776
g31
asS'MarkerEvaluation'
p2777
(lp2778
g717
asg553
(lp2779
g902
ag551
aS'DictWriter'
p2780
ag868
aS'Sniffer'
p2781
ag1532
aS'excel_tab'
p2782
asg352
(lp2783
g91
ag92
ag93
ag94
asg427
(lp2784
g9
ag10
asS'ZipProvider'
p2785
(lp2786
g717
asS'NannyEvent'
p2787
(lp2788
g31
asg871
(lp2789
g865
asg2227
(lp2790
g1719
asS'NotSupportedError'
p2791
(lp2792
g125
asg2016
(lp2793
g65
ag66
asg1082
(lp2794
g61
ag1141
asg1997
(lp2795
g65
ag66
asg2033
(lp2796
g65
ag66
asg146
(lp2797
g2327
aS'ArgumentDefaultsHelpFormatter'
p2798
ag929
aS'ArgumentParser'
p2799
aS'ArgumentTypeError'
p2800
ag216
ag1522
aS'Namespace'
p2801
ag2439
ag144
asg1098
(lp2802
g61
ag62
ag25
asg1264
(lp2803
g228
asg867
(lp2804
g865
asg169
(lp2805
g152
asS'ifilterfalse'
p2806
(lp2807
g1027
asg1787
(lp2808
g93
ag968
asg2241
(lp2809
g19
asS'ZeroOrMore'
p2810
(lp2811
g58
asS'IntegrityError'
p2812
(lp2813
g125
asS'typedef'
p2814
(lp2815
g47
asg949
(lp2816
g172
asS'BaseResponse'
p2817
(lp2818
g6
asS'FileStorage'
p2819
(lp2820
g6
asS'selenium'
p2821
(lp2822
g2821
ag2821
asS'strpdate2num'
p2823
(lp2824
g25
asg679
(lp2825
g97
asS'BlockFinder'
p2826
(lp2827
g1960
asg2020
(lp2828
g65
ag66
asg2046
(lp2829
g65
ag66
asS'DataError'
p2830
(lp2831
g734
ag125
asg337
(lp2832
g91
ag92
ag93
ag94
asg1986
(lp2833
g65
ag66
asg2709
(lp2834
g76
asg842
(lp2835
g696
asg62
(lp2836
g1029
ag1030
ag1031
ag1032
ag511
ag1033
ag1034
ag1035
ag1037
ag1038
ag1039
ag1040
ag1041
ag1042
ag1043
ag1044
ag1045
ag1046
ag1047
ag1048
ag1050
ag1051
ag1052
ag229
ag1053
ag1054
ag1055
ag1056
ag1057
ag1058
ag1059
ag1060
ag1023
ag1062
ag1063
ag1064
ag1065
ag1066
ag1067
ag1068
ag1069
ag1070
ag1071
ag697
ag1073
ag1074
ag1075
ag1076
ag1077
ag1078
ag1079
ag1080
ag1081
ag1083
ag1084
ag1085
ag1086
ag1087
ag1088
ag1089
ag1090
ag1091
ag1092
ag1093
ag1094
ag1095
ag570
ag1096
ag1097
ag1098
ag635
ag1099
ag1100
ag393
ag1102
ag1103
ag485
ag1104
ag1105
ag1106
ag1107
ag1108
ag1109
ag1110
ag1111
ag1112
ag1113
ag1114
ag1116
ag204
ag1117
ag1118
ag478
ag59
ag1119
asg1326
(lp2837
g136
asg944
(lp2838
g172
asg684
(lp2839
g97
asS'GoToColumn'
p2840
(lp2841
g58
asS'RMSProp'
p2842
(lp2843
g2055
asg1891
(lp2844
g79
asg1928
(lp2845
g559
aS'Interval'
p2846
aS'Observer'
p2847
asS'ReleaseCache'
p2848
(lp2849
g642
asS'pp_float'
p2850
(lp2851
g47
asg1889
(lp2852
g79
asg516
(lp2853
g249
asg2801
(lp2854
g146
asg1312
(lp2855
g136
ag31
asg2763
(lp2856
g670
asS'device_type'
p2857
(lp2858
g31
asS'MaildirMessage'
p2859
(lp2860
g69
asS'p_void'
p2861
(lp2862
g47
asS'FixedFormatter'
p2863
(lp2864
g25
asS'NameFinder'
p2865
(lp2866
g632
asS'IndexLocator'
p2867
(lp2868
g25
asg2410
(lp2869
g2407
asg869
(lp2870
g865
asg1401
(lp2871
g457
ag93
ag968
asS'pyquery'
p2872
(lp2873
S'PyQuery'
p2874
asg65
(lp2875
g1981
ag1982
ag1983
ag1984
ag1985
ag1986
ag1987
ag1988
ag1989
ag1990
ag1991
ag755
ag1992
ag1993
ag1994
ag1995
ag1996
ag1997
ag1998
ag1999
ag880
ag2000
ag2001
ag240
ag2002
ag2003
ag2004
ag1260
ag1750
ag2005
ag2006
ag2007
ag1913
ag1832
ag1634
ag83
ag2008
ag2009
ag1583
ag1724
ag2010
ag2011
ag1263
ag1499
ag891
ag2012
ag2013
ag2014
ag2015
ag2016
ag2017
ag2018
ag369
ag1706
ag2019
ag1598
ag2020
ag2021
ag2022
ag391
ag2023
ag2024
ag1226
ag2025
ag2026
ag1845
ag2027
ag2028
ag2029
ag2030
ag2031
ag2032
ag2033
ag703
ag2034
ag2035
ag2036
ag270
ag2037
ag1939
ag2038
ag1012
ag2039
ag2040
ag2041
ag2042
ag2043
ag2044
ag2045
ag1620
ag448
ag2046
ag63
ag1137
ag1005
ag2047
ag708
ag2048
ag706
ag2049
ag456
ag2050
ag1683
ag2051
asS'Builder'
p2876
(lp2877
g72
asS'basestring'
p2878
(lp2879
g484
asS'Button'
p2880
(lp2881
g25
asg2232
(lp2882
g1719
asg2231
(lp2883
g1719
asg1315
(lp2884
g136
asS'Line2D'
p2885
(lp2886
g25
asg2800
(lp2887
g146
asg1999
(lp2888
g65
ag66
asg306
(lp2889
S'Figure'
p2890
ag1308
ag304
ag2200
aS'Window'
p2891
asg1712
(lp2892
g1710
asg964
(lp2893
g172
asg183
(lp2894
g181
aS'PyAudio'
p2895
aS'Stream'
p2896
aS'paMacCoreStreamInfo'
p2897
asg2027
(lp2898
g65
ag66
asg2002
(lp2899
g65
ag66
asg941
(lp2900
g172
asg843
(lp2901
g696
asg2022
(lp2902
g65
ag66
asS'Axes'
p2903
(lp2904
g25
asg1093
(lp2905
g61
ag62
ag25
asg254
(lp2906
g2127
ag252
aS'dispatcher_with_send'
p2907
ag1495
aS'file_wrapper'
p2908
asg199
(lp2909
g192
asS'LockTimeout'
p2910
(lp2911
g753
asg1127
(lp2912
g246
asS'NullWriter'
p2913
(lp2914
g592
asg1204
(lp2915
g16
asS'ConfigspecError'
p2916
(lp2917
g72
asg1646
(lp2918
g1142
asg416
(lp2919
g9
ag10
asS'CombinedMultiDict'
p2920
(lp2921
g6
asg2846
(lp2922
g1928
asS'selector'
p2923
(lp2924
g577
asg678
(lp2925
g97
asg2694
(lp2926
g191
asg1056
(lp2927
g61
ag62
ag25
asS'Starttokens'
p2928
(lp2929
g92
ag93
asg2025
(lp2930
g65
ag66
asg1101
(lp2931
g61
asS'WindowsPath'
p2932
(lp2933
g484
asS'GraphMLWriter'
p2934
(lp2935
g357
asS'CythonDotParallel'
p2936
(lp2937
g47
asg2891
(lp2938
g306
asS'CommonResponseDescriptorsMixin'
p2939
(lp2940
g6
asg1888
(lp2941
g79
asg314
(lp2942
g91
ag92
ag93
ag94
asg50
(lp2943
S'BZ2Compressor'
p2944
ag48
ag1606
asS'MovedModule'
p2945
(lp2946
g1393
asS'FancyModule'
p2947
(lp2948
g37
asg1881
(lp2949
g79
asS'ppp_char'
p2950
(lp2951
g47
asg1317
(lp2952
g136
asS'WWWAuthenticateMixin'
p2953
(lp2954
g6
asg1316
(lp2955
g136
asg632
(lp2956
g630
ag2865
asg2045
(lp2957
g65
ag66
asg884
(lp2958
g876
asS'MagicProxy'
p2959
(lp2960
g143
asg463
(lp2961
g461
ag1546
asg1693
(lp2962
g2426
ag868
ag1691
aS'Unpacker'
p2963
asg354
(lp2964
g91
ag92
ag93
ag94
asS'p_bint'
p2965
(lp2966
g47
asg1570
(lp2967
g366
asg634
(lp2968
g2418
ag2799
ag630
ag778
ag2725
ag1424
ag534
asg34
(lp2969
g32
asg1489
(lp2970
g382
asg619
(lp2971
g274
ag2502
ag2220
ag607
asS'IterableUserDict'
p2972
(lp2973
g747
asS'autorelease_pool'
p2974
(lp2975
g577
asg1867
(lp2976
g79
asS'PrepareProtocol'
p2977
(lp2978
g125
asg2716
(lp2979
g82
asg37
(lp2980
S'Apply'
p2981
aS'CLinker'
p2982
ag732
aS'ComponentDict'
p2983
ag1817
aS'Composite'
p2984
ag1555
ag1367
aS'DualLinker'
p2985
ag1422
ag2947
aS'FunctionGraph'
p2986
ag532
ag1933
ag2011
aS'InconsistencyError'
p2987
ag1977
ag1018
aS'Member'
p2988
aS'Method'
p2989
aS'Mode'
p2990
ag1598
aS'Op'
p2991
ag1244
aS'OpWiseCLinker'
p2992
ag35
ag1752
ag1761
ag1845
ag1931
ag1923
ag918
aS'SymbolicInput'
p2993
ag1452
ag561
ag284
aS'object2'
p2994
asg2009
(lp2995
g65
ag66
asg794
(lp2996
g514
asg424
(lp2997
g9
ag10
asg1210
(lp2998
g16
asg1085
(lp2999
g61
ag62
ag25
asg1253
(lp3000
g228
asg339
(lp3001
g91
ag92
ag93
ag94
asS'mem_flags'
p3002
(lp3003
g31
asg1224
(lp3004
g16
asS'InteractiveConsole'
p3005
(lp3006
g1242
asg357
(lp3007
g1001
aS'Graph'
p3008
ag2107
ag2934
ag2595
ag1615
ag1671
ag922
aS'NetworkXException'
p3009
ag2723
ag2244
ag355
aS'NetworkXTreewidthBoundExceeded'
p3010
ag2248
ag1667
asg1259
(lp3011
g228
asS'Forward'
p3012
(lp3013
g58
asg2038
(lp3014
g65
ag66
asg1681
(lp3015
g980
asS'MemoizedZipManifests'
p3016
(lp3017
g717
asg44
(lp3018
S'DisconnectContextManager'
p3019
ag42
ag2468
asS'Base'
p3020
(lp3021
g143
asg180
(lp3022
S'SMTPAuthenticationError'
p3023
ag904
ag178
aS'SMTPException'
p3024
ag1385
aS'SMTPRecipientsRefused'
p3025
aS'SMTPResponseException'
p3026
aS'SMTPSenderRefused'
p3027
ag2261
ag1009
asg1467
(lp3028
g498
asg1992
(lp3029
g65
ag66
asg2044
(lp3030
g65
ag66
asS'combinations'
p3031
(lp3032
g1027
asg2963
(lp3033
g1693
asS'p_longdouble'
p3034
(lp3035
g47
asg789
(lp3036
g787
asS'bytes'
p3037
(lp3038
g25
asS'InvalidArguments'
p3039
(lp3040
g55
asg506
(lp3041
g249
asS'SerialBase'
p3042
(lp3043
g222
asg2591
(lp3044
g2589
asg2007
(lp3045
g65
ag66
asg1231
(lp3046
g1228
asg2547
(lp3047
g868
asg1356
(lp3048
g136
asg1324
(lp3049
g136
asS'LogFormatterMathtext'
p3050
(lp3051
g25
asg2626
(lp3052
g639
asS'ImmutableTypeConversionDict'
p3053
(lp3054
g6
asS'AlreadyLocked'
p3055
(lp3056
g753
asg1257
(lp3057
g228
asg318
(lp3058
g91
ag92
ag93
ag94
asg484
(lp3059
g494
ag565
aS'PurePath'
p3060
aS'PurePosixPath'
p3061
ag482
ag1379
ag2932
ag2523
ag2878
asg1703
(lp3062
g266
asg2003
(lp3063
g65
ag66
asS'Href'
p3064
(lp3065
g6
asg2165
(lp3066
g2163
asg592
(lp3067
S'AbstractFormatter'
p3068
aS'AbstractWriter'
p3069
ag590
aS'NullFormatter'
p3070
ag2913
asg319
(lp3071
g91
ag92
ag93
ag94
asg864
(lp3072
g868
aS'Netrc'
p3073
ag848
ag849
ag850
ag851
asg940
(lp3074
g172
asg1361
(lp3075
g136
asg69
(lp3076
g2193
ag67
ag2263
ag868
aS'ExternalClashError'
p3077
ag1543
aS'MHMailbox'
p3078
ag1426
ag294
aS'Mailbox'
p3079
ag2301
ag2859
ag688
ag2584
ag296
aS'NotEmptyError'
p3080
ag1804
ag2493
aS'mbox'
p3081
ag1780
asg3080
(lp3082
g69
asg2339
(lp3083
g2337
asg1650
(lp3084
g103
ag1650
ag1650
asg2348
(lp3085
g2346
asg995
(lp3086
g274
asg344
(lp3087
g91
ag92
ag93
ag94
asS'spamdict'
p3088
(lp3089
S'xxsubtype'
p3090
asS'LinAlgError'
p3091
(lp3092
g25
asg1066
(lp3093
g61
ag62
ag25
asS'pp_longlong'
p3094
(lp3095
g47
asg602
(lp3096
g600
ag2032
ag1739
asS'ParseException'
p3097
(lp3098
g58
asg1169
(lp3099
g1167
asg2717
(lp3100
g82
asg2782
(lp3101
g553
asg1273
(lp3102
g228
asg933
(lp3103
g172
asS'Devnull'
p3104
(lp3105
g656
asS'Authorization'
p3106
(lp3107
g6
asg13
(lp3108
g255
ag13
ag13
ag2091
aS'CData'
p3109
aS'Comment'
p3110
aS'Declaration'
p3111
ag1907
ag996
aS'NavigableString'
p3112
aS'PageElement'
p3113
aS'ProcessingInstruction'
p3114
aS'ResultSet'
p3115
aS'RobustHTMLParser'
p3116
ag2405
aS'RobustWackAssHTMLParser'
p3117
ag2600
aS'SGMLParseError'
p3118
ag1766
aS'SimplifyingSOAPParser'
p3119
aS'SoupStrainer'
p3120
aS'StopParsing'
p3121
ag1636
ag11
asS'informal_protocol'
p3122
(lp3123
g577
asS'ProgrammingError'
p3124
(lp3125
g125
asg1325
(lp3126
g136
asg2698
(lp3127
g191
ag2354
asg1665
(lp3128
g569
asg1354
(lp3129
g136
asg2714
(lp3130
g82
asg1353
(lp3131
g136
asg2798
(lp3132
g146
asg1352
(lp3133
g136
asS'AcceptMixin'
p3134
(lp3135
g6
asg2697
(lp3136
g191
asg2389
(lp3137
g1027
ag455
asS'DebuggingServer'
p3138
(lp3139
g656
asg1705
(lp3140
g266
asg398
(lp3141
g1768
ag396
ag2730
asg219
(lp3142
g217
asg404
(lp3143
g9
ag143
ag10
asg1462
(lp3144
g498
ag58
asg2511
(lp3145
g2267
asg3081
(lp3146
g69
asg748
(lp3147
g745
ag1378
asg415
(lp3148
g9
ag10
asg2072
(lp3149
g47
ag2070
asg616
(lp3150
g729
ag2173
ag607
asS'ppp_complex'
p3151
(lp3152
g47
asS'AccessDenied'
p3153
(lp3154
g1141
asS'WeekdayLocator'
p3155
(lp3156
g25
asg269
(lp3157
g1535
ag377
ag267
aS'WriteBatch'
p3158
asg3118
(lp3159
g13
asg125
(lp3160
S'Binary'
p3161
ag2174
aS'Connection'
p3162
ag595
ag2830
ag123
ag2083
ag868
ag2812
ag213
ag2558
ag2791
ag2178
ag1549
ag2977
ag3124
aS'Row'
p3163
aS'Statement'
p3164
ag1122
ag1278
ag353
asS'p_complex'
p3165
(lp3166
g47
asg2693
(lp3167
g191
asS'SubplotTool'
p3168
(lp3169
g25
asS'CPyUserInterface'
p3170
(lp3171
g537
asg1874
(lp3172
g79
asS'UnreprError'
p3173
(lp3174
g72
asg2623
(lp3175
g639
asg2890
(lp3176
g306
ag25
asS'PrivateKey'
p3177
(lp3178
g2383
asg1895
(lp3179
g79
ag58
asg1988
(lp3180
g65
ag66
asg830
(lp3181
g811
asg1197
(lp3182
g16
asg2131
(lp3183
g2129
asg212
(lp3184
S'Clamped'
p3185
ag1304
ag2305
ag1485
ag2607
ag856
ag469
ag1604
ag2602
ag250
ag234
ag2685
aS'Overflow'
p3186
ag210
aS'Subnormal'
p3187
aS'Underflow'
p3188
asg3161
(lp3189
g125
asg831
(lp3190
g1027
ag455
ag811
asg25
(lp3191
g2418
ag522
ag743
ag969
ag2903
ag2880
ag2671
ag1029
ag1030
ag2284
ag298
ag1689
ag2890
ag2189
ag2863
aS'FixedLocator'
p3192
ag1632
ag613
ag772
ag1835
ag2719
ag2711
ag2867
ag3091
ag2885
ag2472
aS'Locator'
p3193
ag1797
aS'LogFormatterExponent'
p3194
ag3050
ag2482
ag1031
ag649
ag1764
ag1032
aS'MonthLocator'
p3195
ag2635
ag2758
ag3070
aS'NullLocator'
p3196
ag511
ag2195
aS'Polygon'
p3197
ag383
ag1033
aS'Rectangle'
p3198
ag2513
aS'SecondLocator'
p3199
ag2579
ag23
ag3168
ag1034
ag290
ag1822
ag1035
ag3155
ag1851
ag2675
ag1037
ag1038
ag1039
ag1040
ag1041
ag3037
ag1042
ag1043
ag1044
ag1045
ag1046
ag1047
ag1048
ag1050
ag1051
ag1052
ag229
ag1053
ag1054
ag1055
ag1056
ag1057
ag1058
ag1059
ag1060
ag1023
ag1062
ag1063
ag1064
ag1065
ag1066
ag1067
ag1068
ag1069
ag1070
ag1071
ag697
ag1073
ag1074
ag1075
ag1076
ag1077
ag1078
ag1079
ag1080
ag1081
ag1083
ag1084
ag1085
ag1086
ag1087
ag1088
ag1089
ag1090
ag1091
ag1092
ag1093
ag1094
ag1095
ag570
ag1096
ag1097
ag538
ag2459
ag1098
ag635
ag236
ag1099
ag1100
ag393
ag1102
ag1103
ag2823
ag485
ag1104
ag1105
ag1106
ag1107
ag1108
ag1109
ag1110
ag1111
ag1112
ag1113
ag1114
ag1116
ag204
ag1117
ag1118
ag478
ag59
ag1119
asg3164
(lp3200
g125
asg405
(lp3201
g9
ag10
asg2628
(lp3202
g639
asg1044
(lp3203
g61
ag62
ag25
asS'sslerror'
p3204
(lp3205
g188
asg2049
(lp3206
g65
ag66
asg1064
(lp3207
g61
ag62
ag25
asg408
(lp3208
g9
ag10
asg40
(lp3209
S'ZipImportError'
p3210
ag38
asg691
(lp3211
g97
asS'FileWrapper'
p3212
(lp3213
g6
asg951
(lp3214
g172
asS'AptDistro'
p3215
(lp3216
g642
asg2001
(lp3217
g65
ag66
asg2026
(lp3218
g65
ag66
ag58
asg1783
(lp3219
g93
ag968
asg2991
(lp3220
g37
asg2988
(lp3221
g37
asS'ivar'
p3222
(lp3223
g577
asg574
(lp3224
g572
ag1719
asg1318
(lp3225
g136
asg2613
(lp3226
g2611
ag1438
asg1785
(lp3227
g93
ag968
asg1582
(lp3228
g1580
ag2618
ag868
asg1314
(lp3229
g136
ag31
asS'STType'
p3230
(lp3231
g1145
asS'DevelDistro'
p3232
(lp3233
g642
asg1465
(lp3234
g498
asg2681
(lp3235
g633
asS'mem_info'
p3236
(lp3237
g31
asg2000
(lp3238
g65
ag66
asg2986
(lp3239
g37
asg1991
(lp3240
g65
ag66
asg826
(lp3241
g811
asg2173
(lp3242
S'ConfigOptionParser'
p3243
ag616
aS'UpdatingDefaultsHelpFormatter'
p3244
ag2171
asg2502
(lp3245
g2500
ag619
asS'ResponseCacheControl'
p3246
(lp3247
g6
asg3010
(lp3248
g357
asg6
(lp3249
S'Aborter'
p3250
aS'Accept'
p3251
ag3134
aS'ArgumentValidationError'
p3252
ag3106
ag2078
ag206
ag2817
aS'CallbackDict'
p3253
aS'CharsetAccept'
p3254
ag2101
aS'ClosingIterator'
p3255
ag2920
ag2058
ag2939
aS'DebuggedApplication'
p3256
ag1806
aS'ETagRequestMixin'
p3257
aS'ETagResponseMixin'
p3258
aS'ETags'
p3259
ag1441
aS'EnvironHeaders'
p3260
ag524
ag2819
ag3212
ag2772
aS'HeaderSet'
p3261
ag2639
ag3064
ag1472
ag2464
ag2491
ag1841
ag3053
ag2158
aS'LimitedStream'
p3262
aS'Local'
p3263
aS'LocalManager'
p3264
ag2341
ag578
ag1813
aS'MultiDict'
p3265
ag4
ag989
ag1720
ag991
ag3246
ag107
aS'SharedDataMiddleware'
p3266
aS'TypeConversionDict'
p3267
ag1388
ag1855
ag588
ag2953
ag1743
aS'environ_property'
p3268
aS'header_property'
p3269
asS'SerialException'
p3270
(lp3271
g222
asg1332
(lp3272
g136
asS't'
(lp3273
g2103
asg225
(lp3274
g2324
aS'FormContent'
p3275
ag2329
ag223
aS'MiniFieldStorage'
p3276
aS'SvFormContentDict'
p3277
ag2523
ag1546
asg747
(lp3278
g745
ag2972
ag747
ag747
asg3266
(lp3279
g6
asS'RSync'
p3280
(lp3281
g233
asS'Timer'
p3282
(lp3283
g1559
asg55
(lp3284
g2536
ag1430
ag3039
ag2063
ag2744
ag2565
ag446
ag53
ag115
asg1154
(lp3285
g498
ag587
asg823
(lp3286
g811
asg2985
(lp3287
g37
asg753
(lp3288
g3055
ag868
ag751
aS'LockBase'
p3289
ag2484
ag2702
ag1183
ag2910
ag2237
aS'NotMyLock'
p3290
aS'UnlockError'
p3291
asg1871
(lp3292
g79
asg943
(lp3293
g172
asg3110
(lp3294
g13
asg3158
(lp3295
g269
asg3114
(lp3296
g13
asg1860
(lp3297
g79
asS'kernel_info'
p3298
(lp3299
g31
asS'range'
p3300
(lp3301
g58
ag537
asg824
(lp3302
g811
asg656
(lp3303
g3138
ag3104
ag761
ag1970
ag654
ag2279
ag2291
asS'Module_six_moves_urllib_parse'
p3304
(lp3305
g1393
asg3163
(lp3306
g125
asS'NotAny'
p3307
(lp3308
g58
asg1079
(lp3309
g61
ag62
ag25
asg693
(lp3310
g97
asS'Literal'
p3311
(lp3312
g58
asg975
(lp3313
g971
asS'InvalidSize'
p3314
(lp3315
g1559
asg599
(lp3316
g597
asg3254
(lp3317
g6
asg2055
(lp3318
S'Adam'
p3319
aS'Dataset'
p3320
aS'Optimizer'
p3321
ag2842
ag2053
asg1208
(lp3322
g16
asg2040
(lp3323
g65
ag66
asg2984
(lp3324
g37
asg409
(lp3325
g9
ag10
asg1043
(lp3326
g61
ag62
ag25
asg3268
(lp3327
g6
asg1258
(lp3328
g228
asS'device_info'
p3329
(lp3330
g31
asg284
(lp3331
g37
ag275
ag93
asg1078
(lp3332
g61
ag62
ag25
asg685
(lp3333
g97
asg1219
(lp3334
g16
asg3116
(lp3335
g13
asg1261
(lp3336
g228
asg611
(lp3337
g607
asg442
(lp3338
S'struct_passwd'
p3339
ag440
asS'InfixOperator'
p3340
(lp3341
g537
asg1073
(lp3342
g61
ag62
ag25
asg1077
(lp3343
g61
ag62
ag25
asg2018
(lp3344
g65
ag66
asS'channel_order'
p3345
(lp3346
g31
asg1217
(lp3347
g16
asg2409
(lp3348
g2407
asg2987
(lp3349
g37
asg1757
(lp3350
g10
asg1362
(lp3351
g136
asg3276
(lp3352
g225
asg72
(lp3353
g2876
aS'ConfigObj'
p3354
aS'ConfigObjError'
p3355
ag2235
ag2916
aS'DuplicateError'
p3356
ag2432
ag75
aS'InterpolationLoopError'
p3357
ag2569
ag713
ag70
aS'ReloadError'
p3358
ag362
aS'Section'
p3359
aS'SimpleVal'
p3360
aS'TemplateInterpolation'
p3361
ag1849
ag3173
asg47
(lp3362
g2072
ag2936
ag2441
ag450
aS'CythonTypeObject'
p3363
ag545
aS'StructType'
p3364
aS'UnionType'
p3365
ag2109
ag147
aS'p_Py_ssize_t'
p3366
ag2965
ag51
ag3165
aS'p_double'
p3367
ag438
ag1965
ag540
aS'p_int'
p3368
aS'p_long'
p3369
ag3034
ag2549
aS'p_longlong'
p3370
aS'p_short'
p3371
ag893
ag2861
aS'pp_Py_UCS4'
p3372
ag471
aS'pp_Py_ssize_t'
p3373
ag1916
ag2699
ag2541
aS'pp_double'
p3374
ag1741
ag2850
aS'pp_floatcomplex'
p3375
aS'pp_int'
p3376
ag1493
ag666
ag45
ag3094
aS'pp_short'
p3377
aS'pp_size_t'
p3378
ag763
ag1403
aS'ppp_Py_UNICODE'
p3379
ag2056
ag2620
ag2950
ag3151
ag2653
aS'ppp_doublecomplex'
p3380
ag173
ag1551
ag2734
ag2309
ag1795
aS'ppp_longdoublecomplex'
p3381
ag2575
ag2562
ag914
ag1826
ag2814
asg3027
(lp3382
g180
asS'TransformSpec'
p3383
(lp3384
g734
asg1145
(lp3385
g1143
aS'ParserError'
p3386
ag3230
asg160
(lp3387
g152
asg1099
(lp3388
g61
ag62
ag25
asS'Arguments'
p3389
(lp3390
g1960
asg2367
(lp3391
g445
asg1829
(lp3392
g729
asg2152
(lp3393
g87
ag88
asg1877
(lp3394
g79
asg2320
(lp3395
g2318
asg1034
(lp3396
g61
ag382
ag62
ag25
ag82
asg3078
(lp3397
g69
asg158
(lp3398
g152
asg2523
(lp3399
g456
ag1960
ag484
ag225
asg2372
(lp3400
g445
asg2034
(lp3401
g65
ag66
asg143
(lp3402
g3020
ag2303
ag404
aS'MagicMixin'
p3403
ag1819
ag2959
aS'Mock'
p3404
ag2141
ag1414
ag141
ag1483
asg845
(lp3405
g696
asS'VerificationError'
p3406
(lp3407
g2383
asg3372
(lp3408
g47
asg3363
(lp3409
g47
asg1989
(lp3410
g65
ag66
asg1831
(lp3411
g729
asg1645
(lp3412
g1142
asg1879
(lp3413
g79
asg3090
(lp3414
g3088
aS'spamlist'
p3415
asS'CodecRegistryError'
p3416
(lp3417
S'encodings'
p3418
asS'EmptyProvider'
p3419
(lp3420
g717
asg3264
(lp3421
g6
asg1379
(lp3422
g705
ag484
asg3162
(lp3423
g125
asg3251
(lp3424
g6
asS'channel_type'
p3425
(lp3426
g31
asg1886
(lp3427
g79
asg111
(lp3428
g109
asS'set_property'
p3429
(lp3430
g577
asg1242
(lp3431
g1240
ag3005
ag2400
asg466
(lp3432
g464
aS'functools32'
p3433
ag188
asg2780
(lp3434
g553
asg3250
(lp3435
g6
asg1790
(lp3436
g93
ag968
asg936
(lp3437
g172
asS'XSpec'
p3438
(lp3439
g233
asg490
(lp3440
g488
asg2023
(lp3441
g65
ag66
asg3113
(lp3442
g13
asg3378
(lp3443
g47
asg875
(lp3444
g1393
ag93
ag94
ag477
asg3077
(lp3445
g69
asg3403
(lp3446
g143
asg1792
(lp3447
g93
ag968
asg3370
(lp3448
g47
asg983
(lp3449
g2448
ag868
aS'Wave_read'
p3450
ag981
asg1574
(lp3451
g366
asg1612
(lp3452
g793
asg1700
(lp3453
g266
asg929
(lp3454
g146
ag172
asg2417
(lp3455
g2415
asg1263
(lp3456
g65
ag66
ag228
ag642
asg2289
(lp3457
g2287
asg2766
(lp3458
g670
asg1885
(lp3459
g79
asg948
(lp3460
g172
asg3117
(lp3461
g13
asg1094
(lp3462
g61
ag62
ag25
asg2994
(lp3463
g37
asg157
(lp3464
g152
asg2251
(lp3465
g2089
asS'FSRef'
p3466
(lp3467
g577
asg2629
(lp3468
g639
asg987
(lp3469
g274
asg1413
(lp3470
g1411
ag1941
aS'Breakpoint'
p3471
aS'Tdb'
p3472
asg2895
(lp3473
g183
asg1220
(lp3474
g16
asg1347
(lp3475
g136
asg1960
(lp3476
g2609
aS'ArgSpec'
p3477
ag3389
ag1985
ag2826
aS'EndOfBlock'
p3478
ag2486
ag1958
ag2523
asg1348
(lp3479
g136
asg1349
(lp3480
g136
asg2340
(lp3481
g1141
ag2337
asg437
(lp3482
g555
ag435
ag262
ag1754
asg3290
(lp3483
g753
asS'LogicError'
p3484
(lp3485
g31
asS'DocFile'
p3486
(lp3487
g642
asg1309
(lp3488
g136
ag31
asS'ReleaseFile'
p3489
(lp3490
g642
asg1031
(lp3491
g61
ag62
ag25
asg2896
(lp3492
g183
asg717
(lp3493
g2282
aS'ContextualVersionConflict'
p3494
ag1853
ag2646
aS'DistInfoDistribution'
p3495
ag1155
ag715
ag1519
aS'EggProvider'
p3496
ag3419
ag2582
ag505
ag2391
ag887
ag767
ag2074
ag2777
ag3016
ag1003
ag1528
aS'PathMetadata'
p3497
ag2205
ag2121
ag769
aS'ResourceManager'
p3498
aS'SetuptoolsLegacyVersion'
p3499
aS'SetuptoolsVersion'
p3500
ag1509
ag765
ag2538
ag806
ag2785
asS'command_queue_properties'
p3501
(lp3502
g31
asg1262
(lp3503
g228
asg341
(lp3504
g91
ag92
ag93
ag94
asg2993
(lp3505
g37
asg1095
(lp3506
g61
ag62
ag25
asg1878
(lp3507
g79
asg3112
(lp3508
g13
asg3289
(lp3509
g753
asg1254
(lp3510
g228
asg3367
(lp3511
g47
asS'Module_six_moves_urllib_error'
p3512
(lp3513
g1393
asS'BadPrototypeError'
p3514
(lp3515
g577
asg3404
(lp3516
g143
asg1597
(lp3517
g784
asg1092
(lp3518
g61
ag62
ag25
asS'zip'
p3519
(lp3520
g537
asg2546
(lp3521
g868
ag2643
asg3355
(lp3522
g72
asS'ReleaseBuild'
p3523
(lp3524
g642
asg3111
(lp3525
g13
asS'NotMatching'
p3526
(lp3527
g92
ag93
asg2376
(lp3528
g673
asg1571
(lp3529
g366
asg1572
(lp3530
g366
asg832
(lp3531
g1393
ag811
ag1622
asg508
(lp3532
g784
ag249
ag1622
asg326
(lp3533
g91
ag92
ag93
ag94
asS'SkipTo'
p3534
(lp3535
g58
asg2944
(lp3536
g50
asg953
(lp3537
g172
asg3433
(lp3538
g466
asS'ParseExpression'
p3539
(lp3540
g58
asS'herror'
p3541
(lp3542
g188
asg198
(lp3543
g192
asg2015
(lp3544
g65
ag66
asg2624
(lp3545
g639
asg885
(lp3546
g876
asS'bool_property'
p3547
(lp3548
g577
asg848
(lp3549
g696
ag864
asg2215
(lp3550
S'contextlib'
p3551
ag493
asg1059
(lp3552
g61
ag62
ag25
asS'LazyImporter'
p3553
(lp3554
S'email'
p3555
asg957
(lp3556
g172
asg2149
(lp3557
g1902
ag87
ag88
asS'MatchFirst'
p3558
(lp3559
g58
asg1861
(lp3560
g79
asg334
(lp3561
g91
ag92
ag93
ag94
asg3291
(lp3562
g753
asg222
(lp3563
S'FileLike'
p3564
ag1675
ag854
ag220
ag3042
ag3270
ag1185
asg1333
(lp3565
g136
asg1393
(lp3566
g875
ag1371
aS'Module_six_moves_urllib'
p3567
ag3512
ag3304
ag1857
aS'Module_six_moves_urllib_response'
p3568
ag1391
ag1439
ag2945
ag76
ag2434
ag832
asS'DictionaryWithDefault'
p3569
(lp3570
g537
asg1983
(lp3571
g65
ag66
asg1892
(lp3572
g79
asg93
(lp3573
g277
ag308
ag309
ag310
ag311
ag312
ag875
ag313
ag1401
ag278
ag314
ag1783
ag1784
ag315
ag1785
ag3478
ag780
ag126
ag316
ag868
ag317
ag1786
ag1787
ag318
ag279
ag280
ag319
ag320
ag2543
ag321
aS'IgnoreException'
p3574
ag2216
ag322
ag323
ag324
ag325
ag1788
ag2558
ag326
ag327
ag2076
ag328
ag795
ag329
ag2397
ag330
aS'NoResult'
p3575
ag331
ag3526
ag1652
ag1789
ag332
ag1790
ag333
ag334
ag282
ag283
ag335
ag1395
ag336
ag89
aS'SecurityError'
p3576
ag2115
ag337
ag2928
ag338
ag339
ag340
ag341
ag342
aS'SystemStackError'
p3577
ag343
aS'Todo'
p3578
ag2321
ag344
ag345
ag1733
ag346
ag347
ag348
ag349
ag350
ag1903
ag351
ag352
ag284
ag353
aS'WrongType'
p3579
ag354
ag966
ag1791
ag1777
ag1792
ag1793
ag1794
asg1086
(lp3580
g61
ag62
ag25
asg1157
(lp3581
g587
asg1074
(lp3582
g61
ag62
ag25
asg31
(lp3583
S'Buffer'
p3584
ag1303
ag2257
ag1304
ag1306
ag868
ag559
ag1308
ag29
ag360
ag1309
ag808
ag3484
ag329
ag480
ag1310
aS'MemoryObjectHolder'
p3585
aS'MemoryPool'
p3586
ag2787
ag1312
aS'PooledBuffer'
p3587
ag1313
ag336
ag1007
ag1314
ag2412
aS'affinity_domain_ext'
p3588
ag3345
ag3425
ag2067
aS'command_queue_info'
p3589
ag3501
aS'command_type'
p3590
ag2393
aS'context_properties'
p3591
ag835
ag1748
ag1146
ag3329
ag2060
ag2683
aS'device_partition_property'
p3592
aS'device_partition_property_ext'
p3593
ag2857
ag1478
ag358
ag2528
ag389
aS'kernel_arg_access_qualifier'
p3594
ag547
ag2747
ag3298
aS'kernel_work_group_info'
p3595
aS'map_flags'
p3596
ag3002
ag3236
ag2160
ag2775
ag2166
ag2137
ag759
ag2552
aS'program_build_info'
p3597
ag837
ag2705
aS'sampler_info'
p3598
aS'status_code'
p3599
asg989
(lp3600
g274
ag784
ag6
asg1376
(lp3601
g705
asS'Aifc_read'
p3602
(lp3603
g2451
asg3380
(lp3604
g47
asg3025
(lp3605
g180
asg3575
(lp3606
g92
ag93
asg934
(lp3607
g172
asg3369
(lp3608
g47
asg151
(lp3609
g149
aS'NullTranslations'
p3610
asg513
(lp3611
g249
asg3320
(lp3612
g2055
asg1223
(lp3613
g16
asg3253
(lp3614
g6
asg406
(lp3615
g9
ag10
asg2981
(lp3616
g37
asg2031
(lp3617
g65
ag66
asg156
(lp3618
g152
asg1345
(lp3619
g136
asg3019
(lp3620
g44
asS'Match'
p3621
(lp3622
g1517
asg1559
(lp3623
g1557
ag3314
ag1722
ag3282
asg3584
(lp3624
g31
asg1682
(lp3625
g980
asg165
(lp3626
g152
asg3069
(lp3627
g592
asg1366
(lp3628
g705
asg3375
(lp3629
g47
asg3585
(lp3630
g31
asg3579
(lp3631
g92
ag93
asg3494
(lp3632
g717
asg1624
(lp3633
g1622
asg343
(lp3634
g91
ag92
ag93
ag94
asg909
(lp3635
g645
asg3319
(lp3636
g2055
asg194
(lp3637
g192
asS'LineEnd'
p3638
(lp3639
g58
asg3365
(lp3640
g47
asS'WordStart'
p3641
(lp3642
g58
asS'SettingsSpec'
p3643
(lp3644
g734
asg844
(lp3645
g696
asg1371
(lp3646
g705
ag1393
asg3195
(lp3647
g25
asg2764
(lp3648
g670
asg3597
(lp3649
g31
asg1880
(lp3650
g79
asg1141
(lp3651
g3153
ag868
aS'NoSuchProcess'
p3652
ag2340
ag1139
aS'TimeoutExpired'
p3653
ag1082
asg1096
(lp3654
g61
ag62
ag25
asg3567
(lp3655
g1393
asg1872
(lp3656
g79
asg1215
(lp3657
g16
asg1370
(lp3658
g705
asg2729
(lp3659
g28
asg2354
(lp3660
g2698
ag2199
asg1090
(lp3661
g61
ag62
ag25
asg2119
(lp3662
g2117
ag1378
aS'Parameter'
p3663
ag2488
asg976
(lp3664
g971
asS'DecryptionError'
p3665
(lp3666
g2383
asg1180
(lp3667
g477
asg2450
(lp3668
g2448
asg3121
(lp3669
g13
asg500
(lp3670
g79
ag249
asg3495
(lp3671
g717
asg3009
(lp3672
g357
asg3418
(lp3673
g3416
asg2029
(lp3674
g65
ag66
asg3663
(lp3675
g2119
asg1063
(lp3676
g61
ag62
ag25
asg1114
(lp3677
g61
ag62
ag25
asg1087
(lp3678
g61
ag62
ag25
asg2983
(lp3679
g37
asg3374
(lp3680
g47
asg3079
(lp3681
g69
asg734
(lp3682
g2096
ag732
ag2830
ag3643
ag3383
asg2036
(lp3683
g65
ag66
asg3120
(lp3684
g13
asg3026
(lp3685
g180
asg3379
(lp3686
g47
asg410
(lp3687
g9
ag10
asg820
(lp3688
g811
asg1647
(lp3689
g1142
asg2897
(lp3690
g183
asg2625
(lp3691
g639
asg582
(lp3692
g580
asS'ProgressBar'
p3693
(lp3694
g537
asg1875
(lp3695
g79
asg3376
(lp3696
g47
asg2214
(lp3697
g493
asg512
(lp3698
g249
asg3357
(lp3699
g72
asg814
(lp3700
g811
asg2186
(lp3701
g138
asg1313
(lp3702
g136
ag31
asg3263
(lp3703
g6
asg517
(lp3704
g249
asg1358
(lp3705
g136
asg2008
(lp3706
g65
ag66
asg92
(lp3707
g308
ag309
ag310
ag311
ag312
ag313
ag314
ag315
ag3478
ag780
ag126
ag316
ag868
ag317
ag318
ag319
ag320
ag2543
ag321
ag3574
ag2216
ag322
ag323
ag324
ag325
ag2558
ag326
ag327
ag2076
ag328
ag795
ag329
ag2397
ag330
ag3575
ag331
ag3526
ag1652
ag332
ag333
ag334
ag335
ag336
ag89
ag3576
ag2115
ag337
ag2928
ag338
ag339
ag340
ag341
ag342
ag3577
ag343
ag344
ag345
ag1733
ag346
ag347
ag348
ag349
ag350
ag1903
ag351
ag352
ag353
ag3579
ag354
asg2242
(lp3708
g19
asg2438
(lp3709
g2436
asg1459
(lp3710
g498
asg3194
(lp3711
g25
asg3364
(lp3712
g47
asg317
(lp3713
g91
ag92
ag93
ag94
asg3210
(lp3714
g40
asg2383
(lp3715
g3665
ag3177
ag2381
ag3406
asg2718
(lp3716
g82
asg3478
(lp3717
g1960
ag92
ag93
asg2447
(lp3718
g1902
asg2351
(lp3719
g625
asg3256
(lp3720
g6
asg308
(lp3721
g91
ag92
ag93
ag94
asg2290
(lp3722
g2287
asg3593
(lp3723
g31
asg3109
(lp3724
g13
asg197
(lp3725
g192
asg3587
(lp3726
g31
asg345
(lp3727
g91
ag92
ag93
ag94
asg2524
(lp3728
g456
asg1976
(lp3729
g1974
asg3568
(lp3730
g1393
asg3477
(lp3731
g1960
asg822
(lp3732
g811
asg1547
(lp3733
g676
asg3199
(lp3734
g25
asg2454
(lp3735
g2452
asg3060
(lp3736
g484
asg2751
(lp3737
g777
asg504
(lp3738
g249
asg2990
(lp3739
g37
asg1277
(lp3740
g228
asg3321
(lp3741
g2055
asg335
(lp3742
g91
ag92
ag93
ag94
asg2847
(lp3743
g1928
asg2028
(lp3744
g65
ag66
asg528
(lp3745
g526
asg3243
(lp3746
g119
ag2173
asg2017
(lp3747
g65
ag66
asS'object_lock'
p3748
(lp3749
g577
asg2908
(lp3750
g254
asS'Whitespace'
p3751
(lp3752
g1249
asg3574
(lp3753
g92
ag93
asg3188
(lp3754
g212
asg3586
(lp3755
g31
asg577
(lp3756
g3514
ag3466
ag1618
ag2484
ag1696
ag1148
aS'ObjCPointer'
p3757
ag2565
ag1537
ag737
ag626
ag575
ag984
ag1507
ag2974
ag3547
ag2503
ag2139
aS'function'
p3758
ag3122
ag2085
ag3222
ag2422
aS'objc_class'
p3759
ag1708
aS'objc_object'
p3760
ag3748
ag2669
ag2093
ag593
ag2923
ag3429
ag1444
ag2307
asg58
(lp3761
g1982
ag1659
ag1236
ag387
ag2065
ag880
ag2274
ag2525
ag605
ag3012
ag2840
ag231
ag56
ag3638
ag2385
ag3311
ag3558
ag1628
ag3307
ag1462
ag2689
ag496
ag2026
ag1591
ag473
ag3097
ag3539
ag2667
ag2314
ag2457
ag1921
ag1541
ag1937
ag999
ag3534
ag238
ag719
ag1947
ag1895
ag1968
aS'Upcase'
p3762
ag1847
ag583
ag739
ag3641
ag2810
ag3300
ag2732
asg2349
(lp3763
g2346
asg3499
(lp3764
g717
asg3257
(lp3765
g6
asg882
(lp3766
g876
asg1702
(lp3767
g266
asg821
(lp3768
g811
asg2039
(lp3769
g65
ag66
asg3599
(lp3770
g31
asg617
(lp3771
g607
asg2658
(lp3772
g2655
asg2019
(lp3773
g65
ag66
asg3354
(lp3774
g72
asg1051
(lp3775
g61
ag62
ag25
asg1032
(lp3776
g61
ag62
ag25
asg3258
(lp3777
g6
asg3187
(lp3778
g212
asg521
(lp3779
g249
asg3762
(lp3780
g58
asg959
(lp3781
g172
asg3759
(lp3782
g577
asg2696
(lp3783
g191
asS'MovedFunctionDeprecationWrapper'
p3784
(lp3785
g537
asg3498
(lp3786
g717
asg1369
(lp3787
g705
asg1893
(lp3788
g79
asg433
(lp3789
g9
ag10
asg2228
(lp3790
g1719
asg1793
(lp3791
g93
ag968
asg2682
(lp3792
g633
asg3061
(lp3793
g484
asS'IntEnum'
p3794
(lp3795
g1732
asg1614
(lp3796
g793
asg2014
(lp3797
g65
ag66
asg3757
(lp3798
g577
asg613
(lp3799
g793
ag25
ag607
asg2254
(lp3800
g2089
asg3070
(lp3801
g25
ag592
asg815
(lp3802
g811
asg421
(lp3803
g9
ag10
asg3472
(lp3804
g1413
asg1271
(lp3805
g228
asg3555
(lp3806
g3553
asg1664
(lp3807
g569
asg3260
(lp3808
g6
asg1265
(lp3809
g228
asg1873
(lp3810
g79
asg2781
(lp3811
g553
asg1065
(lp3812
g61
ag62
ag25
asg2024
(lp3813
g65
ag66
asg1118
(lp3814
g61
ag62
ag25
asg886
(lp3815
g876
asg3193
(lp3816
g25
asg1027
(lp3817
g262
ag3031
aS'combinations_with_replacement'
p3818
ag2156
ag2388
ag1250
ag1025
ag2293
aS'ifilter'
p3819
ag2806
ag2389
ag1553
ag831
ag1593
ag1770
ag1801
ag1815
ag2295
ag2571
asg3269
(lp3820
g6
asg3185
(lp3821
g212
asg1255
(lp3822
g228
asg2907
(lp3823
g254
asg1548
(lp3824
g676
asg3024
(lp3825
g180
asg3450
(lp3826
g983
asg3068
(lp3827
g592
asg2710
(lp3828
g76
asg3589
(lp3829
g31
asg1296
(lp3830
g1943
ag1294
asg3358
(lp3831
g72
asg1360
(lp3832
g136
asg322
(lp3833
g91
ag92
ag93
ag94
asg701
(lp3834
g2519
ag699
asg2042
(lp3835
g65
ag66
asg3262
(lp3836
g6
asg3381
(lp3837
g47
asg1100
(lp3838
g61
ag62
ag25
asg3255
(lp3839
g6
asg1894
(lp3840
g79
asg3368
(lp3841
g47
asg430
(lp3842
g9
ag10
asg1982
(lp3843
g65
ag66
ag58
asg3598
(lp3844
g31
asg3377
(lp3845
g47
asg2765
(lp3846
g670
asg1351
(lp3847
g136
asg3577
(lp3848
g92
ag93
asg432
(lp3849
g9
ag10
asg3564
(lp3850
g222
asg3652
(lp3851
g1141
asg945
(lp3852
g172
asg3197
(lp3853
g25
asg1084
(lp3854
g61
ag62
ag25
asg2114
(lp3855
g2267
ag2111
asg1566
(lp3856
g366
asg2210
(lp3857
g493
asg3244
(lp3858
g119
ag2173
asg1069
(lp3859
g61
ag62
ag25
asg1890
(lp3860
g79
asg402
(lp3861
g9
ag10
asg2148
(lp3862
g87
ag88
asg260
(lp3863
g257
asg3371
(lp3864
g47
asg1068
(lp3865
g61
ag62
ag25
asg1266
(lp3866
g228
asg1249
(lp3867
g1247
ag3751
asg3073
(lp3868
g864
asg3591
(lp3869
g31
asg2375
(lp3870
g673
asg3576
(lp3871
g92
ag93
asg2874
(lp3872
g2872
asg3578
(lp3873
g93
asg1517
(lp3874
g1515
ag2498
ag3621
ag2316
asg932
(lp3875
g172
asg1130
(lp3876
g246
asg1033
(lp3877
g61
ag62
ag25
asg3594
(lp3878
g31
asg1270
(lp3879
g228
asg1338
(lp3880
g136
asS'StderrToStdout'
p3881
(lp3882
g537
asg1055
(lp3883
g61
ag62
ag25
asg2451
(lp3884
g3602
ag2678
ag2448
ag868
asg1663
(lp3885
g569
asg1053
(lp3886
g61
ag62
ag25
asg1794
(lp3887
g93
ag968
asg2695
(lp3888
g191
asg2212
(lp3889
g493
asg2004
(lp3890
g65
ag66
asg878
(lp3891
g876
asg537
(lp3892
g3170
aS'DependentDictionary'
p3893
ag3569
ag2443
ag3340
ag3784
ag2767
ag3693
ag1962
ag2312
ag535
ag3881
ag1285
ag651
ag1020
ag3300
ag3519
asg1173
(lp3894
g477
asg3339
(lp3895
g442
asg3471
(lp3896
g1413
asg321
(lp3897
g91
ag92
ag93
ag94
asg1075
(lp3898
g61
ag62
ag25
asg2657
(lp3899
g2655
asg100
(lp3900
g98
asg2253
(lp3901
g2089
asg1870
(lp3902
g79
asg1656
(lp3903
g1654
asS'Release'
p3904
(lp3905
g642
asg3366
(lp3906
g47
asg913
(lp3907
g645
asg3760
(lp3908
g577
asg3610
(lp3909
g151
asg1789
(lp3910
g93
ag968
asg353
(lp3911
g91
ag92
ag125
ag93
ag94
asg2252
(lp3912
g2089
asg2037
(lp3913
g65
ag66
asg3359
(lp3914
g72
asg3196
(lp3915
g25
asg2799
(lp3916
g146
ag634
asg816
(lp3917
g811
asg1438
(lp3918
g1436
ag1640
ag993
ag2613
asg2446
(lp3919
g1902
asg1062
(lp3920
g61
ag62
ag25
asg3596
(lp3921
g31
asg312
(lp3922
g91
ag92
ag93
ag94
asg1463
(lp3923
g498
ag191
asg2370
(lp3924
g445
asg3277
(lp3925
g225
asg2989
(lp3926
g37
asg3198
(lp3927
g25
asg3496
(lp3928
g717
asg3186
(lp3929
g212
asg2369
(lp3930
g445
asg315
(lp3931
g91
ag92
ag93
ag94
asg910
(lp3932
g645
asg1732
(lp3933
g1730
ag2650
ag3794
ag1378
asg1342
(lp3934
g136
asg3373
(lp3935
g47
asg1839
(lp3936
g1837
asg1305
(lp3937
g136
asg2243
(lp3938
g19
asg1758
(lp3939
g10
asg188
(lp3940
g422
ag2605
ag186
ag3541
ag466
ag188
ag188
ag3204
ag2477
ag493
asg3592
(lp3941
g31
asg1866
(lp3942
g79
asg1451
(lp3943
g1449
ag1451
ag1451
asg280
(lp3944
g275
ag93
asg1577
(lp3945
g366
asg3500
(lp3946
g717
asg3265
(lp3947
g6
asg281
(lp3948
g275
asg2982
(lp3949
g37
asg686
(lp3950
g97
asg3415
(lp3951
g3090
asg3497
(lp3952
g717
asg3386
(lp3953
g1145
asg3008
(lp3954
g357
asg3361
(lp3955
g72
asg612
(lp3956
g607
asg533
(lp3957
g529
ag3551
asg328
(lp3958
g91
ag92
ag93
ag94
asg1131
(lp3959
g246
asg3261
(lp3960
g6
asg1179
(lp3961
g477
asg1876
(lp3962
g79
asg3360
(lp3963
g72
asg278
(lp3964
g275
ag93
asg3758
(lp3965
g577
asg2992
(lp3966
g37
asg2051
(lp3967
g65
ag66
asg1546
(lp3968
g463
ag225
ag676
asg813
(lp3969
g811
asg1998
(lp3970
g65
ag66
asg993
(lp3971
g274
ag1438
asg3119
(lp3972
g13
asg2388
(lp3973
g1027
ag455
asg1996
(lp3974
g65
ag66
asg1181
(lp3975
g477
asg1097
(lp3976
g61
ag62
ag25
asg1205
(lp3977
g16
asg1567
(lp3978
g366
asg2211
(lp3979
g493
asg1072
(lp3980
g61
asg3356
(lp3981
g72
asg3818
(lp3982
g1027
asg3115
(lp3983
g13
asg3551
(lp3984
g533
ag2215
asg119
(lp3985
g2424
ag3243
ag797
ag117
ag130
ag1420
ag3244
asg3590
(lp3986
g31
asg279
(lp3987
g275
ag457
ag93
asg403
(lp3988
g9
ag10
asg3653
(lp3989
g1141
asg3588
(lp3990
g31
asg2010
(lp3991
g65
ag66
asg3023
(lp3992
g180
asg1862
(lp3993
g79
asg1791
(lp3994
g93
ag968
asg935
(lp3995
g172
asg429
(lp3996
g9
ag10
asg233
(lp3997
g2631
ag231
ag1956
ag1134
ag3280
ag2125
ag1648
ag3438
asg961
(lp3998
g172
asg3259
(lp3999
g6
asg3252
(lp4000
g6
asg1304
(lp4001
g136
ag31
ag639
ag212
asg3595
(lp4002
g31
asg1089
(lp4003
g61
ag62
ag25
asg3819
(lp4004
g1027
asg3893
(lp4005
g537
asg3275
(lp4006
g225
asg3192
(lp4007
g25
asg1048
(lp4008
g61
ag62
ag25
asg3267
(lp4009
g6
asg642
(lp4010
g3215
ag1232
ag3232
ag1155
ag640
ag2181
ag2277
ag3486
ag1263
ag3904
ag3523
ag1432
ag2848
ag3489
ag1161
ag2753
ag1935
asg1320
(lp4011
g136
asg863
(lp4012
g849
as.