(lp1
S'os'
p2
aS'os.path'
p3
aS'thread'
p4
aS'keyword'
p5
aS'StringIO'
p6
aS'signal'
p7
aS'traceback'
p8
aS'linecache'
p9
aS'itertools'
p10
aS'exceptions'
p11
aS'collections'
p12
aS'sys'
p13
aS'string'
p14
aS'__future__'
p15
aS'strop'
p16
aS'interpy.codec.six'
p17
aS'heapq'
p18
aS'copy_reg'
p19
aS'sre_compile'
p20
aS'_collections'
p21
aS'interpy.codec.utils'
p22
aS'_sre'
p23
aS'functools'
p24
aS'encodings'
p25
aS'site'
p26
aS'__builtin__'
p27
aS'sysconfig'
p28
aS'google'
p29
aS'__main__'
p30
aS'operator'
p31
aS'encodings.encodings'
p32
aS'mpl_toolkits'
p33
aS'_heapq'
p34
aS'abc'
p35
aS'posixpath'
p36
aS'_weakrefset'
p37
aS'errno'
p38
aS'interpy.codec.tokenize'
p39
aS'six'
p40
aS'encodings.codecs'
p41
aS'sre_constants'
p42
aS'PyObjCTools'
p43
aS're'
p44
aS'_abcoll'
p45
aS'_functools'
p46
aS'types'
p47
aS'interpy.codec'
p48
aS'_codecs'
p49
aS'encodings.__builtin__'
p50
aS'opcode'
p51
aS'_warnings'
p52
aS'interpy.codec.__future__'
p53
aS'genericpath'
p54
aS'stat'
p55
aS'zipimport'
p56
aS'_sysconfigdata'
p57
aS'inspect'
p58
aS'warnings'
p59
aS'UserDict'
p60
aS'tokenize'
p61
aS'interpy.codec.register'
p62
aS'interpy.codec.tokenizer'
p63
aS'_osx_support'
p64
aS'imp'
p65
aS'codecs'
p66
aS'interpy.codec.codecs'
p67
aS'interpy'
p68
aS'_locale'
p69
aS'sitecustomize'
p70
aS'interpy.codec.encodings'
p71
aS'posix'
p72
aS'encodings.aliases'
p73
aS'sre_parse'
p74
aS'interpy.codec.sys'
p75
aS'_weakref'
p76
aS'token'
p77
aS'dis'
p78
aS'yaml'
p79
aS'requests'
p80
aS'Theano'
p81
aS'numpy'
p82
aS'debugger'
p83
aS'BeautifulSoup'
p84
aS'PyAudio'
p85
aS'cv'
p86
aS'cv2'
p87
aS'protobuf'
p88
aS'altgraph'
p89
aS'argparse'
p90
aS'ast'
p91
aS'ast2json'
p92
aS'asteval'
p93
aS'astor'
p94
aS'awscli'
p95
aS'backports.ssl'
p96
aS'bcdoc'
p97
aS'bdist'
p98
aS'beautifulsoup4'
p99
aS'benchmarks'
p100
aS'bonjour'
p101
aS'botocore'
p102
aS'catkin'
p103
aS'certifi'
p104
aS'climate'
p105
aS'codegen'
p106
aS'colorama'
p107
aS'coloredlogs'
p108
aS'configobj'
p109
aS'cssselect'
p110
ag83
aS'decorator'
p111
aS'dnspython'
p112
aS'docopt'
p113
aS'docutils'
p114
aS'downhill'
p115
aS'enum'
p116
aS'enum34'
p117
aS'execnet'
p118
aS'forbiddenfruit'
p119
aS'fortune'
p120
aS'friture'
p121
aS'funcsigs'
p122
aS'functools3'
p123
aS'functools32'
p124
aS'gensim'
p125
aS'gevent'
p126
aS'glumpy'
p127
aS'greenlet'
p128
aS'grizzled'
p129
aS'gunicorn'
p130
aS'h5py'
p131
aS'howdoi'
p132
aS'humanfriendly'
p133
aS'ino'
p134
ag68
aS'ipython'
p135
aS'itsdangerous'
p136
aS'jedi'
p137
aS'jmespath'
p138
aS'joblib'
p139
aS'jsonschema'
p140
aS'leveldb'
p141
aS'lmj.rbm'
p142
aS'lockfile'
p143
aS'lolcat'
p144
aS'lxml'
p145
aS'macholib'
p146
aS'matplotlib'
p147
aS'mercurial'
p148
aS'mftracker'
p149
aS'mock'
p150
aS'modulegraph'
p151
aS'mutagen'
p152
aS'neon'
p153
aS'networkx'
p154
aS'nltk'
p155
aS'nose'
p156
aS'numba'
p157
ag82
aS'numpydoc'
p158
aS'opencl'
p159
aS'ordereddict'
p160
aS'panda'
p161
aS'pandas'
p162
aS'paramiko'
p163
aS'pathlib'
p164
aS'pip'
p165
aS'plac'
p166
aS'poster'
p167
ag88
aS'psutil'
p168
aS'py'
p169
aS'py2app'
p170
aS'pyOpenSSL'
p171
aS'pyOpenTLD'
p172
aS'pyasn'
p173
aS'pyasn1'
p174
aS'pycocotools'
p175
aS'pyenchant'
p176
aS'pygpu'
p177
aS'pylint'
p178
aS'pyobjc'
p179
aS'pyopencl'
p180
aS'pyparsing'
p181
aS'pyqtgraph'
p182
aS'pyquery'
p183
aS'pyserial'
p184
aS'pytest'
p185
aS'python'
p186
aS'pytools'
p187
aS'pytz'
p188
aS'pyzmq'
p189
aS'qtutils'
p190
aS'rbm.py'
p191
ag80
aS'rosdep'
p192
aS'rosdistro'
p193
aS'rosinstall'
p194
aS'rospkg'
p195
aS'rsa'
p196
aS'scikit'
p197
aS'scikits.audiolab'
p198
aS'scikits.cuda'
p199
aS'scipy'
p200
aS'selenium'
p201
aS'setuptools'
p202
aS'shedskin'
p203
ag40
aS'skdata'
p204
aS'sleekxmpp'
p205
aS'stem'
p206
aS'swg'
p207
aS'theanets'
p208
aS'theano'
p209
aS'thefuck'
p210
aS'tornado'
p211
aS'tox'
p212
aS'uTidylib'
p213
aS'unittest'
p214
aS'unittest2'
p215
aS'vcstools'
p216
aS'virtualenv'
p217
aS'word'
p218
aS'word2vec'
p219
aS'wsgiref'
p220
aS'wstool'
p221
aS'xattr'
p222
aS'zope.interface'
p223
aS'Cython'
p224
aS'DeepCL'
p225
aS'Flask'
p226
aS'Jinja'
p227
aS'Jinja2'
p228
aS'Keras'
p229
aS'Mako'
p230
aS'MarkupSafe'
p231
aS'PIL'
p232
ag85
aS'PyOpenGL'
p233
aS'PyYAML'
p234
aS'Pygments'
p235
aS'SimpleCV'
p236
aS'SimpleConvnet'
p237
aS'SpeechRecognition'
p238
aS'Sphinx'
p239
ag81
aS'Twisted'
p240
aS'Unirest'
p241
aS'ViTables'
p242
aS'Werkzeug'
p243
aS'sklearn'
p244
aS'CoreFunctions'
p245
aS'audioop'
p246
ag147
aS'pydevd_vm_type'
p247
aS'HelperMethods'
p248
aS'base64'
p249
aS'mimetypes'
p250
aS'pydevd_xml'
p251
aS'IN'
p252
aS'bdb'
p253
aS'mmap'
p254
aS'pydoc'
p255
aS'Interpretation'
p256
aS'binascii'
p257
aS'modulefinder'
p258
aS'pydoc_data'
p259
aS'TreeBuilder'
p260
aS'binhex'
p261
aS'multiprocessing'
p262
aS'pyexpat'
p263
ag15
aS'bisect'
p264
aS'netrc'
p265
aS'pylab'
p266
aS'_ast'
p267
aS'builtins'
p268
aS'nis'
p269
ag181
aS'_bisect'
p270
aS'bz2'
p271
aS'nntplib'
p272
ag188
aS'_bootlocale'
p273
aS'cProfile'
p274
aS'nodes'
p275
aS'queue'
p276
aS'_bz2'
p277
aS'calendar'
p278
ag156
aS'quopri'
p279
ag49
aS'cgi'
p280
aS'ntpath'
p281
aS'random'
p282
aS'_codecs_cn'
p283
aS'cgitb'
p284
aS'nturl2path'
p285
ag44
aS'_codecs_hk'
p286
aS'chunk'
p287
aS'numbers'
p288
aS'readline'
p289
aS'_codecs_iso2022'
p290
aS'cmath'
p291
ag82
aS'reprlib'
p292
aS'_codecs_jp'
p293
aS'cmd'
p294
ag51
aS'resource'
p295
aS'_codecs_kr'
p296
aS'code'
p297
ag31
aS'rlcompleter'
p298
aS'_codecs_tw'
p299
ag66
aS'optparse'
p300
aS'runfiles'
p301
ag21
aS'codeop'
p302
ag2
aS'runpy'
p303
aS'_collections_abc'
p304
ag12
aS'parser'
p305
aS'sched'
p306
aS'_compat_pickle'
p307
aS'colorsys'
p308
ag164
ag200
aS'_crypt'
p309
aS'compileall'
p310
aS'pdb'
p311
aS'select'
p312
aS'_csv'
p313
aS'concurrent'
p314
aS'pickle'
p315
aS'selectors'
p316
aS'_ctypes'
p317
aS'configparser'
p318
aS'pickletools'
p319
ag202
aS'_ctypes_test'
p320
aS'contextlib'
p321
ag165
aS'shelve'
p322
aS'_curses'
p323
aS'copy'
p324
aS'pipes'
p325
aS'shlex'
p326
aS'_curses_panel'
p327
aS'copyreg'
p328
aS'pkg_resources'
p329
aS'shutil'
p330
aS'_datetime'
p331
aS'crypt'
p332
aS'pkgutil'
p333
ag7
aS'_dbm'
p334
aS'csv'
p335
aS'platform'
p336
ag26
aS'_decimal'
p337
aS'ctypes'
p338
aS'plistlib'
p339
ag40
aS'_dummy_thread'
p340
aS'curses'
p341
aS'poplib'
p342
aS'skimage'
p343
aS'_elementtree'
p344
aS'datetime'
p345
ag72
ag244
ag46
aS'dateutil'
p346
ag36
aS'smtpd'
p347
aS'_hashlib'
p348
aS'dbm'
p349
aS'power_parser'
p350
aS'smtplib'
p351
ag34
aS'decimal'
p352
aS'pprint'
p353
aS'sndhdr'
p354
aS'_imp'
p355
aS'difflib'
p356
aS'profile'
p357
aS'socket'
p358
aS'_io'
p359
ag78
aS'pstats'
p360
aS'socketserver'
p361
aS'_json'
p362
aS'distutils'
p363
aS'pty'
p364
aS'sqlite3'
p365
ag69
aS'doctest'
p366
aS'pwd'
p367
ag20
aS'_lsprof'
p368
aS'dummy_threading'
p369
aS'py_compile'
p370
ag42
aS'_lzma'
p371
aS'easy_install'
p372
aS'pyclbr'
p373
ag74
aS'_markerlib'
p374
aS'email'
p375
aS'pycompletion'
p376
aS'ssl'
p377
aS'_markupbase'
p378
ag25
aS'pycompletionserver  stat'
p379
aS'_md5'
p380
aS'english_parser'
p381
aS'pydev_app_engine_debug_startup statistics'
p382
aS'_multibytecodec'
p383
aS'english_tokens'
p384
aS'pydev_console_utils string'
p385
aS'_multiprocessing'
p386
aS'ensurepip'
p387
aS'pydev_coverage'
p388
aS'stringprep'
p389
aS'_opcode'
p390
ag116
aS'pydev_import_hook   struct'
p391
aS'_operator'
p392
ag38
aS'pydev_imports'
p393
aS'subprocess'
p394
ag64
aS'events'
p395
aS'pydev_ipython'
p396
aS'sunau'
p397
aS'_pickle'
p398
ag11
aS'pydev_ipython_console symbol'
p399
aS'_posixsubprocess'
p400
aS'extensions'
p401
aS'pydev_ipython_console_011 symtable'
p402
aS'_pydev_completer'
p403
aS'faulthandler'
p404
aS'pydev_localhost'
p405
ag13
aS'_pydev_filesystem_encoding fcntl'
p406
aS'pydev_log'
p407
ag28
aS'_pydev_getopt'
p408
aS'ffruit'
p409
aS'pydev_monkey'
p410
aS'syslog'
p411
aS'_pydev_imports_tipper filecmp'
p412
aS'pydev_monkey_qt'
p413
aS't'
aS'_pydev_imps'
p414
aS'fileinput'
p415
aS'pydev_override'
p416
aS'tabnanny'
p417
aS'_pydev_jy_imports_tipper fix_getpass'
p418
aS'pydev_pysrc'
p419
aS'tarfile'
p420
aS'_pydev_jython_execfile fnmatch'
p421
aS'pydev_run_in_console telnetlib'
p422
aS'_pydev_log'
p423
ag119
aS'pydev_runfiles'
p424
aS'tempfile'
p425
aS'_pydev_threading'
p426
aS'formatter'
p427
aS'pydev_runfiles_coverage termios'
p428
aS'_pydev_tipper_common fractions'
p429
aS'pydev_runfiles_nose test'
p430
aS'_pyio'
p431
aS'ftplib'
p432
aS'pydev_runfiles_parallel test_debug'
p433
aS'_random'
p434
ag24
aS'pydev_runfiles_parallel_client textwrap'
p435
aS'_scproxy'
p436
aS'gc'
p437
aS'pydev_runfiles_pytest2 third_party'
p438
aS'_sha1'
p439
ag54
aS'pydev_runfiles_unittest this'
p440
aS'_sha256'
p441
aS'getopt'
p442
aS'pydev_runfiles_xml_rpc threading'
p443
aS'_sha512'
p444
aS'getpass'
p445
aS'pydev_umd'
p446
aS'time'
p447
aS'_sitebuiltins'
p448
aS'gettext'
p449
aS'pydev_versioncheck  timeit'
p450
aS'_socket'
p451
aS'glob'
p452
aS'pydevconsole'
p453
aS'tkinter'
p454
aS'_sqlite3'
p455
aS'grp'
p456
aS'pydevconsole_code_for_ironpython token'
p457
ag23
aS'gzip'
p458
aS'pydevd'
p459
ag61
aS'_ssl'
p460
aS'hashlib'
p461
aS'pydevd_additional_thread_info trace'
p462
aS'_stat'
p463
ag18
aS'pydevd_breakpoints  traceback'
p464
aS'_string'
p465
aS'hmac'
p466
aS'pydevd_comm'
p467
aS'tracemalloc'
p468
aS'_strptime'
p469
aS'html'
p470
aS'pydevd_console'
p471
aS'treenode'
p472
aS'_struct'
p473
aS'http'
p474
aS'pydevd_constants'
p475
aS'tty'
p476
aS'_symtable'
p477
aS'idlelib'
p478
aS'pydevd_custom_frames turtle'
p479
ag57
aS'imaplib'
p480
aS'pydevd_dont_trace   turtledemo'
p481
aS'_testbuffer'
p482
aS'imghdr'
p483
aS'pydevd_exec'
p484
ag47
aS'_testcapi'
p485
ag65
aS'pydevd_exec2'
p486
aS'unicodedata'
p487
aS'_testimportmultiple importlib'
p488
aS'pydevd_file_utils   unittest'
p489
aS'_thread'
p490
ag58
aS'pydevd_frame'
p491
aS'urllib'
p492
aS'_threading_local'
p493
aS'interpreterInfo'
p494
aS'pydevd_frame_utils  uu'
p495
aS'_tkinter'
p496
aS'io'
p497
aS'pydevd_import_class uuid'
p498
aS'_tracemalloc'
p499
aS'ipaddress'
p500
aS'pydevd_io'
p501
aS'venv'
p502
ag52
ag10
aS'pydevd_plugin_utils warnings'
p503
ag76
aS'json'
p504
aS'pydevd_plugins'
p505
aS'wave'
p506
ag37
ag5
aS'pydevd_psyco_stub   weakref'
p507
ag35
aS'lib2to3'
p508
aS'pydevd_referrers'
p509
aS'webbrowser'
p510
aS'aifc'
p511
ag9
aS'pydevd_reload'
p512
ag220
aS'angel'
p513
aS'locale'
p514
aS'pydevd_resolver'
p515
aS'xdrlib'
p516
aS'antigravity'
p517
aS'logging'
p518
aS'pydevd_save_locals  xml'
p519
ag90
aS'lzma'
p520
aS'pydevd_signature'
p521
aS'xmlrpc'
p522
aS'array'
p523
aS'macpath'
p524
aS'pydevd_stackless'
p525
aS'xxlimited'
p526
ag91
aS'macurl2path'
p527
aS'pydevd_trace_api'
p528
aS'xxsubtype'
p529
aS'asynchat'
p530
aS'mailbox'
p531
aS'pydevd_traceproperty zipfile'
p532
aS'asyncio'
p533
aS'mailcap'
p534
aS'pydevd_tracing'
p535
ag56
aS'asyncore'
p536
aS'marshal'
p537
aS'pydevd_utils'
p538
aS'zlib'
p539
aS'atexit'
p540
aS'math'
p541
aS'pydevd_vars'
p542
a.