ccollections
defaultdict
p1
(c__builtin__
list
p2
tRp3
S'heapq'
p4
(lp5
S'cmp_lt'
p6
aS'heapify'
p7
aS'heappop'
p8
aS'heappush'
p9
aS'heappushpop'
p10
aS'heapreplace'
p11
aS'merge'
p12
aS'nlargest'
p13
aS'nsmallest'
p14
asS'code'
p15
(lp16
S'compile_command'
p17
aS'interact'
p18
aS'softspace'
p19
aS'traceback'
p20
asS'interpretation'
p21
(lp22
S'add_trigger'
p23
aS'events'
p24
aS'kast'
p25
aS'self_modify'
p26
aS'substitute_variables'
p27
aS'the'
p28
asS'opcode'
p29
(lp30
S'cmp_op'
p31
aS'hascompare'
p32
aS'hasconst'
p33
aS'hasfree'
p34
aS'hasjabs'
p35
aS'hasjrel'
p36
aS'haslocal'
p37
aS'hasname'
p38
aS'opmap'
p39
aS'opname'
p40
asS'distutils'
p41
(lp42
S'archive_util'
p43
aS'ccompiler'
p44
aS'cmd'
p45
aS'command'
p46
aS'config'
p47
aS'core'
p48
aS'cygwinccompiler'
p49
aS'debug'
p50
aS'dep_util'
p51
aS'dir_util'
p52
aS'dist'
p53
aS'errors'
p54
aS'extension'
p55
aS'fancy_getopt'
p56
aS'file_util'
p57
aS'filelist'
p58
aS'log'
p59
aS'msvccompiler'
p60
aS'spawn'
p61
aS'sysconfig'
p62
aS'unixccompiler'
p63
aS'util'
p64
asS'audioop'
p65
(lp66
S'add'
p67
aS'adpcm2lin'
p68
aS'alaw2lin'
p69
aS'avg'
p70
aS'avgpp'
p71
aS'bias'
p72
aS'cross'
p73
aS'findfactor'
p74
aS'findfit'
p75
aS'findmax'
p76
aS'getsample'
p77
aS'lin2adpcm'
p78
aS'lin2alaw'
p79
aS'lin2lin'
p80
aS'lin2ulaw'
p81
aS'max'
p82
aS'maxpp'
p83
aS'minmax'
p84
aS'mul'
p85
aS'ratecv'
p86
aS'reverse'
p87
aS'rms'
p88
aS'tomono'
p89
aS'tostereo'
p90
aS'ulaw2lin'
p91
asS'functools'
p92
(lp93
S'cmp_to_key'
p94
aS'reduce'
p95
aS'total_ordering'
p96
aS'update_wrapper'
p97
aS'wraps'
p98
asS'pylab'
p99
(lp100
S'False_'
p101
aS'Inf'
p102
aS'Infinity'
p103
aS'NaN'
p104
aS'ScalarType'
p105
aS'True_'
p106
aS'absolute'
p107
aS'absolute_import'
p108
aS'acorr'
p109
ag67
aS'add_docstring'
p110
aS'add_newdoc'
p111
aS'add_newdoc_ufunc'
p112
aS'add_newdocs'
p113
aS'alen'
p114
aS'all'
p115
aS'allclose'
p116
aS'alltrue'
p117
aS'alterdot'
p118
aS'amap'
p119
aS'amax'
p120
aS'amin'
p121
aS'angle'
p122
aS'angle_spectrum'
p123
aS'annotate'
p124
aS'any'
p125
aS'append'
p126
aS'apply_along_axis'
p127
aS'apply_over_axes'
p128
aS'arange'
p129
aS'arccos'
p130
aS'arccosh'
p131
aS'arcsin'
p132
aS'arcsinh'
p133
aS'arctan'
p134
aS'arctan2'
p135
aS'arctanh'
p136
aS'argmax'
p137
aS'argmin'
p138
aS'argpartition'
p139
aS'argsort'
p140
aS'argwhere'
p141
aS'around'
p142
aS'array'
p143
aS'array2string'
p144
aS'array_equal'
p145
aS'array_equiv'
p146
aS'array_repr'
p147
aS'array_split'
p148
aS'array_str'
p149
aS'arrow'
p150
aS'asanyarray'
p151
aS'asarray'
p152
aS'asarray_chkfinite'
p153
aS'ascontiguousarray'
p154
aS'asfarray'
p155
aS'asfortranarray'
p156
aS'asmatrix'
p157
aS'asscalar'
p158
aS'atleast_1d'
p159
aS'atleast_2d'
p160
aS'atleast_3d'
p161
aS'autoscale'
p162
aS'autumn'
p163
aS'average'
p164
aS'axes'
p165
aS'axhline'
p166
aS'axhspan'
p167
aS'axis'
p168
aS'axvline'
p169
aS'axvspan'
p170
aS'bar'
p171
aS'barbs'
p172
aS'barh'
p173
aS'bartlett'
p174
aS'base_repr'
p175
aS'bench'
p176
aS'beta'
p177
aS'binary_repr'
p178
aS'bincount'
p179
aS'binomial'
p180
aS'bitwise_and'
p181
aS'bitwise_not'
p182
aS'bitwise_or'
p183
aS'bitwise_xor'
p184
aS'bivariate_normal'
p185
aS'blackman'
p186
aS'bmat'
p187
aS'bone'
p188
aS'box'
p189
aS'boxplot'
p190
aS'broadcast_arrays'
p191
aS'broken_barh'
p192
aS'busday_count'
p193
aS'busday_offset'
p194
aS'byte_bounds'
p195
aS'c_'
p196
aS'can_cast'
p197
aS'cast'
p198
aS'cbook'
p199
aS'ceil'
p200
aS'center_matrix'
p201
aS'char'
p202
aS'chisquare'
p203
aS'cholesky'
p204
aS'choose'
p205
aS'cla'
p206
aS'clabel'
p207
aS'clf'
p208
aS'clim'
p209
aS'clip'
p210
aS'cm'
p211
aS'cohere'
p212
aS'colorbar'
p213
aS'colormaps'
p214
aS'colors'
p215
aS'column_stack'
p216
aS'common_type'
p217
aS'compare_chararrays'
p218
aS'compress'
p219
aS'concatenate'
p220
aS'cond'
p221
aS'conj'
p222
aS'conjugate'
p223
aS'connect'
p224
aS'contour'
p225
aS'contourf'
p226
aS'convolve'
p227
aS'cool'
p228
aS'copper'
p229
aS'copy'
p230
aS'copysign'
p231
aS'copyto'
p232
aS'corrcoef'
p233
aS'correlate'
p234
aS'cos'
p235
aS'cosh'
p236
aS'count_nonzero'
p237
aS'cov'
p238
ag73
aS'csd'
p239
aS'csv2rec'
p240
aS'ctypeslib'
p241
aS'cumprod'
p242
aS'cumproduct'
p243
aS'cumsum'
p244
aS'date2num'
p245
aS'datestr2num'
p246
aS'datetime'
p247
aS'datetime_as_string'
p248
aS'datetime_data'
p249
aS'dedent'
p250
aS'deg2rad'
p251
aS'degrees'
p252
aS'delaxes'
p253
aS'delete'
p254
aS'demean'
p255
aS'deprecate'
p256
aS'deprecate_with_doc'
p257
aS'det'
p258
aS'detrend'
p259
aS'detrend_linear'
p260
aS'detrend_mean'
p261
aS'detrend_none'
p262
aS'diag'
p263
aS'diag_indices'
p264
aS'diag_indices_from'
p265
aS'diagflat'
p266
aS'diagonal'
p267
aS'diff'
p268
aS'digitize'
p269
aS'disconnect'
p270
aS'disp'
p271
ag53
aS'dist_point_to_segment'
p272
aS'distances_along_curve'
p273
aS'divide'
p274
aS'division'
p275
aS'docstring'
p276
aS'dot'
p277
aS'drange'
p278
aS'draw'
p279
aS'draw_if_interactive'
p280
aS'dsplit'
p281
aS'dstack'
p282
aS'e'
aS'ediff1d'
p283
aS'eig'
p284
aS'eigh'
p285
aS'eigvals'
p286
aS'eigvalsh'
p287
aS'einsum'
p288
aS'emath'
p289
aS'empty'
p290
aS'empty_like'
p291
aS'entropy'
p292
aS'epoch2num'
p293
aS'equal'
p294
aS'errorbar'
p295
aS'euler_gamma'
p296
aS'eventplot'
p297
aS'exception_to_str'
p298
aS'exp'
p299
aS'exp2'
p300
aS'exp_safe'
p301
aS'expand_dims'
p302
aS'expm1'
p303
aS'exponential'
p304
aS'extract'
p305
aS'eye'
p306
aS'f'
aS'fabs'
p307
aS'fastCopyAndTranspose'
p308
aS'fft'
p309
aS'fft2'
p310
aS'fftfreq'
p311
aS'fftn'
p312
aS'fftpack'
p313
aS'fftpack_lite'
p314
aS'fftshift'
p315
aS'fftsurr'
p316
aS'figaspect'
p317
aS'figimage'
p318
aS'figlegend'
p319
aS'fignum_exists'
p320
aS'figtext'
p321
aS'figure'
p322
aS'fill'
p323
aS'fill_between'
p324
aS'fill_betweenx'
p325
aS'fill_diagonal'
p326
aS'find'
p327
aS'find_common_type'
p328
aS'findobj'
p329
aS'fix'
p330
aS'flag'
p331
aS'flatnonzero'
p332
aS'flatten'
p333
aS'fliplr'
p334
aS'flipud'
p335
aS'floor'
p336
aS'floor_divide'
p337
aS'fmax'
p338
aS'fmin'
p339
aS'fmod'
p340
aS'frange'
p341
aS'frexp'
p342
aS'frombuffer'
p343
aS'fromfile'
p344
aS'fromfunction'
p345
aS'fromiter'
p346
aS'frompyfunc'
p347
aS'fromregex'
p348
aS'fromstring'
p349
aS'full'
p350
aS'full_like'
p351
aS'fv'
p352
aS'gamma'
p353
aS'gca'
p354
aS'gcf'
p355
aS'gci'
p356
aS'genfromtxt'
p357
aS'geometric'
p358
aS'get'
p359
aS'get_array_wrap'
p360
aS'get_backend'
p361
aS'get_cmap'
p362
aS'get_current_fig_manager'
p363
aS'get_figlabels'
p364
aS'get_fignums'
p365
aS'get_include'
p366
aS'get_plot_commands'
p367
aS'get_printoptions'
p368
aS'get_scale_docs'
p369
aS'get_scale_names'
p370
aS'get_sparse_matrix'
p371
aS'get_state'
p372
aS'get_xyz_where'
p373
aS'getbuffer'
p374
aS'getbufsize'
p375
aS'geterr'
p376
aS'geterrcall'
p377
aS'geterrobj'
p378
aS'getp'
p379
aS'ginput'
p380
aS'gradient'
p381
aS'gray'
p382
aS'greater'
p383
aS'greater_equal'
p384
aS'grid'
p385
aS'griddata'
p386
aS'gumbel'
p387
aS'hamming'
p388
aS'hanning'
p389
aS'helper'
p390
aS'hexbin'
p391
aS'hfft'
p392
aS'hist'
p393
aS'hist2d'
p394
aS'histogram'
p395
aS'histogram2d'
p396
aS'histogramdd'
p397
aS'hlines'
p398
aS'hold'
p399
aS'hot'
p400
aS'hsplit'
p401
aS'hstack'
p402
aS'hsv'
p403
aS'hypergeometric'
p404
aS'hypot'
p405
aS'i0'
p406
aS'identity'
p407
aS'ifft'
p408
aS'ifft2'
p409
aS'ifftn'
p410
aS'ifftshift'
p411
aS'ihfft'
p412
aS'imag'
p413
aS'imread'
p414
aS'imsave'
p415
aS'imshow'
p416
aS'in1d'
p417
aS'index_exp'
p418
aS'indices'
p419
aS'inf'
p420
aS'info'
p421
aS'infty'
p422
aS'inner'
p423
aS'insert'
p424
aS'inside_poly'
p425
aS'int_asbuffer'
p426
aS'interactive'
p427
aS'interp'
p428
aS'intersect1d'
p429
aS'inv'
p430
aS'invert'
p431
aS'ioff'
p432
aS'ion'
p433
aS'ipmt'
p434
aS'irfft'
p435
aS'irfft2'
p436
aS'irfftn'
p437
aS'irr'
p438
aS'is_busday'
p439
aS'is_closed_polygon'
p440
aS'is_numlike'
p441
aS'is_string_like'
p442
aS'isclose'
p443
aS'iscomplex'
p444
aS'iscomplexobj'
p445
aS'isfinite'
p446
aS'isfortran'
p447
aS'ishold'
p448
aS'isinf'
p449
aS'isinteractive'
p450
aS'isnan'
p451
aS'isneginf'
p452
aS'isposinf'
p453
aS'ispower2'
p454
aS'isreal'
p455
aS'isrealobj'
p456
aS'isscalar'
p457
aS'issctype'
p458
aS'issubclass_'
p459
aS'issubdtype'
p460
aS'issubsctype'
p461
aS'isvector'
p462
aS'iterable'
p463
aS'ix_'
p464
aS'jet'
p465
aS'kaiser'
p466
aS'kron'
p467
aS'l1norm'
p468
aS'l2norm'
p469
aS'lapack_lite'
p470
aS'laplace'
p471
aS'ldexp'
p472
aS'left_shift'
p473
aS'legend'
p474
aS'less'
p475
aS'less_equal'
p476
aS'lexsort'
p477
aS'linalg'
p478
aS'linspace'
p479
aS'little_endian'
p480
aS'load'
p481
aS'loads'
p482
aS'loadtxt'
p483
aS'locator_params'
p484
ag59
aS'log10'
p485
aS'log1p'
p486
aS'log2'
p487
aS'logaddexp'
p488
aS'logaddexp2'
p489
aS'logical_and'
p490
aS'logical_not'
p491
aS'logical_or'
p492
aS'logical_xor'
p493
aS'logistic'
p494
aS'loglog'
p495
aS'lognormal'
p496
aS'logseries'
p497
aS'logspace'
p498
aS'longest_contiguous_ones'
p499
aS'longest_ones'
p500
aS'lookfor'
p501
aS'lstsq'
p502
aS'ma'
p503
aS'mafromtxt'
p504
aS'magnitude_spectrum'
p505
aS'margins'
p506
aS'mask_indices'
p507
aS'mat'
p508
aS'math'
p509
aS'matplotlib'
p510
aS'matrix_power'
p511
aS'matrix_rank'
p512
aS'matshow'
p513
aS'maximum'
p514
aS'maximum_sctype'
p515
aS'may_share_memory'
p516
aS'mean'
p517
aS'median'
p518
aS'meshgrid'
p519
aS'mgrid'
p520
aS'min_scalar_type'
p521
aS'minimum'
p522
aS'minorticks_off'
p523
aS'minorticks_on'
p524
aS'mintypecode'
p525
aS'mirr'
p526
aS'mlab'
p527
aS'mod'
p528
aS'modf'
p529
aS'movavg'
p530
aS'mpl'
p531
aS'msort'
p532
aS'multinomial'
p533
aS'multiply'
p534
aS'multivariate_normal'
p535
aS'mx2num'
p536
aS'nan'
p537
aS'nan_to_num'
p538
aS'nanargmax'
p539
aS'nanargmin'
p540
aS'nanmax'
p541
aS'nanmean'
p542
aS'nanmedian'
p543
aS'nanmin'
p544
aS'nanpercentile'
p545
aS'nanstd'
p546
aS'nansum'
p547
aS'nanvar'
p548
aS'nbytes'
p549
aS'ndfromtxt'
p550
aS'ndim'
p551
aS'negative'
p552
aS'negative_binomial'
p553
aS'nested_iters'
p554
aS'new_figure_manager'
p555
aS'newaxis'
p556
aS'newbuffer'
p557
aS'nextafter'
p558
aS'noncentral_chisquare'
p559
aS'noncentral_f'
p560
aS'nonzero'
p561
aS'norm'
p562
aS'norm_flat'
p563
aS'normal'
p564
aS'normalize'
p565
aS'normpdf'
p566
aS'not_equal'
p567
aS'np'
p568
aS'nper'
p569
aS'npv'
p570
aS'num2date'
p571
aS'num2epoch'
p572
aS'obj2sctype'
p573
aS'ogrid'
p574
aS'ones'
p575
aS'ones_like'
p576
aS'outer'
p577
aS'over'
p578
aS'packbits'
p579
aS'pad'
p580
aS'pareto'
p581
aS'partition'
p582
aS'path_length'
p583
aS'pause'
p584
aS'pcolor'
p585
aS'pcolormesh'
p586
aS'percentile'
p587
aS'permutation'
p588
aS'phase_spectrum'
p589
aS'pi'
p590
aS'pie'
p591
aS'piecewise'
p592
aS'pink'
p593
aS'pinv'
p594
aS'pkgload'
p595
aS'place'
p596
aS'plot'
p597
aS'plot_date'
p598
aS'plotfile'
p599
aS'plotting'
p600
aS'plt'
p601
aS'pmt'
p602
aS'poisson'
p603
aS'polar'
p604
aS'poly'
p605
aS'poly_below'
p606
aS'poly_between'
p607
aS'polyadd'
p608
aS'polyder'
p609
aS'polydiv'
p610
aS'polyfit'
p611
aS'polyint'
p612
aS'polymul'
p613
aS'polysub'
p614
aS'polyval'
p615
aS'power'
p616
aS'ppmt'
p617
aS'prctile'
p618
aS'prctile_rank'
p619
aS'prepca'
p620
aS'print_function'
p621
aS'prism'
p622
aS'prod'
p623
aS'product'
p624
aS'promote_types'
p625
aS'psd'
p626
aS'ptp'
p627
aS'put'
p628
aS'putmask'
p629
aS'pv'
p630
aS'pylab_setup'
p631
aS'qr'
p632
aS'quiver'
p633
aS'quiverkey'
p634
aS'r_'
p635
aS'rad2deg'
p636
aS'radians'
p637
aS'rand'
p638
aS'randint'
p639
aS'randn'
p640
aS'random'
p641
aS'random_integers'
p642
aS'random_sample'
p643
aS'ranf'
p644
aS'rank'
p645
aS'rate'
p646
aS'ravel'
p647
aS'ravel_multi_index'
p648
aS'rayleigh'
p649
aS'rc'
p650
aS'rcParams'
p651
aS'rcParamsDefault'
p652
aS'rc_context'
p653
aS'rcdefaults'
p654
aS'real'
p655
aS'real_if_close'
p656
aS'rec'
p657
aS'rec2csv'
p658
aS'rec_append_fields'
p659
aS'rec_drop_fields'
p660
aS'rec_join'
p661
aS'recfromcsv'
p662
aS'recfromtxt'
p663
aS'reciprocal'
p664
aS'register_cmap'
p665
aS'remainder'
p666
aS'repeat'
p667
aS'require'
p668
aS'reshape'
p669
aS'resize'
p670
aS'restoredot'
p671
aS'result_type'
p672
aS'rfft'
p673
aS'rfft2'
p674
aS'rfftfreq'
p675
aS'rfftn'
p676
aS'rgrids'
p677
aS'right_shift'
p678
aS'rint'
p679
aS'rk4'
p680
aS'rms_flat'
p681
aS'roll'
p682
aS'rollaxis'
p683
aS'roots'
p684
aS'rot90'
p685
aS'round_'
p686
aS'row_stack'
p687
aS's_'
p688
aS'safe_eval'
p689
aS'sample'
p690
aS'save'
p691
aS'savefig'
p692
aS'savetxt'
p693
aS'savez'
p694
aS'savez_compressed'
p695
aS'sca'
p696
aS'scatter'
p697
aS'sci'
p698
aS'sctype2char'
p699
aS'sctypeDict'
p700
aS'sctypeNA'
p701
aS'sctypes'
p702
aS'searchsorted'
p703
aS'seed'
p704
aS'segments_intersect'
p705
aS'select'
p706
aS'semilogx'
p707
aS'semilogy'
p708
aS'set_cmap'
p709
aS'set_numeric_ops'
p710
aS'set_printoptions'
p711
aS'set_state'
p712
aS'set_string_function'
p713
aS'setbufsize'
p714
aS'setdiff1d'
p715
aS'seterr'
p716
aS'seterrcall'
p717
aS'seterrobj'
p718
aS'setp'
p719
aS'setxor1d'
p720
aS'shape'
p721
aS'show'
p722
aS'show_config'
p723
aS'shuffle'
p724
aS'sign'
p725
aS'signbit'
p726
aS'sin'
p727
aS'sinc'
p728
aS'sinh'
p729
aS'six'
p730
aS'size'
p731
aS'slogdet'
p732
aS'slopes'
p733
aS'solve'
p734
aS'sometrue'
p735
aS'sort'
p736
aS'sort_complex'
p737
aS'source'
p738
aS'spacing'
p739
aS'specgram'
p740
aS'spectral'
p741
aS'split'
p742
aS'spring'
p743
aS'spy'
p744
aS'sqrt'
p745
aS'square'
p746
aS'squeeze'
p747
aS'stackplot'
p748
aS'standard_cauchy'
p749
aS'standard_exponential'
p750
aS'standard_gamma'
p751
aS'standard_normal'
p752
aS'standard_t'
p753
aS'std'
p754
aS'stem'
p755
aS'step'
p756
aS'stineman_interp'
p757
aS'streamplot'
p758
aS'style'
p759
aS'subplot'
p760
aS'subplot2grid'
p761
aS'subplot_tool'
p762
aS'subplots'
p763
aS'subplots_adjust'
p764
aS'subtract'
p765
aS'sum'
p766
aS'summer'
p767
aS'suptitle'
p768
aS'svd'
p769
aS'swapaxes'
p770
aS'switch_backend'
p771
aS'table'
p772
aS'take'
p773
aS'tan'
p774
aS'tanh'
p775
aS'tensordot'
p776
aS'tensorinv'
p777
aS'tensorsolve'
p778
aS'test'
p779
aS'text'
p780
aS'thetagrids'
p781
aS'tick_params'
p782
aS'ticklabel_format'
p783
aS'tight_layout'
p784
aS'tile'
p785
aS'title'
p786
aS'trace'
p787
aS'transpose'
p788
aS'trapz'
p789
aS'tri'
p790
aS'triangular'
p791
aS'tricontour'
p792
aS'tricontourf'
p793
aS'tril'
p794
aS'tril_indices'
p795
aS'tril_indices_from'
p796
aS'trim_zeros'
p797
aS'tripcolor'
p798
aS'triplot'
p799
aS'triu'
p800
aS'triu_indices'
p801
aS'triu_indices_from'
p802
aS'true_divide'
p803
aS'trunc'
p804
aS'twinx'
p805
aS'twiny'
p806
aS'typeDict'
p807
aS'typeNA'
p808
aS'typecodes'
p809
aS'typename'
p810
aS'unicode_literals'
p811
aS'uniform'
p812
aS'union1d'
p813
aS'unique'
p814
aS'unpackbits'
p815
aS'unravel_index'
p816
aS'unwrap'
p817
aS'vander'
p818
aS'var'
p819
aS'vdot'
p820
aS'vector_lengths'
p821
aS'violinplot'
p822
aS'vlines'
p823
aS'vonmises'
p824
aS'vsplit'
p825
aS'vstack'
p826
aS'waitforbuttonpress'
p827
aS'wald'
p828
aS'warnings'
p829
aS'weibull'
p830
aS'where'
p831
aS'who'
p832
aS'window_hanning'
p833
aS'window_none'
p834
aS'winter'
p835
aS'xcorr'
p836
aS'xkcd'
p837
aS'xlabel'
p838
aS'xlim'
p839
aS'xscale'
p840
aS'xticks'
p841
aS'ylabel'
p842
aS'ylim'
p843
aS'yscale'
p844
aS'yticks'
p845
aS'zeros'
p846
aS'zeros_like'
p847
aS'zipf'
p848
asS'tty'
p849
(lp850
S'setcbreak'
p851
aS'setraw'
p852
aS'tcdrain'
p853
aS'tcflow'
p854
aS'tcflush'
p855
aS'tcgetattr'
p856
aS'tcsendbreak'
p857
aS'tcsetattr'
p858
asg247
(lp859
S'datetime_CAPI'
p860
asg62
(lp861
S'get_config_h_filename'
p862
aS'get_config_var'
p863
aS'get_config_vars'
p864
aS'get_makefile_filename'
p865
aS'get_path'
p866
aS'get_path_names'
p867
aS'get_paths'
p868
aS'get_platform'
p869
aS'get_python_version'
p870
aS'get_scheme_names'
p871
aS'is_python_build'
p872
aS'parse_config_h'
p873
asS'pkg_resources'
p874
(lp875
g108
aS'add_activation_listener'
p876
aS'cached_files'
p877
aS'cleanup_resources'
p878
aS'collections'
p879
aS'compatible_platforms'
p880
aS'darwinVersionString'
p881
aS'declare_namespace'
p882
aS'email'
p883
aS'empty_provider'
p884
aS'ensure_directory'
p885
aS'evaluate_marker'
p886
aS'extraction_error'
p887
aS'extraction_path'
p888
aS'file_ns_handler'
p889
aS'find_distributions'
p890
aS'find_eggs_in_zip'
p891
aS'find_nothing'
p892
aS'find_on_path'
p893
aS'fixup_namespace_packages'
p894
ag92
aS'get_build_platform'
p895
aS'get_cache_path'
p896
aS'get_default_cache'
p897
aS'get_distribution'
p898
aS'get_entry_info'
p899
aS'get_entry_map'
p900
aS'get_importer'
p901
ag869
aS'get_provider'
p902
aS'get_supported_platform'
p903
aS'importlib_machinery'
p904
aS'invalid_marker'
p905
aS'io'
p906
aS'isdir'
p907
aS'issue_warning'
p908
aS'iter_entry_points'
p909
aS'iteritems'
p910
aS'load_entry_point'
p911
aS'macosVersionString'
p912
aS'normalize_path'
p913
aS'null_ns_handler'
p914
aS'operator'
p915
aS'os_open'
p916
aS'packaging'
p917
aS'parse_requirements'
p918
aS'parse_version'
p919
aS'parser'
p920
ag874
aS'pkgutil'
p921
aS'platform'
p922
aS'plistlib'
p923
aS'postprocess'
p924
aS're'
p925
aS'register_finder'
p926
aS'register_loader_type'
p927
aS'register_namespace_handler'
p928
ag668
aS'resource_exists'
p929
aS'resource_filename'
p930
aS'resource_isdir'
p931
aS'resource_listdir'
p932
aS'resource_stream'
p933
aS'resource_string'
p934
aS'run_main'
p935
aS'run_script'
p936
aS'safe_extra'
p937
aS'safe_name'
p938
aS'safe_version'
p939
aS'set_extraction_path'
p940
ag742
aS'split_sections'
p941
aS'string_types'
p942
aS'symbol'
p943
aS'tempfile'
p944
aS'textwrap'
p945
aS'time'
p946
aS'to_filename'
p947
aS'token'
p948
aS'urlparse'
p949
aS'urlunparse'
p950
ag829
aS'working_set'
p951
aS'yield_lines'
p952
aS'zipfile'
p953
aS'zipimport'
p954
asS'objc'
p955
(lp956
S'Accessor'
p957
aS'Category'
p958
aS'IBAction'
p959
aS'IBOutlet'
p960
aS'accessor'
p961
aS'addConvenienceForBasicMapping'
p962
aS'addConvenienceForBasicSequence'
p963
aS'addConvenienceForClass'
p964
aS'allocateBuffer'
p965
aS'callbackFor'
p966
aS'classAddMethod'
p967
aS'classAddMethods'
p968
aS'context'
p969
aS'createOpaquePointerType'
p970
aS'createStructAlias'
p971
aS'createStructType'
p972
aS'currentBundle'
p973
aS'dyld_find'
p974
aS'dyld_framework'
p975
aS'dyld_library'
p976
aS'getAssociatedObject'
p977
aS'getClassList'
p978
aS'getInstanceVariable'
p979
aS'getStrBridgeEnabled'
p980
aS'getUseKVOForSetattr'
p981
aS'getVerbose'
p982
aS'infoForFramework'
p983
aS'initFrameworkWrapper'
p984
aS'instancemethod'
p985
aS'listInstanceVariables'
p986
aS'loadBundle'
p987
aS'loadBundleFunctions'
p988
aS'loadBundleVariables'
p989
aS'loadFunctionList'
p990
aS'loadSpecialVar'
p991
aS'lookUpClass'
p992
aS'namedSelector'
p993
aS'namedselector'
p994
aS'nil'
p995
aS'nsdata__getitem__'
p996
aS'nsdata__getslice__'
p997
aS'nsdata__new__'
p998
aS'nsdata__str__'
p999
aS'nsmutabledata__setitem__'
p1000
aS'nsmutabledata__setslice__'
p1001
aS'objc'
p1002
aS'options'
p1003
aS'parseBridgeSupport'
p1004
aS'pathForFramework'
p1005
ag922
aS'propertiesForClass'
p1006
aS'protocolNamed'
p1007
aS'protocolsForClass'
p1008
aS'protocolsForProcess'
p1009
aS'pyobjc_id'
p1010
aS'recycleAutoreleasePool'
p1011
aS'registerABCForClass'
p1012
aS'registerCFSignature'
p1013
aS'registerDateType'
p1014
aS'registerListType'
p1015
aS'registerMappingType'
p1016
aS'registerMetaDataForSelector'
p1017
aS'registerSetType'
p1018
aS'registerStructAlias'
p1019
aS'removeAssociatedObjects'
p1020
aS'removeAutoreleasePool'
p1021
aS'repythonify'
p1022
aS'selectorFor'
p1023
aS'setAssociatedObject'
p1024
aS'setInstanceVariable'
p1025
aS'setStrBridgeEnabled'
p1026
aS'setUseKVOForSetattr'
p1027
aS'setVerbose'
p1028
aS'signature'
p1029
aS'splitSignature'
p1030
aS'splitStructSignature'
p1031
aS'synthesize'
p1032
aS'typedAccessor'
p1033
aS'typedSelector'
p1034
ag829
asS'runpy'
p1035
(lp1036
S'get_loader'
p1037
aS'imp'
p1038
aS'read_code'
p1039
aS'run_module'
p1040
aS'run_path'
p1041
asS'gc'
p1042
(lp1043
S'collect'
p1044
aS'disable'
p1045
aS'enable'
p1046
aS'garbage'
p1047
aS'get_count'
p1048
aS'get_debug'
p1049
aS'get_objects'
p1050
aS'get_referents'
p1051
aS'get_referrers'
p1052
aS'get_threshold'
p1053
aS'is_tracked'
p1054
aS'isenabled'
p1055
aS'set_debug'
p1056
aS'set_threshold'
p1057
asS'networkx'
p1058
(lp1059
S'LCF_graph'
p1060
ag108
aS'adamic_adar_index'
p1061
aS'adj_matrix'
p1062
aS'adjacency_matrix'
p1063
aS'adjacency_spectrum'
p1064
aS'adjlist'
p1065
aS'algebraic_connectivity'
p1066
aS'algebraicconnectivity'
p1067
aS'algorithms'
p1068
ag115
aS'all_neighbors'
p1069
aS'all_pairs_dijkstra_path'
p1070
aS'all_pairs_dijkstra_path_length'
p1071
aS'all_pairs_node_connectivity'
p1072
aS'all_pairs_shortest_path'
p1073
aS'all_pairs_shortest_path_length'
p1074
aS'all_shortest_paths'
p1075
aS'all_simple_paths'
p1076
aS'ancestors'
p1077
aS'approximate_current_flow_betweenness_centrality'
p1078
aS'articulation_points'
p1079
aS'assortativity'
p1080
aS'astar'
p1081
aS'astar_path'
p1082
aS'astar_path_length'
p1083
aS'attr_matrix'
p1084
aS'attr_sparse_matrix'
p1085
aS'attracting'
p1086
aS'attracting_component_subgraphs'
p1087
aS'attracting_components'
p1088
aS'attribute_assortativity_coefficient'
p1089
aS'attribute_mixing_dict'
p1090
aS'attribute_mixing_matrix'
p1091
aS'attrmatrix'
p1092
aS'authority_matrix'
p1093
aS'average_clustering'
p1094
aS'average_degree_connectivity'
p1095
aS'average_neighbor_degree'
p1096
aS'average_node_connectivity'
p1097
aS'average_shortest_path_length'
p1098
aS'balanced_tree'
p1099
aS'barabasi_albert_graph'
p1100
aS'barbell_graph'
p1101
aS'bellman_ford'
p1102
aS'betweenness'
p1103
aS'betweenness_centrality'
p1104
aS'betweenness_centrality_source'
p1105
aS'betweenness_centrality_subset'
p1106
aS'betweenness_subset'
p1107
aS'bfs_edges'
p1108
aS'bfs_predecessors'
p1109
aS'bfs_successors'
p1110
aS'bfs_tree'
p1111
aS'biconnected'
p1112
aS'biconnected_component_edges'
p1113
aS'biconnected_component_subgraphs'
p1114
aS'biconnected_components'
p1115
aS'bidirectional_dijkstra'
p1116
aS'bidirectional_shortest_path'
p1117
aS'binary'
p1118
aS'binomial_graph'
p1119
aS'bipartite'
p1120
aS'bipartite_alternating_havel_hakimi_graph'
p1121
aS'bipartite_configuration_model'
p1122
aS'bipartite_gnmk_random_graph'
p1123
aS'bipartite_havel_hakimi_graph'
p1124
aS'bipartite_preferential_attachment_graph'
p1125
aS'bipartite_random_graph'
p1126
aS'bipartite_reverse_havel_hakimi_graph'
p1127
aS'block'
p1128
aS'blockmodel'
p1129
aS'boundary'
p1130
aS'breadth_first_search'
p1131
aS'bull_graph'
p1132
aS'capacity_scaling'
p1133
aS'cartesian_product'
p1134
aS'caveman_graph'
p1135
aS'center'
p1136
aS'centrality'
p1137
aS'chordal'
p1138
aS'chordal_alg'
p1139
aS'chordal_graph_cliques'
p1140
aS'chordal_graph_treewidth'
p1141
aS'chvatal_graph'
p1142
aS'circular_ladder_graph'
p1143
aS'circular_layout'
p1144
aS'classes'
p1145
aS'classic'
p1146
aS'clique'
p1147
aS'cliques_containing_node'
p1148
aS'closeness'
p1149
aS'closeness_centrality'
p1150
aS'closeness_vitality'
p1151
aS'cluster'
p1152
aS'clustering'
p1153
aS'cn_soundarajan_hopcroft'
p1154
aS'common_neighbors'
p1155
aS'communicability'
p1156
aS'communicability_alg'
p1157
aS'communicability_betweenness_centrality'
p1158
aS'communicability_centrality'
p1159
aS'communicability_centrality_exp'
p1160
aS'communicability_exp'
p1161
aS'community'
p1162
aS'complement'
p1163
aS'complete_bipartite_graph'
p1164
aS'complete_graph'
p1165
aS'components'
p1166
aS'compose'
p1167
aS'compose_all'
p1168
aS'condensation'
p1169
aS'configuration_model'
p1170
aS'connected'
p1171
aS'connected_caveman_graph'
p1172
aS'connected_component_subgraphs'
p1173
aS'connected_components'
p1174
aS'connected_double_edge_swap'
p1175
aS'connected_watts_strogatz_graph'
p1176
aS'connectivity'
p1177
aS'convert'
p1178
aS'convert_matrix'
p1179
aS'convert_node_labels_to_integers'
p1180
ag230
ag48
aS'core_number'
p1181
aS'correlation'
p1182
aS'cost_of_flow'
p1183
aS'could_be_isomorphic'
p1184
aS'create_empty_copy'
p1185
aS'cubical_graph'
p1186
aS'current_flow_betweenness'
p1187
aS'current_flow_betweenness_centrality'
p1188
aS'current_flow_betweenness_centrality_subset'
p1189
aS'current_flow_betweenness_subset'
p1190
aS'current_flow_closeness'
p1191
aS'current_flow_closeness_centrality'
p1192
aS'cycle_basis'
p1193
aS'cycle_graph'
p1194
aS'cycles'
p1195
aS'dag'
p1196
aS'davis_southern_women_graph'
p1197
aS'degree'
p1198
aS'degree_alg'
p1199
aS'degree_assortativity_coefficient'
p1200
aS'degree_centrality'
p1201
aS'degree_histogram'
p1202
aS'degree_mixing_dict'
p1203
aS'degree_mixing_matrix'
p1204
aS'degree_pearson_correlation_coefficient'
p1205
aS'degree_seq'
p1206
aS'degree_sequence_tree'
p1207
aS'dense'
p1208
aS'dense_gnm_random_graph'
p1209
aS'density'
p1210
aS'depth_first_search'
p1211
aS'desargues_graph'
p1212
aS'descendants'
p1213
aS'dfs_edges'
p1214
aS'dfs_labeled_edges'
p1215
aS'dfs_postorder_nodes'
p1216
aS'dfs_predecessors'
p1217
aS'dfs_preorder_nodes'
p1218
aS'dfs_successors'
p1219
aS'dfs_tree'
p1220
aS'diameter'
p1221
aS'diamond_graph'
p1222
aS'difference'
p1223
aS'digraph'
p1224
aS'dijkstra_path'
p1225
aS'dijkstra_path_length'
p1226
aS'dijkstra_predecessor_and_distance'
p1227
aS'directed'
p1228
aS'directed_configuration_model'
p1229
aS'directed_havel_hakimi_graph'
p1230
aS'directed_laplacian_matrix'
p1231
aS'disjoint_union'
p1232
aS'disjoint_union_all'
p1233
aS'dispersion'
p1234
aS'distance_measures'
p1235
aS'distance_regular'
p1236
aS'dodecahedral_graph'
p1237
aS'dominating'
p1238
aS'dominating_set'
p1239
aS'dorogovtsev_goltsev_mendes_graph'
p1240
aS'double_edge_swap'
p1241
ag279
aS'draw_circular'
p1242
aS'draw_graphviz'
p1243
aS'draw_networkx'
p1244
aS'draw_networkx_edge_labels'
p1245
aS'draw_networkx_edges'
p1246
aS'draw_networkx_labels'
p1247
aS'draw_networkx_nodes'
p1248
aS'draw_random'
p1249
aS'draw_shell'
p1250
aS'draw_spectral'
p1251
aS'draw_spring'
p1252
aS'drawing'
p1253
aS'eccentricity'
p1254
aS'edge_betweenness'
p1255
aS'edge_betweenness_centrality'
p1256
aS'edge_betweenness_centrality_subset'
p1257
aS'edge_boundary'
p1258
aS'edge_connectivity'
p1259
aS'edge_current_flow_betweenness_centrality'
p1260
aS'edge_current_flow_betweenness_centrality_subset'
p1261
aS'edge_load'
p1262
aS'edgelist'
p1263
aS'edges'
p1264
aS'edges_iter'
p1265
aS'ego'
p1266
aS'ego_graph'
p1267
aS'eigenvector'
p1268
aS'eigenvector_centrality'
p1269
aS'eigenvector_centrality_numpy'
p1270
aS'empty_graph'
p1271
aS'erdos_renyi_graph'
p1272
aS'estrada_index'
p1273
aS'euler'
p1274
aS'eulerian_circuit'
p1275
aS'exception'
p1276
aS'expected_degree_graph'
p1277
aS'external'
p1278
aS'fast_could_be_isomorphic'
p1279
aS'fast_gnp_random_graph'
p1280
aS'faster_could_be_isomorphic'
p1281
aS'fiedler_vector'
p1282
aS'find_cliques'
p1283
aS'find_cliques_recursive'
p1284
aS'find_cores'
p1285
aS'find_induced_nodes'
p1286
aS'florentine_families_graph'
p1287
aS'flow'
p1288
aS'flow_hierarchy'
p1289
aS'flow_matrix'
p1290
aS'floyd_warshall'
p1291
aS'floyd_warshall_numpy'
p1292
aS'floyd_warshall_predecessor_and_distance'
p1293
aS'freeze'
p1294
aS'from_agraph'
p1295
aS'from_dict_of_dicts'
p1296
aS'from_dict_of_lists'
p1297
aS'from_edgelist'
p1298
aS'from_numpy_matrix'
p1299
aS'from_scipy_sparse_matrix'
p1300
aS'frucht_graph'
p1301
aS'fruchterman_reingold_layout'
p1302
aS'full_rary_tree'
p1303
aS'function'
p1304
aS'gaussian_random_partition_graph'
p1305
aS'general_random_intersection_graph'
p1306
aS'generate_adjlist'
p1307
aS'generate_edgelist'
p1308
aS'generate_gexf'
p1309
aVgenerate_gml
p1310
aS'generate_graph6'
p1311
aS'generate_graphml'
p1312
aS'generate_multiline_adjlist'
p1313
aS'generate_pajek'
p1314
aS'generate_sparse6'
p1315
aS'generators'
p1316
aS'generic'
p1317
aS'geographical_threshold_graph'
p1318
ag358
aS'get_edge_attributes'
p1319
aS'get_node_attributes'
p1320
aS'gexf'
p1321
aS'global_parameters'
p1322
aS'gml'
p1323
aS'gn_graph'
p1324
aS'gnc_graph'
p1325
aS'gnm_random_graph'
p1326
aS'gnp_random_graph'
p1327
aS'gnr_graph'
p1328
aS'goldberg_radzik'
p1329
aS'google_matrix'
p1330
aS'gpickle'
p1331
aS'graph'
p1332
aS'graph6'
p1333
aS'graph_clique_number'
p1334
aS'graph_number_of_cliques'
p1335
aS'graphical'
p1336
aS'graphmatrix'
p1337
aS'graphml'
p1338
aS'graphviz_layout'
p1339
aS'grid_2d_graph'
p1340
aS'grid_graph'
p1341
aS'has_path'
p1342
aS'havel_hakimi_graph'
p1343
aS'heawood_graph'
p1344
aS'hierarchy'
p1345
aS'hits'
p1346
aS'hits_alg'
p1347
aS'hits_numpy'
p1348
aS'hits_scipy'
p1349
aS'house_graph'
p1350
aS'house_x_graph'
p1351
aS'hub_matrix'
p1352
aS'hybrid'
p1353
aS'hypercube_graph'
p1354
aS'icosahedral_graph'
p1355
aS'in_degree_centrality'
p1356
aS'incidence_matrix'
p1357
ag421
aS'information_centrality'
p1358
aS'intersection'
p1359
aS'intersection_all'
p1360
aS'intersection_array'
p1361
aS'is_aperiodic'
p1362
aS'is_arborescence'
p1363
aS'is_attracting_component'
p1364
aS'is_biconnected'
p1365
aS'is_bipartite'
p1366
aS'is_branching'
p1367
aS'is_chordal'
p1368
aS'is_connected'
p1369
aS'is_digraphical'
p1370
aS'is_directed'
p1371
aS'is_directed_acyclic_graph'
p1372
aS'is_distance_regular'
p1373
aS'is_dominating_set'
p1374
aS'is_eulerian'
p1375
aS'is_forest'
p1376
aS'is_frozen'
p1377
aS'is_graphical'
p1378
aS'is_isolate'
p1379
aS'is_isomorphic'
p1380
aS'is_kl_connected'
p1381
aS'is_multigraphical'
p1382
aS'is_pseudographical'
p1383
aS'is_semiconnected'
p1384
aS'is_strongly_connected'
p1385
aS'is_tree'
p1386
aS'is_valid_degree_sequence'
p1387
aS'is_valid_degree_sequence_erdos_gallai'
p1388
aS'is_valid_degree_sequence_havel_hakimi'
p1389
aS'is_weakly_connected'
p1390
aS'isolate'
p1391
aS'isolates'
p1392
aS'isomorphism'
p1393
aS'jaccard_coefficient'
p1394
aS'k_clique_communities'
p1395
aS'k_core'
p1396
aS'k_corona'
p1397
aS'k_crust'
p1398
aS'k_nearest_neighbors'
p1399
aS'k_random_intersection_graph'
p1400
aS'k_shell'
p1401
aS'karate_club_graph'
p1402
aS'katz'
p1403
aS'katz_centrality'
p1404
aS'katz_centrality_numpy'
p1405
aS'kclique'
p1406
aS'kl_connected_subgraph'
p1407
aS'kosaraju_strongly_connected_components'
p1408
aS'krackhardt_kite_graph'
p1409
aS'kruskal_mst'
p1410
aS'ladder_graph'
p1411
aS'laplacian_matrix'
p1412
aS'laplacian_spectrum'
p1413
aS'laplacianmatrix'
p1414
aS'layout'
p1415
aS'leda'
p1416
aS'lexicographic_product'
p1417
ag478
aS'line'
p1418
aS'line_graph'
p1419
aS'link_analysis'
p1420
aS'link_prediction'
p1421
ag481
aS'load_centrality'
p1422
aS'lollipop_graph'
p1423
aS'make_clique_bipartite'
p1424
aS'make_max_clique_graph'
p1425
aS'make_small_graph'
p1426
aS'matching'
p1427
aS'max_flow_min_cost'
p1428
aS'max_weight_matching'
p1429
aS'maximal_independent_set'
p1430
aS'maximal_matching'
p1431
aS'maximum_flow'
p1432
aS'maximum_flow_value'
p1433
aS'min_cost_flow'
p1434
aS'min_cost_flow_cost'
p1435
aS'minimum_cut'
p1436
aS'minimum_cut_value'
p1437
aS'minimum_edge_cut'
p1438
aS'minimum_node_cut'
p1439
aS'minimum_spanning_edges'
p1440
aS'minimum_spanning_tree'
p1441
aS'mis'
p1442
aS'mixing'
p1443
aS'mixing_dict'
p1444
aS'moebius_kantor_graph'
p1445
aS'mst'
p1446
aS'multidigraph'
p1447
aS'multigraph'
p1448
aS'multiline_adjlist'
p1449
aS'navigable_small_world_graph'
p1450
aS'negative_edge_cycle'
p1451
aS'neighbor_degree'
p1452
aS'neighbors'
p1453
aS'network_simplex'
p1454
ag1058
aS'newman_watts_strogatz_graph'
p1455
aS'node_attribute_xy'
p1456
aS'node_boundary'
p1457
aS'node_clique_number'
p1458
aS'node_connected_component'
p1459
aS'node_connectivity'
p1460
aS'node_degree_xy'
p1461
aS'nodes'
p1462
aS'nodes_iter'
p1463
aS'non_edges'
p1464
aS'non_neighbors'
p1465
aS'normalized_laplacian_matrix'
p1466
aS'null_graph'
p1467
aS'number_attracting_components'
p1468
aS'number_connected_components'
p1469
aS'number_of_cliques'
p1470
aS'number_of_edges'
p1471
aS'number_of_nodes'
p1472
aS'number_strongly_connected_components'
p1473
aS'number_weakly_connected_components'
p1474
aS'numeric_assortativity_coefficient'
p1475
aS'numeric_mixing_matrix'
p1476
aS'nx'
p1477
aS'nx_agraph'
p1478
aS'nx_pylab'
p1479
aS'nx_shp'
p1480
aS'nx_yaml'
p1481
aS'octahedral_graph'
p1482
aS'operators'
p1483
aS'out_degree_centrality'
p1484
aS'pagerank'
p1485
aS'pagerank_alg'
p1486
aS'pagerank_numpy'
p1487
aS'pagerank_scipy'
p1488
aS'pairs'
p1489
aS'pajek'
p1490
aS'pappus_graph'
p1491
aS'parse_adjlist'
p1492
aS'parse_edgelist'
p1493
aVparse_gml
p1494
aS'parse_graph6'
p1495
aS'parse_graphml'
p1496
aS'parse_leda'
p1497
aS'parse_multiline_adjlist'
p1498
aS'parse_pajek'
p1499
aS'parse_sparse6'
p1500
aS'path_graph'
p1501
aS'periphery'
p1502
aS'petersen_graph'
p1503
aS'planted_partition_graph'
p1504
aS'powerlaw_cluster_graph'
p1505
aS'predecessor'
p1506
aS'preferential_attachment'
p1507
aS'prim_mst'
p1508
aS'prim_mst_edges'
p1509
ag624
aS'project'
p1510
aS'project_down'
p1511
aS'project_up'
p1512
aS'projected_graph'
p1513
aS'pygraphviz_layout'
p1514
aS'ra_index_soundarajan_hopcroft'
p1515
aS'radius'
p1516
aS'random_clustered'
p1517
aS'random_clustered_graph'
p1518
aS'random_degree_sequence_graph'
p1519
aS'random_geometric_graph'
p1520
aS'random_graphs'
p1521
aS'random_layout'
p1522
aS'random_lobster'
p1523
aS'random_partition_graph'
p1524
aS'random_powerlaw_tree'
p1525
aS'random_powerlaw_tree_sequence'
p1526
aS'random_regular_graph'
p1527
aS'random_shell_graph'
p1528
aS'read_adjlist'
p1529
aS'read_dot'
p1530
aS'read_edgelist'
p1531
aS'read_gexf'
p1532
aVread_gml
p1533
aS'read_gpickle'
p1534
aS'read_graph6'
p1535
aS'read_graphml'
p1536
aS'read_leda'
p1537
aS'read_multiline_adjlist'
p1538
aS'read_pajek'
p1539
aS'read_shp'
p1540
aS'read_sparse6'
p1541
aS'read_weighted_edgelist'
p1542
aS'read_yaml'
p1543
aS'readwrite'
p1544
aS'recognition'
p1545
aS'recursive_simple_cycles'
p1546
aS'relabel'
p1547
aS'relabel_gexf_graph'
p1548
aS'relabel_nodes'
p1549
aS'relaxed_caveman_graph'
p1550
aS'release'
p1551
aS'resource_allocation_index'
p1552
ag87
aS'rich_club_coefficient'
p1553
aS'richclub'
p1554
aS's_metric'
p1555
aS'scale_free_graph'
p1556
aS'sedgewick_maze_graph'
p1557
aS'semiconnected'
p1558
aS'set_edge_attributes'
p1559
aS'set_node_attributes'
p1560
aS'shell_layout'
p1561
aS'shortest_path'
p1562
aS'shortest_path_length'
p1563
aS'shortest_paths'
p1564
aS'simple_cycles'
p1565
aS'simple_paths'
p1566
aS'single_source_dijkstra'
p1567
aS'single_source_dijkstra_path'
p1568
aS'single_source_dijkstra_path_length'
p1569
aS'single_source_shortest_path'
p1570
aS'single_source_shortest_path_length'
p1571
aS'small'
p1572
aS'smetric'
p1573
aS'social'
p1574
aS'sparse6'
p1575
aS'spectral_layout'
p1576
aS'spectral_ordering'
p1577
aS'spectrum'
p1578
aS'spring_layout'
p1579
aS'square_clustering'
p1580
aS'star_graph'
p1581
aS'stochastic'
p1582
aS'stochastic_graph'
p1583
aS'stoer_wagner'
p1584
aS'strong_product'
p1585
aS'strongly_connected'
p1586
aS'strongly_connected_component_subgraphs'
p1587
aS'strongly_connected_components'
p1588
aS'strongly_connected_components_recursive'
p1589
aS'subgraph'
p1590
aS'swap'
p1591
aS'symmetric_difference'
p1592
aS'tensor_product'
p1593
ag779
aS'tests'
p1594
aS'tetrahedral_graph'
p1595
aS'threshold'
p1596
aS'to_agraph'
p1597
aS'to_dict_of_dicts'
p1598
aS'to_dict_of_lists'
p1599
aS'to_edgelist'
p1600
aS'to_networkx_graph'
p1601
aS'to_numpy_matrix'
p1602
aS'to_numpy_recarray'
p1603
aS'to_scipy_sparse_matrix'
p1604
aS'topological_sort'
p1605
aS'topological_sort_recursive'
p1606
aS'transitivity'
p1607
aS'traversal'
p1608
aS'tree'
p1609
aS'triangles'
p1610
aS'trivial_graph'
p1611
aS'truncated_cube_graph'
p1612
aS'truncated_tetrahedron_graph'
p1613
aS'tutte_graph'
p1614
aS'unary'
p1615
aS'uniform_random_intersection_graph'
p1616
aS'union'
p1617
aS'union_all'
p1618
aS'unweighted'
p1619
aS'utils'
p1620
aS'view_pygraphviz'
p1621
aS'vitality'
p1622
aS'watts_strogatz_graph'
p1623
aS'waxman_graph'
p1624
aS'weakly_connected'
p1625
aS'weakly_connected_component_subgraphs'
p1626
aS'weakly_connected_components'
p1627
aS'weighted'
p1628
aS'wheel_graph'
p1629
aS'within_inter_cluster'
p1630
aS'write_adjlist'
p1631
aS'write_dot'
p1632
aS'write_edgelist'
p1633
aS'write_gexf'
p1634
aVwrite_gml
p1635
aS'write_gpickle'
p1636
aS'write_graph6'
p1637
aS'write_graphml'
p1638
aS'write_multiline_adjlist'
p1639
aS'write_pajek'
p1640
aS'write_shp'
p1641
aS'write_sparse6'
p1642
aS'write_weighted_edgelist'
p1643
aS'write_yaml'
p1644
asS'dbm'
p1645
(lp1646
S'library'
p1647
asS'jmespath'
p1648
(lp1649
S'ast'
p1650
aS'compat'
p1651
aS'compile'
p1652
aS'exceptions'
p1653
aS'lexer'
p1654
ag920
aS'search'
p1655
asS'marshal'
p1656
(lp1657
S'dump'
p1658
aS'dumps'
p1659
ag481
ag482
asS'humanfriendly'
p1660
(lp1661
g220
aS'disk_size_units'
p1662
aS'format_path'
p1663
aS'format_size'
p1664
aS'format_timespan'
p1665
aS'interactive_prompt'
p1666
ag509
aS'parse_date'
p1667
aS'parse_size'
p1668
aS'pluralize'
p1669
aS'prompt_for_choice'
p1670
ag925
aS'round_number'
p1671
ag946
aS'time_units'
p1672
asS'pyquery'
p1673
(lp1674
S'cssselectpatch'
p1675
aS'openers'
p1676
ag1673
asS'xdrlib'
p1677
(lp1678
S'raise_conversion_error'
p1679
aS'struct'
p1680
ag98
asS'flask'
p1681
(lp1682
S'after_this_request'
p1683
aS'app'
p1684
aS'appcontext_popped'
p1685
aS'appcontext_pushed'
p1686
aS'appcontext_tearing_down'
p1687
aS'blueprints'
p1688
ag47
aS'copy_current_request_context'
p1689
aS'ctx'
p1690
aS'current_app'
p1691
aS'debughelpers'
p1692
aS'escape'
p1693
aS'flash'
p1694
aS'g'
aS'get_flashed_messages'
p1695
aS'get_template_attribute'
p1696
aS'globals'
p1697
aS'got_request_exception'
p1698
aS'has_app_context'
p1699
aS'has_request_context'
p1700
aS'helpers'
p1701
aS'json'
p1702
aS'json_available'
p1703
aS'jsonify'
p1704
aS'make_response'
p1705
aS'message_flashed'
p1706
aS'module'
p1707
aS'redirect'
p1708
aS'render_template'
p1709
aS'render_template_string'
p1710
aS'request'
p1711
aS'request_finished'
p1712
aS'request_started'
p1713
aS'request_tearing_down'
p1714
aS'safe_join'
p1715
aS'send_file'
p1716
aS'send_from_directory'
p1717
aS'session'
p1718
aS'sessions'
p1719
aS'signals'
p1720
aS'signals_available'
p1721
aS'stream_with_context'
p1722
aS'template_rendered'
p1723
aS'templating'
p1724
aS'url_for'
p1725
aS'wrappers'
p1726
asS'opencl'
p1727
(lp1728
S'broadcast'
p1729
aS'cl_mem'
p1730
aS'cl_types'
p1731
aS'clgl'
p1732
aS'context'
p1733
aS'copencl'
p1734
aS'copyreg'
p1735
aS'ctypes'
p1736
ag290
aS'empty_image'
p1737
ag54
aS'event'
p1738
aS'from_host'
p1739
ag366
aS'get_platforms'
p1740
aS'gl'
p1741
aS'int_types'
p1742
aS'kernel'
p1743
aS'pickle_cl_vector'
p1744
aS'program'
p1745
aS'queue'
p1746
ag779
aS'type_formats'
p1747
aS'uint_types'
p1748
asS'qtutils'
p1749
(lp1750
S'disconnect_contextmanager'
p1751
aS'inmain'
p1752
aS'inmain_decorator'
p1753
aS'inmain_later'
p1754
aS'inthread'
p1755
aS'invoke_in_main'
p1756
aS'locking'
p1757
ag621
aS'qsettings_wrapper'
p1758
aS'qtlock'
p1759
asS'yaml'
p1760
(lp1761
S'add_constructor'
p1762
aS'add_implicit_resolver'
p1763
aS'add_multi_constructor'
p1764
aS'add_multi_representer'
p1765
aS'add_path_resolver'
p1766
aS'add_representer'
p1767
ag1167
ag1168
aS'composer'
p1768
aS'constructor'
p1769
aS'cyaml'
p1770
ag1658
aS'dump_all'
p1771
aS'dumper'
p1772
aS'emit'
p1773
aS'emitter'
p1774
ag24
ag481
aS'load_all'
p1775
aS'loader'
p1776
ag1462
aS'parse'
p1777
ag920
aS'reader'
p1778
aS'representer'
p1779
aS'resolver'
p1780
aS'safe_dump'
p1781
aS'safe_dump_all'
p1782
aS'safe_load'
p1783
aS'safe_load_all'
p1784
aS'scan'
p1785
aS'scanner'
p1786
aS'serialize'
p1787
aS'serialize_all'
p1788
aS'serializer'
p1789
aS'tokens'
p1790
asg879
(lp1791
S'namedtuple'
p1792
asS'decorator'
p1793
(lp1794
S'contextmanager'
p1795
ag1793
aS'get_init'
p1796
aS'inspect'
p1797
ag925
asS'cProfile'
p1798
(lp1799
S'help'
p1800
aS'label'
p1801
aS'main'
p1802
aS'run'
p1803
aS'runctx'
p1804
asS'itsdangerous'
p1805
(lp1806
S'base64'
p1807
aS'base64_decode'
p1808
aS'base64_encode'
p1809
aS'bytes_to_int'
p1810
aS'compact_json'
p1811
aS'constant_time_compare'
p1812
aS'hashlib'
p1813
aS'hmac'
p1814
aS'int_to_byte'
p1815
aS'int_to_bytes'
p1816
aS'is_text_serializer'
p1817
ag1702
aS'number_types'
p1818
ag915
ag946
aS'want_bytes'
p1819
aS'zlib'
p1820
asS'zmq'
p1821
(lp1822
S'backend'
p1823
aS'bytes_sockopts'
p1824
aS'constants'
p1825
aS'ctx_opt_names'
p1826
aS'ctx_opts'
p1827
aS'curve_keypair'
p1828
aS'device'
p1829
aS'devices'
p1830
aS'get_includes'
p1831
aS'has'
p1832
aS'int64_sockopts'
p1833
aS'int_sockopts'
p1834
aS'proxy'
p1835
aS'pyzmq_version'
p1836
aS'pyzmq_version_info'
p1837
ag706
aS'sugar'
p1838
ag1620
aS'zmq_errno'
p1839
aS'zmq_poll'
p1840
aS'zmq_version'
p1841
aS'zmq_version_info'
p1842
asS'ipaddress'
p1843
(lp1844
S'bit_length'
p1845
aS'collapse_addresses'
p1846
aS'get_mixed_type_key'
p1847
aS'int_from_bytes'
p1848
ag1816
aS'ip_address'
p1849
aS'ip_interface'
p1850
aS'ip_network'
p1851
aS'isinstance'
p1852
ag509
aS'summarize_address_range'
p1853
aS'v4_int_to_packed'
p1854
aS'v6_int_to_packed'
p1855
asg641
(lp1856
S'betavariate'
p1857
aS'choice'
p1858
ag275
aS'expovariate'
p1859
aS'gammavariate'
p1860
aS'gauss'
p1861
aS'getrandbits'
p1862
aS'getstate'
p1863
aS'jumpahead'
p1864
aS'lognormvariate'
p1865
aS'normalvariate'
p1866
aS'paretovariate'
p1867
ag639
ag641
aS'randrange'
p1868
ag690
ag704
aS'setstate'
p1869
ag724
ag791
ag812
aS'vonmisesvariate'
p1870
aS'weibullvariate'
p1871
asS'string'
p1872
(lp1873
S'ascii_letters'
p1874
aS'ascii_lowercase'
p1875
aS'ascii_uppercase'
p1876
aS'atof'
p1877
aS'atoi'
p1878
aS'atol'
p1879
aS'capitalize'
p1880
aS'capwords'
p1881
ag1136
aS'count'
p1882
aS'digits'
p1883
aS'expandtabs'
p1884
ag327
aS'hexdigits'
p1885
aS'index'
p1886
aS'join'
p1887
aS'joinfields'
p1888
aS'letters'
p1889
aS'ljust'
p1890
aS'lower'
p1891
aS'lowercase'
p1892
aS'lstrip'
p1893
aS'maketrans'
p1894
aS'octdigits'
p1895
aS'printable'
p1896
aS'punctuation'
p1897
aS'replace'
p1898
aS'rfind'
p1899
aS'rindex'
p1900
aS'rjust'
p1901
aS'rsplit'
p1902
aS'rstrip'
p1903
ag742
aS'splitfields'
p1904
aS'strip'
p1905
aS'swapcase'
p1906
aS'translate'
p1907
aS'upper'
p1908
aS'uppercase'
p1909
aS'whitespace'
p1910
aS'zfill'
p1911
asS'english_tokens'
p1912
(lp1913
S'Nil'
p1914
aS'adverbs'
p1915
aS'all_prepositions'
p1916
aS'all_quantifiers'
p1917
ag122
aS'any_quantifiers'
p1918
aS'articles'
p1919
ag1650
aS'attributes'
p1920
aS'auxiliary_verbs'
p1921
aS'bash_commands'
p1922
aS'be_words'
p1923
aS'bla_words'
p1924
aS'boolean_words'
p1925
aS'class_words'
p1926
aS'comparison_words'
p1927
aS'conjunctions'
p1928
aS'const_words'
p1929
ag1825
aS'context_keywords'
p1930
aS'correlative_conjunctions'
p1931
aS'done_words'
p1932
aS'english_operators'
p1933
aS'eval_keywords'
p1934
aS'event_kinds'
p1935
aS'extensions'
p1936
aS'false'
p1937
aS'false_words'
p1938
aS'fillers'
p1939
aS'flow_keywords'
p1940
aS'if_words'
p1941
aS'import_keywords'
p1942
aS'interjections'
p1943
aS'invoke_keywords'
p1944
ag25
aS'kast_operator_map'
p1945
aS'kast_operator_map_min'
p1946
aS'keywords'
p1947
aS'let_words'
p1948
aS'logic_operators'
p1949
aS'long_prepositions'
p1950
aS'method_tokens'
p1951
aS'modifiers'
p1952
aS'newline_tokens'
p1953
aS'nill_words'
p1954
aS'no_quantifiers'
p1955
aS'nonzero_keywords'
p1956
aS'numbers'
p1957
aS'once_words'
p1958
ag1483
aS'otherKeywords'
p1959
aS'other_verbs'
p1960
aS'pair_prepositions'
p1961
aS'possessive_pronouns'
p1962
aS'postpositions'
p1963
aS'prepositions'
p1964
ag621
aS'pronouns'
p1965
aS'quantifiers'
p1966
aS'question_words'
p1967
aS'reductions'
p1968
aS'require_types'
p1969
aS'result_words'
p1970
aS'self_modifying_operators'
p1971
aS'special_chars'
p1972
aS'special_verbs'
p1973
aS'start_block_words'
p1974
aS'system_verbs'
p1975
aS'time_words'
p1976
aS'tokenize'
p1977
aS'true'
p1978
aS'true_words'
p1979
aS'type_keywords'
p1980
aS'type_names'
p1981
aS'untokenize'
p1982
asS'nntplib'
p1983
(lp1984
g925
aS'socket'
p1985
asS'unicodedata'
p1986
(lp1987
S'bidirectional'
p1988
aS'category'
p1989
aS'combining'
p1990
aS'decimal'
p1991
aS'decomposition'
p1992
aS'digit'
p1993
aS'east_asian_width'
p1994
aS'lookup'
p1995
aS'mirrored'
p1996
ag565
aS'numeric'
p1997
aS'ucd_3_2_0'
p1998
aS'ucnhash_CAPI'
p1999
aS'unidata_version'
p2000
asS'interpy.codec.register'
p2001
(lp2002
S'encodings'
p2003
aS'interpy_tokenize'
p2004
aS'interpy_transform'
p2005
aS'interpy_transform_string'
p2006
aS'interpy_untokenize'
p2007
aS'with_statement'
p2008
asS'wave'
p2009
(lp2010
S'openfp'
p2011
ag1680
asS'curses'
p2012
(lp2013
S'baudrate'
p2014
aS'beep'
p2015
aS'can_change_color'
p2016
aS'cbreak'
p2017
aS'color_content'
p2018
aS'color_pair'
p2019
aS'curs_set'
p2020
aS'def_prog_mode'
p2021
aS'def_shell_mode'
p2022
aS'delay_output'
p2023
aS'doupdate'
p2024
aS'echo'
p2025
aS'endwin'
p2026
aS'erasechar'
p2027
aS'filter'
p2028
ag1694
aS'flushinp'
p2029
aS'getmouse'
p2030
aS'getsyx'
p2031
aS'getwin'
p2032
aS'halfdelay'
p2033
aS'has_colors'
p2034
aS'has_ic'
p2035
aS'has_il'
p2036
aS'has_key'
p2037
aS'init_color'
p2038
aS'init_pair'
p2039
aS'initscr'
p2040
aS'intrflush'
p2041
aS'is_term_resized'
p2042
aS'isendwin'
p2043
aS'keyname'
p2044
aS'killchar'
p2045
aS'longname'
p2046
aS'meta'
p2047
aS'mouseinterval'
p2048
aS'mousemask'
p2049
aS'napms'
p2050
aS'newpad'
p2051
aS'newwin'
p2052
aS'nl'
p2053
aS'nocbreak'
p2054
aS'noecho'
p2055
aS'nonl'
p2056
aS'noqiflush'
p2057
aS'noraw'
p2058
aS'pair_content'
p2059
aS'pair_number'
p2060
aS'putp'
p2061
aS'qiflush'
p2062
aS'raw'
p2063
aS'reset_prog_mode'
p2064
aS'reset_shell_mode'
p2065
aS'resetty'
p2066
aS'resize_term'
p2067
aS'resizeterm'
p2068
aS'savetty'
p2069
aS'setsyx'
p2070
aS'setupterm'
p2071
aS'start_color'
p2072
aS'termattrs'
p2073
aS'termname'
p2074
aS'tigetflag'
p2075
aS'tigetnum'
p2076
aS'tigetstr'
p2077
aS'tparm'
p2078
aS'typeahead'
p2079
aS'unctrl'
p2080
aS'ungetch'
p2081
aS'ungetmouse'
p2082
aS'use_default_colors'
p2083
aS'use_env'
p2084
aS'wrapper'
p2085
asS'interpy.codec.tokenizer'
p2086
(lp2087
S'inject_tokens'
p2088
asS'scipy'
p2089
(lp2090
g313
ag408
aS'integrate'
p2091
aS'interpolate'
p2092
aS'logn'
p2093
aS'ndimage'
p2094
aS'optimize'
p2095
ag638
aS'show_numpy_config'
p2096
aS'spatial'
p2097
aS'special'
p2098
asS'jinja2'
p2099
(lp2100
S'bccache'
p2101
aS'clear_caches'
p2102
aS'compiler'
p2103
aS'contextfilter'
p2104
aS'contextfunction'
p2105
aS'defaults'
p2106
aS'environment'
p2107
aS'environmentfilter'
p2108
aS'environmentfunction'
p2109
ag1693
aS'evalcontextfilter'
p2110
aS'evalcontextfunction'
p2111
ag1653
aS'filters'
p2112
aS'is_undefined'
p2113
ag1654
aS'loaders'
p2114
ag1462
aS'optimizer'
p2115
ag920
aS'runtime'
p2116
ag1594
ag1620
aS'visitor'
p2117
asS'dummy_threading'
p2118
(lp2119
S'BoundedSemaphore'
p2120
aS'Condition'
p2121
aS'Event'
p2122
aS'Lock'
p2123
aS'RLock'
p2124
aS'Semaphore'
p2125
aS'Timer'
p2126
aS'activeCount'
p2127
aS'active_count'
p2128
aS'currentThread'
p2129
aS'current_thread'
p2130
aS'enumerate'
p2131
aS'setprofile'
p2132
aS'settrace'
p2133
aS'stack_size'
p2134
aS'threading'
p2135
asS'getopt'
p2136
(lp2137
S'do_longs'
p2138
aS'do_shorts'
p2139
ag2136
aS'gnu_getopt'
p2140
aS'long_has_args'
p2141
aS'short_has_arg'
p2142
asS'resource'
p2143
(lp2144
S'getpagesize'
p2145
aS'getrlimit'
p2146
aS'getrusage'
p2147
aS'setrlimit'
p2148
asS'subprocess'
p2149
(lp2150
S'check_call'
p2151
aS'check_output'
p2152
aS'fcntl'
p2153
ag1042
aS'list2cmdline'
p2154
aS'mswindows'
p2155
aS'pickle'
p2156
ag706
aS'signal'
p2157
ag20
asS'sndhdr'
p2158
(lp2159
S'get_long_be'
p2160
aS'get_long_le'
p2161
aS'get_short_be'
p2162
aS'get_short_le'
p2163
ag779
aS'test_8svx'
p2164
aS'test_aifc'
p2165
aS'test_au'
p2166
aS'test_hcom'
p2167
aS'test_sndr'
p2168
aS'test_sndt'
p2169
aS'test_voc'
p2170
aS'test_wav'
p2171
aS'testall'
p2172
ag1594
aS'what'
p2173
aS'whathdr'
p2174
asS'gensim'
p2175
(lp2176
S'corpora'
p2177
aS'interfaces'
p2178
aS'logger'
p2179
aS'logging'
p2180
aS'matutils'
p2181
aS'models'
p2182
aS'similarities'
p2183
ag1620
asS'astor'
p2184
(lp2185
S'all_symbols'
p2186
aS'codegen'
p2187
aS'codetoast'
p2188
ag1658
aS'get_anyop'
p2189
aS'get_binop'
p2190
aS'get_boolop'
p2191
aS'get_cmpop'
p2192
aS'get_unaryop'
p2193
aS'iter_node'
p2194
aS'misc'
p2195
aS'parsefile'
p2196
aS'to_source'
p2197
aS'treewalk'
p2198
asS'interpy'
p2199
(lp2200
S'codec'
p2201
asS'power_parser'
p2202
(lp2203
S'NLs'
p2204
aS'adjectives'
p2205
aS'adjust_interpret'
p2206
aS'adjust_rollback'
p2207
aS'allow_rollback'
p2208
ag122
ag125
aS'app_path'
p2209
aS'assert_equals'
p2210
ag1128
aS'builtin_methods'
p2211
aS'c_methods'
p2212
aS'caller'
p2213
aS'caller_depth'
p2214
aS'caller_name'
p2215
aS'checkEndOfFile'
p2216
aS'checkEndOfLine'
p2217
aS'checkNewline'
p2218
aS'check_comment'
p2219
aS'check_rollback_allowed'
p2220
ag1145
aS'comment_block'
p2221
aS'complex'
p2222
ag1733
aS'core_methods'
p2223
aS'current_expression'
p2224
aS'current_line'
p2225
aS'current_node'
p2226
aS'current_offset'
p2227
aS'current_token'
p2228
aS'current_type'
p2229
aS'current_value'
p2230
aS'current_word'
p2231
ag50
aS'depth'
p2232
aS'dictionary_path'
p2233
aS'did_interpret'
p2234
aS'do_interpret'
p2235
aS'doassert'
p2236
aS'dont_interpret'
p2237
ag1773
ag1912
aS'error_position'
p2238
aS'escape_token'
p2239
aS'extensionMap'
p2240
ag1936
aS'filter_backtrace'
p2241
ag333
aS'fraction'
p2242
aS'ignore_rest_of_line'
p2243
aS'in_args'
p2244
aS'in_condition'
p2245
aS'in_params'
p2246
aS'in_pipe'
p2247
ag421
aS'init'
p2248
aS'integer'
p2249
aS'interpret'
p2250
aS'interpret_border'
p2251
aS'interpreting'
p2252
aS'invalidate_obsolete'
p2253
aS'is_number'
p2254
aS'isnumeric'
p2255
aS'javascript'
p2256
aS'last_pattern'
p2257
aS'last_result'
p2258
aS'lastmaybe'
p2259
aS'line_number'
p2260
aS'lines'
p2261
aS'listeners'
p2262
aS'load_module_methods'
p2263
aS'look_ahead'
p2264
aS'max_depth'
p2265
aS'maybe'
p2266
aS'maybe_newline'
p2267
aS'maybe_tokens'
p2268
aS'methodToModulesMap'
p2269
aS'method_names'
p2270
aS'methods'
p2271
aS'moduleClasses'
p2272
aS'moduleMethods'
p2273
aS'moduleNames'
p2274
aS'must_contain'
p2275
aS'must_contain_before'
p2276
aS'must_contain_before_old'
p2277
aS'negated'
p2278
aS'newline'
p2279
aS'newlines'
p2280
aS'next_token'
p2281
aS'no_rollback_depth'
p2282
ag1462
aS'nouns'
p2283
aS'number'
p2284
aS'number_word'
p2285
aS'one_or_more'
p2286
aS'original_string'
p2287
aS'params'
p2288
aS'parent_node'
p2289
ag1777
aS'parse_tokens'
p2290
ag920
aS'pointer'
p2291
aS'pointer_string'
p2292
aS'previous_word'
p2293
ag621
aS'print_pointer'
p2294
aS'raiseEnd'
p2295
aS'raiseNewline'
p2296
aS'raise_not_matching'
p2297
ag925
aS'read_source'
p2298
ag655
aS'remove_tokens'
p2299
aS'rest_of_line'
p2300
aS'rest_of_statement'
p2301
aS'result'
p2302
aS'rollback'
p2303
aS'rollback_depths'
p2304
aS'set_token'
p2305
aS'star'
p2306
aS'starts_with'
p2307
aS'svg'
p2308
ag28
aS'throwing'
p2309
ag2197
ag948
aS'token_map'
p2310
aS'token_number'
p2311
aS'token_old'
p2312
ag1977
ag1790
aS'tokens_old'
p2313
aS'tokenstream'
p2314
ag1609
aS'use_tree'
p2315
aS'use_wordnet'
p2316
aS'variableTypes'
p2317
aS'variableValues'
p2318
aS'variables'
p2319
aS'verbose'
p2320
aS'verbs'
p2321
aS'very_verbose'
p2322
aS'warn'
p2323
asS'fortune'
p2324
(lp2325
S'get_random_fortune'
p2326
ag1802
aS'make_fortune_data_file'
p2327
ag2156
ag641
aS'random_int'
p2328
asS'pyclbr'
p2329
(lp2330
g1038
aS'readmodule'
p2331
aS'readmodule_ex'
p2332
ag1977
asS'bisect'
p2333
(lp2334
g2333
aS'bisect_left'
p2335
aS'bisect_right'
p2336
aS'insort'
p2337
aS'insort_left'
p2338
aS'insort_right'
p2339
asS'forbiddenfruit'
p2340
(lp2341
g1736
aS'curse'
p2342
ag2012
aS'patchable_builtin'
p2343
ag87
ag98
asg2157
(lp2344
S'alarm'
p2345
aS'default_int_handler'
p2346
aS'getitimer'
p2347
aS'getsignal'
p2348
ag584
aS'set_wakeup_fd'
p2349
aS'setitimer'
p2350
aS'siginterrupt'
p2351
ag2157
asS'dateutil'
p2352
(lp2353
g920
aS'relativedelta'
p2354
aS'rrule'
p2355
aS'tz'
p2356
asS'py2app'
p2357
(lp2358
g874
aS'setuptools'
p2359
asS'sunau'
p2360
(lp2361
g2011
asS'pprint'
p2362
(lp2363
S'isreadable'
p2364
aS'isrecursive'
p2365
aS'pformat'
p2366
ag2362
aS'saferepr'
p2367
ag829
asS'unittest2'
p2368
(lp2369
S'compatibility'
p2370
aS'main_'
p2371
asS'pydoc'
p2372
(lp2373
S'allmethods'
p2374
aS'apropos'
p2375
aS'classify_class_attrs'
p2376
aS'classname'
p2377
aS'cli'
p2378
aS'cram'
p2379
aS'describe'
p2380
aS'doc'
p2381
ag1884
aS'extract_tb'
p2382
ag327
aS'getdoc'
p2383
aS'getpager'
p2384
aS'gui'
p2385
ag1800
aS'html'
p2386
ag1038
aS'importfile'
p2387
ag1797
aS'isdata'
p2388
aS'ispackage'
p2389
aS'ispath'
p2390
ag1887
aS'locale'
p2391
aS'locate'
p2392
ag1891
aS'pager'
p2393
aS'pathdirs'
p2394
aS'pipepager'
p2395
ag921
aS'plain'
p2396
aS'plainpager'
p2397
ag925
aS'render_doc'
p2398
ag1898
aS'resolve'
p2399
ag1899
ag1903
aS'safeimport'
p2400
aS'serve'
p2401
aS'source_synopsis'
p2402
ag742
aS'splitdoc'
p2403
ag1905
aS'stripid'
p2404
aS'synopsis'
p2405
aS'tempfilepager'
p2406
ag780
aS'ttypager'
p2407
aS'visiblename'
p2408
ag829
aS'writedoc'
p2409
aS'writedocs'
p2410
asS'psutil'
p2411
(lp2412
S'avail_phymem'
p2413
aS'avail_virtmem'
p2414
aS'boot_time'
p2415
aS'callable'
p2416
ag879
aS'cpu_count'
p2417
aS'cpu_percent'
p2418
aS'cpu_times'
p2419
aS'cpu_times_percent'
p2420
aS'disk_io_counters'
p2421
aS'disk_partitions'
p2422
aS'disk_usage'
p2423
ag92
aS'get_pid_list'
p2424
aS'get_process_list'
p2425
aS'get_users'
p2426
aS'net_connections'
p2427
aS'net_io_counters'
p2428
aS'network_io_counters'
p2429
aS'phymem_usage'
p2430
aS'pid_exists'
p2431
aS'pids'
p2432
aS'process_iter'
p2433
aS'pwd'
p2434
ag2157
ag2149
aS'swap_memory'
p2435
ag779
ag946
aS'total_virtmem'
p2436
aS'used_phymem'
p2437
aS'used_virtmem'
p2438
aS'users'
p2439
aS'version_info'
p2440
aS'virtmem_usage'
p2441
aS'virtual_memory'
p2442
aS'wait_procs'
p2443
ag829
asg948
(lp2444
g1802
aS'tok_name'
p2445
asS'smtplib'
p2446
(lp2447
g1807
ag883
aS'encode_base64'
p2448
ag1814
aS'quoteaddr'
p2449
aS'quotedata'
p2450
ag925
ag1985
aS'ssl'
p2451
aS'stderr'
p2452
asS'greenlet'
p2453
(lp2454
S'getcurrent'
p2455
aS'gettrace'
p2456
ag2133
asS'nose'
p2457
(lp2458
S'case'
p2459
aS'collector'
p2460
ag47
ag48
aS'exc'
p2461
aS'failure'
p2462
aS'importer'
p2463
aS'inspector'
p2464
ag1776
aS'plugins'
p2465
ag1835
aS'pyversion'
p2466
ag2302
ag1803
aS'runmodule'
p2467
aS'selector'
p2468
aS'suite'
p2469
aS'tools'
p2470
ag64
aS'with_setup'
p2471
asS'quopri'
p2472
(lp2473
S'a2b_qp'
p2474
aS'b2a_qp'
p2475
aS'decode'
p2476
aS'decodestring'
p2477
aS'encode'
p2478
aS'encodestring'
p2479
aS'ishex'
p2480
ag1802
aS'needsquoting'
p2481
aS'quote'
p2482
aS'unhex'
p2483
asS'enchant'
p2484
(lp2485
S'dict_exists'
p2486
ag54
aS'get_default_language'
p2487
aS'get_enchant_version'
p2488
aS'get_param'
p2489
aS'list_dicts'
p2490
aS'list_languages'
p2491
aS'pypwl'
p2492
aS'request_dict'
p2493
aS'request_pwl_dict'
p2494
aS'set_param'
p2495
ag1620
ag829
asS'multiprocessing'
p2496
(lp2497
S'Array'
p2498
ag2120
ag2121
ag2122
aS'JoinableQueue'
p2499
ag2123
aS'Manager'
p2500
aS'Pipe'
p2501
aS'Pool'
p2502
aS'Queue'
p2503
ag2124
aS'RawArray'
p2504
aS'RawValue'
p2505
ag2125
aS'Value'
p2506
aS'active_children'
p2507
aS'allow_connection_pickling'
p2508
ag2417
aS'current_process'
p2509
aS'dummy'
p2510
aS'forking'
p2511
aS'freeze_support'
p2512
aS'get_logger'
p2513
aS'log_to_stderr'
p2514
aS'pool'
p2515
aS'process'
p2516
aS'synchronize'
p2517
ag64
asS'mftracker'
p2518
(lp2519
S'bb'
p2520
aS'calculateBBCenter'
p2521
ag230
aS'cv'
p2522
aS'cv2'
p2523
aS'euclideanDistance'
p2524
aS'fbtrack'
p2525
aS'getBB'
p2526
aS'getBBHeight'
p2527
aS'getBBWidth'
p2528
aS'getFilledBBPoints'
p2529
aS'getMedian'
p2530
aS'getMedianUnmanaged'
p2531
aS'getRectFromBB'
p2532
aS'lk'
p2533
aS'lktrack'
p2534
ag509
ag518
aS'normCrossCorrelation'
p2535
ag568
aS'predictBB'
p2536
aS'spsd'
p2537
ag946
asS'dis'
p2538
(lp2539
S'disassemble'
p2540
aS'disassemble_string'
p2541
aS'disco'
p2542
aS'distb'
p2543
aS'findlabels'
p2544
aS'findlinestarts'
p2545
asg1820
(lp2546
S'adler32'
p2547
ag219
aS'compressobj'
p2548
aS'crc32'
p2549
aS'decompress'
p2550
aS'decompressobj'
p2551
asS'funcsigs'
p2552
(lp2553
g108
ag275
aS'formatannotation'
p2554
ag92
aS'itertools'
p2555
ag621
ag925
ag1029
asS'pty'
p2556
(lp2557
S'master_open'
p2558
ag706
aS'slave_open'
p2559
ag61
ag849
asS'compileall'
p2560
(lp2561
S'compile_dir'
p2562
aS'compile_file'
p2563
aS'compile_path'
p2564
aS'expand_args'
p2565
ag1038
ag1802
aS'py_compile'
p2566
ag1680
asg2391
(lp2567
g1877
ag1878
aS'currency'
p2568
ag2003
aS'format'
p2569
aS'format_string'
p2570
ag92
aS'getdefaultlocale'
p2571
aS'getlocale'
p2572
aS'getpreferredencoding'
p2573
aS'locale_alias'
p2574
aS'locale_encoding_alias'
p2575
aS'localeconv'
p2576
aS'nl_langinfo'
p2577
ag565
ag915
ag925
aS'resetlocale'
p2578
aS'setlocale'
p2579
aS'str'
p2580
aS'strcoll'
p2581
aS'strxfrm'
p2582
aS'windows_locale'
p2583
asS'binhex'
p2584
(lp2585
S'binascii'
p2586
ag2584
aS'getfileinfo'
p2587
ag391
ag1680
asS'macpath'
p2588
(lp2589
S'abspath'
p2590
aS'basename'
p2591
aS'commonprefix'
p2592
aS'dirname'
p2593
aS'exists'
p2594
aS'expanduser'
p2595
aS'expandvars'
p2596
aS'genericpath'
p2597
aS'getatime'
p2598
aS'getctime'
p2599
aS'getmtime'
p2600
aS'getsize'
p2601
aS'isabs'
p2602
ag907
aS'isfile'
p2603
aS'islink'
p2604
aS'ismount'
p2605
ag1887
aS'lexists'
p2606
aS'normcase'
p2607
aS'normpath'
p2608
aS'realpath'
p2609
ag742
aS'splitdrive'
p2610
aS'splitext'
p2611
aS'supports_unicode_filenames'
p2612
ag829
asS'syslog'
p2613
(lp2614
S'closelog'
p2615
aS'openlog'
p2616
aS'setlogmask'
p2617
ag2613
asS'pydoc_data'
p2618
(lp2619
S'topics'
p2620
asS'gevent'
p2621
(lp2622
g108
aS'get_hub'
p2623
ag2455
ag2453
aS'hub'
p2624
aS'idle'
p2625
aS'iwait'
p2626
aS'joinall'
p2627
aS'killall'
p2628
aS'reinit'
p2629
aS'sleep'
p2630
ag61
aS'spawn_later'
p2631
aS'spawn_raw'
p2632
aS'timeout'
p2633
ag2440
aS'with_timeout'
p2634
asS'jsonschema'
p2635
(lp2636
g1651
aS'draft3_format_checker'
p2637
aS'draft4_format_checker'
p2638
ag1653
aS'validate'
p2639
aS'validators'
p2640
asS'tabnanny'
p2641
(lp2642
S'check'
p2643
aS'errprint'
p2644
aS'filename_only'
p2645
aS'format_witnesses'
p2646
ag2136
ag1802
aS'process_tokens'
p2647
ag1977
ag2320
asg2003
(lp2648
S'aliases'
p2649
aS'ascii'
p2650
aS'codecs'
p2651
aS'normalize_encoding'
p2652
aS'search_function'
p2653
aS'utf_8'
p2654
asS'sched'
p2655
(lp2656
g4
ag1792
asS'calendar'
p2657
(lp2658
S'February'
p2659
aS'January'
p2660
aS'c'
ag2657
ag247
aS'day_abbr'
p2661
aS'day_name'
p2662
aS'firstweekday'
p2663
ag2569
aS'formatstring'
p2664
aS'isleap'
p2665
aS'leapdays'
p2666
ag1802
aS'mdays'
p2667
aS'month'
p2668
aS'month_abbr'
p2669
aS'month_name'
p2670
aS'monthcalendar'
p2671
aS'monthrange'
p2672
aS'prcal'
p2673
aS'prmonth'
p2674
aS'prweek'
p2675
aS'setfirstweekday'
p2676
aS'timegm'
p2677
aS'week'
p2678
aS'weekday'
p2679
aS'weekheader'
p2680
asS'panda'
p2681
(lp2682
g1807
aS'canonical_path'
p2683
aS'canonical_querystring'
p2684
aS'generate_signature'
p2685
aS'generate_timestamp'
p2686
ag1813
ag1814
aS'httplib'
p2687
aS'urlescape'
p2688
aS'urllib'
p2689
asS'skimage'
p2690
(lp2691
S'data_dir'
p2692
aS'doctest'
p2693
aS'doctest_verbose'
p2694
aS'dtype_limits'
p2695
aS'img_as_bool'
p2696
aS'img_as_float'
p2697
aS'img_as_int'
p2698
aS'img_as_ubyte'
p2699
aS'img_as_uint'
p2700
aS'pkg_dir'
p2701
ag779
aS'test_verbose'
p2702
ag64
asS'virtualenv'
p2703
(lp2704
S'ConfigParser'
p2705
aS'abiflags'
p2706
ag1807
aS'call_subprocess'
p2707
aS'change_prefix'
p2708
ag2651
ag1178
aS'copy_required_modules'
p2709
aS'copyfile'
p2710
aS'copyfileordir'
p2711
aS'create_bootstrap_script'
p2712
aS'create_environment'
p2713
aS'default_config_file'
p2714
aS'default_storage_dir'
p2715
ag41
aS'expected_exe'
p2716
aS'file_search_dirs'
p2717
aS'filter_install_output'
p2718
aS'find_wheels'
p2719
aS'fix_lib64'
p2720
aS'fix_local_scheme'
p2721
aS'fixup_egg_link'
p2722
aS'fixup_pth_and_egg_link'
p2723
aS'fixup_pth_file'
p2724
aS'fixup_scripts'
p2725
aS'get_installed_pythons'
p2726
aS'glob'
p2727
aS'install_activate'
p2728
aS'install_distutils'
p2729
aS'install_python'
p2730
aS'install_wheel'
p2731
aS'is_cygwin'
p2732
aS'is_darwin'
p2733
aS'is_executable'
p2734
aS'is_executable_file'
p2735
aS'is_jython'
p2736
aS'is_pypy'
p2737
aS'is_win'
p2738
ag1887
ag2179
ag2180
aS'mach_o_change'
p2739
ag1802
aS'majver'
p2740
aS'make_environment_relocatable'
p2741
aS'make_exe'
p2742
aS'make_relative_path'
p2743
aS'maxint'
p2744
aS'minver'
p2745
aS'optparse'
p2746
aS'path_locations'
p2747
aS'py_version'
p2748
ag925
aS'read_data'
p2749
aS'relative_script'
p2750
aS'resolve_interpreter'
p2751
aS'rmtree'
p2752
aS'shutil'
p2753
aS'strtobool'
p2754
ag1680
ag2149
aS'subst_path'
p2755
aS'tarfile'
p2756
ag944
aS'user_dir'
p2757
aS'virtualenv_version'
p2758
aS'writefile'
p2759
ag1820
asS'abc'
p2760
(lp2761
S'abstractmethod'
p2762
asg923
(lp2763
S'StringIO'
p2764
ag2586
ag247
ag925
aS'readPlist'
p2765
aS'readPlistFromResource'
p2766
aS'readPlistFromString'
p2767
ag829
aS'writePlist'
p2768
aS'writePlistToResource'
p2769
aS'writePlistToString'
p2770
asS'bdb'
p2771
(lp2772
g171
aS'checkfuncname'
p2773
aS'effective'
p2774
aS'fnmatch'
p2775
aS'foo'
p2776
aS'set_trace'
p2777
ag779
asg2566
(lp2778
g1652
ag1038
ag1802
ag1656
ag20
aS'wr_long'
p2779
asS'pipes'
p2780
(lp2781
S'makepipeline'
p2782
ag2482
ag925
aS'stepkinds'
p2783
ag944
asS'mailcap'
p2784
(lp2785
S'findmatch'
p2786
aS'findparam'
p2787
aS'getcaps'
p2788
aS'listmailcapfiles'
p2789
ag1995
aS'parsefield'
p2790
aS'parseline'
p2791
aS'readmailcapfile'
p2792
ag722
aS'subst'
p2793
ag779
asg2756
(lp2794
S'bltn_open'
p2795
aS'calc_chksums'
p2796
ag230
aS'copyfileobj'
p2797
aS'filemode'
p2798
aS'filemode_table'
p2799
aS'grp'
p2800
aS'is_tarfile'
p2801
aS'itn'
p2802
aS'nti'
p2803
aS'nts'
p2804
ag915
ag2434
ag925
ag2753
aS'stn'
p2805
ag1680
ag946
aS'uts'
p2806
asS'pathlib'
p2807
(lp2808
g1795
ag2775
ag92
aS'intern'
p2809
ag906
aS'nt'
p2810
aS'ntpath'
p2811
aS'posixpath'
p2812
ag925
aS'supports_symlinks'
p2813
ag946
aS'urlquote'
p2814
aS'urlquote_from_bytes'
p2815
asg2689
(lp2816
S'always_safe'
p2817
ag1807
aS'basejoin'
p2818
aS'c'
aS'ftpcache'
p2819
aS'ftperrors'
p2820
aS'getproxies'
p2821
aS'getproxies_environment'
p2822
aS'getproxies_macosx_sysconf'
p2823
aS'i'
aS'localhost'
p2824
aS'noheaders'
p2825
aS'pathname2url'
p2826
aS'proxy_bypass'
p2827
aS'proxy_bypass_environment'
p2828
aS'proxy_bypass_macosx_sysconf'
p2829
ag2482
aS'quote_plus'
p2830
ag925
aS'reporthook'
p2831
ag1985
aS'splitattr'
p2832
aS'splithost'
p2833
aS'splitnport'
p2834
aS'splitpasswd'
p2835
aS'splitport'
p2836
aS'splitquery'
p2837
aS'splittag'
p2838
aS'splittype'
p2839
aS'splituser'
p2840
aS'splitvalue'
p2841
ag2451
aS'test1'
p2842
aS'thishost'
p2843
ag946
aS'toBytes'
p2844
aS'unquote'
p2845
aS'unquote_plus'
p2846
ag817
aS'url2pathname'
p2847
aS'urlcleanup'
p2848
aS'urlencode'
p2849
aS'urlopen'
p2850
aS'urlretrieve'
p2851
asS'downhill'
p2852
(lp2853
S'adaptive'
p2854
aS'base'
p2855
aS'build'
p2856
aS'dataset'
p2857
aS'first_order'
p2858
aS'minimize'
p2859
ag64
asg925
(lp2860
g1652
aS'copy_reg'
p2861
ag1693
aS'findall'
p2862
aS'finditer'
p2863
aS'match'
p2864
aS'purge'
p2865
ag1655
ag742
aS'sre_compile'
p2866
aS'sre_parse'
p2867
aS'sub'
p2868
aS'subn'
p2869
aS'template'
p2870
asS'jedi'
p2871
(lp2872
S'api'
p2873
aS'cache'
p2874
aS'common'
p2875
ag50
aS'defined_names'
p2876
aS'evaluate'
p2877
ag920
aS'preload_module'
p2878
aS'set_debug_function'
p2879
aS'settings'
p2880
asg2811
(lp2881
g2590
ag2591
ag2592
ag2593
ag2594
ag2595
ag2596
ag2597
ag2598
ag2599
ag2600
ag2601
ag2602
ag907
ag2603
ag2604
ag2605
ag1887
ag2606
ag2607
ag2608
ag2609
aS'relpath'
p2882
ag742
ag2610
ag2611
aS'splitunc'
p2883
ag2612
ag829
asS'werkzeug'
p2884
(lp2885
S'append_slash_redirect'
p2886
aS'bind_arguments'
p2887
aS'check_password_hash'
p2888
aS'cookie_date'
p2889
aS'create_environ'
p2890
aS'dump_cookie'
p2891
aS'dump_header'
p2892
aS'dump_options_header'
p2893
ag1693
ag1653
aS'extract_path_info'
p2894
aS'find_modules'
p2895
ag2570
aS'generate_etag'
p2896
aS'generate_password_hash'
p2897
aS'get_current_url'
p2898
aS'get_host'
p2899
ag2386
aS'http_date'
p2900
aS'import_string'
p2901
aS'iri_to_uri'
p2902
aS'is_entity_header'
p2903
aS'is_hop_by_hop_header'
p2904
aS'is_resource_modified'
p2905
aS'make_line_iter'
p2906
aS'parse_accept_header'
p2907
aS'parse_authorization_header'
p2908
aS'parse_cache_control_header'
p2909
aS'parse_cookie'
p2910
ag1667
aS'parse_dict_header'
p2911
aS'parse_etags'
p2912
aS'parse_form_data'
p2913
aS'parse_list_header'
p2914
aS'parse_options_header'
p2915
aS'parse_set_header'
p2916
aS'parse_www_authenticate_header'
p2917
aS'peek_path_info'
p2918
aS'pop_path_info'
p2919
aS'quote_etag'
p2920
aS'quote_header_value'
p2921
ag1708
aS'release_local'
p2922
aS'remove_entity_headers'
p2923
aS'remove_hop_by_hop_headers'
p2924
aS'responder'
p2925
aS'routing'
p2926
aS'run_simple'
p2927
aS'run_wsgi_app'
p2928
aS'script'
p2929
aS'secure_filename'
p2930
aS'test_app'
p2931
aS'unescape'
p2932
aS'unquote_etag'
p2933
aS'unquote_header_value'
p2934
aS'uri_to_iri'
p2935
aS'url_decode'
p2936
aS'url_encode'
p2937
aS'url_fix'
p2938
aS'url_quote'
p2939
aS'url_quote_plus'
p2940
aS'url_unquote'
p2941
aS'url_unquote_plus'
p2942
aS'validate_arguments'
p2943
aS'wrap_file'
p2944
aS'xhtml'
p2945
asS'formatter'
p2946
(lp2947
g779
asg883
(lp2948
S'Charset'
p2949
aS'Encoders'
p2950
aS'Errors'
p2951
aS'FeedParser'
p2952
aS'Generator'
p2953
aS'Header'
p2954
aS'Iterators'
p2955
aS'MIMEAudio'
p2956
aS'MIMEBase'
p2957
aS'MIMEImage'
p2958
aS'MIMEMessage'
p2959
aS'MIMEMultipart'
p2960
aS'MIMENonMultipart'
p2961
aS'MIMEText'
p2962
aS'Message'
p2963
aS'Parser'
p2964
aS'Utils'
p2965
aS'base64MIME'
p2966
aS'base64mime'
p2967
aS'charset'
p2968
ag883
aS'encoders'
p2969
ag54
aS'feedparser'
p2970
aS'header'
p2971
ag2463
aS'iterators'
p2972
aS'message'
p2973
aS'message_from_file'
p2974
aS'message_from_string'
p2975
aS'mime'
p2976
ag920
aS'quopriMIME'
p2977
aS'quoprimime'
p2978
ag1620
asg509
(lp2979
S'acos'
p2980
aS'acosh'
p2981
aS'asin'
p2982
aS'asinh'
p2983
aS'atan'
p2984
aS'atan2'
p2985
aS'atanh'
p2986
ag200
ag231
ag235
ag236
ag252
aS'e'
aS'erf'
p2987
aS'erfc'
p2988
ag299
ag303
ag307
aS'factorial'
p2989
ag336
ag340
ag342
aS'fsum'
p2990
ag353
ag405
ag449
ag451
ag472
aS'lgamma'
p2991
ag59
ag485
ag486
ag529
ag590
aS'pow'
p2992
ag637
ag727
ag729
ag745
ag774
ag775
ag804
asS'shlex'
p2993
(lp2994
g2764
ag742
asS'cgi'
p2995
(lp2996
g2764
aS'dolog'
p2997
ag1693
aS'filterwarnings'
p2998
aS'initlog'
p2999
ag59
aS'logfile'
p3000
aS'logfp'
p3001
aS'maxlen'
p3002
aS'mimetools'
p3003
aS'nolog'
p3004
ag1777
aS'parse_header'
p3005
aS'parse_multipart'
p3006
aS'parse_qs'
p3007
aS'parse_qsl'
p3008
aS'print_arguments'
p3009
aS'print_directory'
p3010
aS'print_environ'
p3011
aS'print_environ_usage'
p3012
aS'print_exception'
p3013
aS'print_form'
p3014
aS'rfc822'
p3015
ag779
ag949
aS'valid_boundary'
p3016
ag2323
asS'ftplib'
p3017
(lp3018
S'all_errors'
p3019
aS'ftpcp'
p3020
aS'parse150'
p3021
aS'parse227'
p3022
aS'parse229'
p3023
aS'parse257'
p3024
aS'print_line'
p3025
ag1985
ag2451
ag779
asS'enum'
p3026
(lp3027
S'pyver'
p3028
ag814
asS'gunicorn'
p3029
(lp3030
S'v'
ag2440
asg1650
(lp3031
S'PyCF_ONLY_AST'
p3032
aS'copy_location'
p3033
ag1658
aS'fix_missing_locations'
p3034
aS'get_docstring'
p3035
aS'increment_lineno'
p3036
aS'iter_child_nodes'
p3037
aS'iter_fields'
p3038
aS'literal_eval'
p3039
ag1777
asg2746
(lp3040
S'check_builtin'
p3041
aS'check_choice'
p3042
aS'gettext'
p3043
aS'isbasestring'
p3044
ag945
asS'altgraph'
p3045
(lp3046
g874
asg510
(lp3047
g108
aS'bad_pyparsing'
p3048
ag199
aS'checkdep_dvipng'
p3049
aS'checkdep_ghostscript'
p3050
aS'checkdep_inkscape'
p3051
aS'checkdep_pdftops'
p3052
aS'checkdep_ps_distiller'
p3053
aS'checkdep_tex'
p3054
aS'checkdep_usetex'
p3055
aS'checkdep_xmllint'
p3056
ag215
aS'compare_versions'
p3057
ag1651
aS'contextlib'
p3058
aS'converter'
p3059
ag2352
aS'default'
p3060
aS'defaultParams'
p3061
aS'default_test_modules'
p3062
ag41
ag275
aS'f'
aS'fontconfig_pattern'
p3063
ag361
aS'get_cachedir'
p3064
aS'get_configdir'
p3065
aS'get_data_path'
p3066
aS'get_example_data'
p3067
aS'get_home'
p3068
aS'get_py2exe_datafiles'
p3069
ag427
aS'is_interactive'
p3070
ag442
aS'is_url'
p3071
aS'key'
p3072
aS'matplotlib_fname'
p3073
aS'minor1'
p3074
aS'minor2'
p3075
aS'numpy'
p3076
ag621
aS'pyparsing'
p3077
ag650
ag651
ag652
aS'rcParamsOrig'
p3078
aS'rc_file'
p3079
aS'rc_file_defaults'
p3080
aS'rc_params'
p3081
aS'rc_params_from_file'
p3082
ag654
aS'rcsetup'
p3083
ag925
aS's'
ag730
ag2149
ag944
ag779
aS'tk_window_focus'
p3084
aS'tmp'
p3085
ag811
ag2850
aS'use'
p3086
aS'validate_backend'
p3087
ag2320
ag829
asg755
(lp3088
S'AuthDescriptorAction'
p3089
aS'CircBuildFlag'
p3090
aS'CircClosureReason'
p3091
aS'CircEvent'
p3092
aS'CircPurpose'
p3093
aS'CircStatus'
p3094
aS'Flag'
p3095
aS'GuardStatus'
p3096
aS'GuardType'
p3097
aS'HiddenServiceState'
p3098
aS'ORClosureReason'
p3099
aS'ORStatus'
p3100
aS'RelayEndReason'
p3101
aS'Runlevel'
p3102
aS'Signal'
p3103
aS'StatusType'
p3104
aS'StreamClosureReason'
p3105
aS'StreamPurpose'
p3106
aS'StreamSource'
p3107
aS'StreamStatus'
p3108
aS'TimeoutSetType'
p3109
aS'prereq'
p3110
ag755
ag64
asS'tornado'
p3111
(lp3112
g108
ag275
ag621
ag2440
ag2008
asg2651
(lp3113
S'EncodedFile'
p3114
aS'ascii_decode'
p3115
aS'ascii_encode'
p3116
aS'backslashreplace_errors'
p3117
aS'charbuffer_encode'
p3118
aS'charmap_build'
p3119
aS'charmap_decode'
p3120
aS'charmap_encode'
p3121
ag2476
ag2478
aS'escape_decode'
p3122
aS'escape_encode'
p3123
aS'getdecoder'
p3124
aS'getencoder'
p3125
aS'getincrementaldecoder'
p3126
aS'getincrementalencoder'
p3127
aS'getreader'
p3128
aS'getwriter'
p3129
aS'ignore_errors'
p3130
aS'iterdecode'
p3131
aS'iterencode'
p3132
aS'latin_1_decode'
p3133
aS'latin_1_encode'
p3134
ag1995
aS'lookup_error'
p3135
aS'make_encoding_map'
p3136
aS'make_identity_dict'
p3137
aS'raw_unicode_escape_decode'
p3138
aS'raw_unicode_escape_encode'
p3139
aS'readbuffer_encode'
p3140
aS'register'
p3141
aS'register_error'
p3142
aS'replace_errors'
p3143
aS'strict_errors'
p3144
aS'unicode_escape_decode'
p3145
aS'unicode_escape_encode'
p3146
aS'unicode_internal_decode'
p3147
aS'unicode_internal_encode'
p3148
aS'utf_16_be_decode'
p3149
aS'utf_16_be_encode'
p3150
aS'utf_16_decode'
p3151
aS'utf_16_encode'
p3152
aS'utf_16_ex_decode'
p3153
aS'utf_16_le_decode'
p3154
aS'utf_16_le_encode'
p3155
aS'utf_32_be_decode'
p3156
aS'utf_32_be_encode'
p3157
aS'utf_32_decode'
p3158
aS'utf_32_encode'
p3159
aS'utf_32_ex_decode'
p3160
aS'utf_32_le_decode'
p3161
aS'utf_32_le_encode'
p3162
aS'utf_7_decode'
p3163
aS'utf_7_encode'
p3164
aS'utf_8_decode'
p3165
aS'utf_8_encode'
p3166
aS'xmlcharrefreplace_errors'
p3167
asS'PIL'
p3168
(lp3169
S'Image'
p3170
aS'ImageFilter'
p3171
aS'ImageMode'
p3172
asS'lockfile'
p3173
(lp3174
S'LinkFileLock'
p3175
aS'MkdirFileLock'
p3176
aS'SQLiteFileLock'
p3177
ag108
ag92
aS'linklockfile'
p3178
aS'locked'
p3179
ag1985
ag2135
ag946
ag2689
ag829
asS'pyasn'
p3180
(lp3181
S'Radix'
p3182
ag1846
ag1851
aS'pyasn_radix'
p3183
ag925
asS'modulegraph'
p3184
(lp3185
g874
asS'glumpy'
p3186
(lp3187
S'color'
p3188
aS'colormap'
p3189
ag322
aS'graphics'
p3190
aS'image'
p3191
ag416
ag3076
ag722
aS'trackball'
p3192
aS'window'
p3193
asS'cgitb'
p3194
(lp3195
g1046
aS'grey'
p3196
aS'handler'
p3197
ag2386
ag1797
aS'keyword'
p3198
aS'linecache'
p3199
ag1995
ag2372
aS'reset'
p3200
aS'scanvars'
p3201
ag1572
aS'strong'
p3202
ag944
ag780
ag946
ag1977
ag20
asS'climate'
p3203
(lp3204
S'add_arg'
p3205
aS'add_command'
p3206
aS'add_group'
p3207
aS'add_mutex'
p3208
ag124
aS'enable_default_logging'
p3209
aS'flags'
p3210
ag2513
ag59
ag2180
aS'parse_args'
p3211
aS'parse_known_args'
p3212
aS'plac'
p3213
asg1736
(lp3214
S'SetPointerType'
p3215
aS'addressof'
p3216
aS'alignment'
p3217
aS'byref'
p3218
aS'c_buffer'
p3219
ag198
aS'cdll'
p3220
aS'create_string_buffer'
p3221
aS'create_unicode_buffer'
p3222
aS'get_errno'
p3223
aS'macholib'
p3224
aS'memmove'
p3225
aS'memset'
p3226
ag2291
aS'pydll'
p3227
aS'pythonapi'
p3228
ag670
aS'set_conversion_mode'
p3229
aS'set_errno'
p3230
aS'sizeof'
p3231
aS'string_at'
p3232
ag64
aS'wstring_at'
p3233
asg1985
(lp3234
S'AF_DECnet'
p3235
aS'RAND_add'
p3236
aS'RAND_egd'
p3237
aS'RAND_status'
p3238
ag2764
aS'create_connection'
p3239
aS'fromfd'
p3240
aS'getaddrinfo'
p3241
aS'getdefaulttimeout'
p3242
aS'getfqdn'
p3243
aS'gethostbyaddr'
p3244
aS'gethostbyname'
p3245
aS'gethostbyname_ex'
p3246
aS'gethostname'
p3247
aS'getnameinfo'
p3248
aS'getprotobyname'
p3249
aS'getservbyname'
p3250
aS'getservbyport'
p3251
aS'has_ipv6'
p3252
aS'htonl'
p3253
aS'htons'
p3254
aS'inet_aton'
p3255
aS'inet_ntoa'
p3256
aS'inet_ntop'
p3257
aS'inet_pton'
p3258
aS'm'
aS'meth'
p3259
aS'ntohl'
p3260
aS'ntohs'
p3261
aS'p'
aS'setdefaulttimeout'
p3262
aS'socketpair'
p3263
ag2451
ag829
asS'thread'
p3264
(lp3265
S'allocate'
p3266
aS'allocate_lock'
p3267
aS'exit'
p3268
aS'exit_thread'
p3269
aS'get_ident'
p3270
aS'interrupt_main'
p3271
ag2134
aS'start_new'
p3272
aS'start_new_thread'
p3273
asg2764
(lp3274
g779
asS'ensurepip'
p3275
(lp3276
S'bootstrap'
p3277
ag921
ag621
ag2753
ag2451
ag944
asS'pyaudio'
p3278
(lp3279
S'get_format_from_width'
p3280
aS'get_portaudio_version'
p3281
aS'get_portaudio_version_text'
p3282
aS'get_sample_size'
p3283
aS'pa'
p3284
aS'paAL'
p3285
aS'paALSA'
p3286
aS'paASIO'
p3287
aS'paAbort'
p3288
aS'paBadIODeviceCombination'
p3289
aS'paBadStreamPtr'
p3290
aS'paBeOS'
p3291
aS'paBufferTooBig'
p3292
aS'paBufferTooSmall'
p3293
aS'paCanNotReadFromACallbackStream'
p3294
aS'paCanNotReadFromAnOutputOnlyStream'
p3295
aS'paCanNotWriteToACallbackStream'
p3296
aS'paCanNotWriteToAnInputOnlyStream'
p3297
aS'paComplete'
p3298
aS'paContinue'
p3299
aS'paCoreAudio'
p3300
aS'paCustomFormat'
p3301
aS'paDeviceUnavailable'
p3302
aS'paDirectSound'
p3303
aS'paFloat32'
p3304
aS'paHostApiNotFound'
p3305
aS'paInDevelopment'
p3306
aS'paIncompatibleHostApiSpecificStreamInfo'
p3307
aS'paIncompatibleStreamHostApi'
p3308
aS'paInputOverflow'
p3309
aS'paInputOverflowed'
p3310
aS'paInputUnderflow'
p3311
aS'paInsufficientMemory'
p3312
aS'paInt16'
p3313
aS'paInt24'
p3314
aS'paInt32'
p3315
aS'paInt8'
p3316
aS'paInternalError'
p3317
aS'paInvalidChannelCount'
p3318
aS'paInvalidDevice'
p3319
aS'paInvalidFlag'
p3320
aS'paInvalidHostApi'
p3321
aS'paInvalidSampleRate'
p3322
aS'paJACK'
p3323
aS'paMME'
p3324
aS'paNoDevice'
p3325
aS'paNoError'
p3326
aS'paNotInitialized'
p3327
aS'paNullCallback'
p3328
aS'paOSS'
p3329
aS'paOutputOverflow'
p3330
aS'paOutputUnderflow'
p3331
aS'paOutputUnderflowed'
p3332
aS'paPrimingOutput'
p3333
aS'paSampleFormatNotSupported'
p3334
aS'paSoundManager'
p3335
aS'paStreamIsNotStopped'
p3336
aS'paStreamIsStopped'
p3337
aS'paTimedOut'
p3338
aS'paUInt8'
p3339
aS'paUnanticipatedHostError'
p3340
aS'paWASAPI'
p3341
aS'paWDMKS'
p3342
asg20
(lp3343
S'extract_stack'
p3344
ag2382
aS'format_exc'
p3345
aS'format_exception'
p3346
aS'format_exception_only'
p3347
aS'format_list'
p3348
aS'format_stack'
p3349
aS'format_tb'
p3350
ag3199
aS'print_exc'
p3351
ag3013
aS'print_last'
p3352
aS'print_list'
p3353
aS'print_stack'
p3354
aS'print_tb'
p3355
aS'tb_lineno'
p3356
asS'numpydoc'
p3357
(lp3358
g108
ag275
aS'docscrape'
p3359
aS'docscrape_sphinx'
p3360
ag3357
ag621
aS'setup'
p3361
asS'ffruit'
p3362
(lp3363
g766
asS'mutagen'
p3364
(lp3365
S'File'
p3366
ag3364
aS'version_string'
p3367
ag829
asg944
(lp3368
S'NamedTemporaryFile'
p3369
aS'TemporaryFile'
p3370
aS'gettempdir'
p3371
aS'gettempprefix'
p3372
aS'mkdtemp'
p3373
aS'mkstemp'
p3374
aS'mktemp'
p3375
aS'tempdir'
p3376
ag2870
asg2555
(lp3377
S'tee'
p3378
asS'cssselect'
p3379
(lp3380
g1777
ag920
aS'xpath'
p3381
asg2693
(lp3382
S'DocFileSuite'
p3383
aS'DocFileTest'
p3384
aS'DocTestSuite'
p3385
ag50
aS'debug_script'
p3386
aS'debug_src'
p3387
aS'difflib'
p3388
ag1797
ag3199
aS'master'
p3389
ag1792
aS'pdb'
p3390
ag925
aS'register_optionflag'
p3391
aS'run_docstring_examples'
p3392
aS'script_from_examples'
p3393
aS'set_unittest_reportflags'
p3394
ag944
aS'testfile'
p3395
aS'testmod'
p3396
aS'testsource'
p3397
ag20
aS'unittest'
p3398
ag829
asS'pstats'
p3399
(lp3400
S'add_callers'
p3401
aS'add_func_stats'
p3402
ag94
aS'count_calls'
p3403
aS'f8'
p3404
aS'func_get_function_name'
p3405
aS'func_std_string'
p3406
aS'func_strip_path'
p3407
ag1656
ag925
ag946
asS'ast2json'
p3408
(lp3409
g3408
aS'get_value'
p3410
ag1777
aS'str2json'
p3411
asS'requests'
p3412
(lp3413
S'adapters'
p3414
ag2873
aS'auth'
p3415
aS'certs'
p3416
aS'codes'
p3417
ag1651
aS'cookies'
p3418
ag254
ag1653
ag359
aS'head'
p3419
aS'hooks'
p3420
ag2180
ag2182
ag1003
aS'packages'
p3421
aS'patch'
p3422
aS'post'
p3423
ag628
ag1711
ag1718
ag1719
aS'status_codes'
p3424
aS'structures'
p3425
ag1620
asS'docopt'
p3426
(lp3427
g3426
aS'extras'
p3428
aS'formal_usage'
p3429
aS'parse_argv'
p3430
aS'parse_atom'
p3431
aS'parse_defaults'
p3432
aS'parse_expr'
p3433
aS'parse_long'
p3434
aS'parse_pattern'
p3435
aS'parse_seq'
p3436
aS'parse_shorts'
p3437
aS'printable_usage'
p3438
ag925
asS'os'
p3439
(lp3440
S'UserDict'
p3441
aS'abort'
p3442
aS'access'
p3443
aS'altsep'
p3444
aS'chdir'
p3445
aS'chflags'
p3446
aS'chmod'
p3447
aS'chown'
p3448
aS'chroot'
p3449
aS'close'
p3450
aS'closerange'
p3451
aS'confstr'
p3452
aS'confstr_names'
p3453
aS'ctermid'
p3454
aS'curdir'
p3455
aS'defpath'
p3456
aS'devnull'
p3457
aS'dup'
p3458
aS'dup2'
p3459
aS'environ'
p3460
aS'errno'
p3461
aS'execl'
p3462
aS'execle'
p3463
aS'execlp'
p3464
aS'execlpe'
p3465
aS'execv'
p3466
aS'execve'
p3467
aS'execvp'
p3468
aS'execvpe'
p3469
aS'extsep'
p3470
aS'fchdir'
p3471
aS'fchmod'
p3472
aS'fchown'
p3473
aS'fdopen'
p3474
aS'fork'
p3475
aS'forkpty'
p3476
aS'fpathconf'
p3477
aS'fstat'
p3478
aS'fstatvfs'
p3479
aS'fsync'
p3480
aS'ftruncate'
p3481
aS'getcwd'
p3482
aS'getcwdu'
p3483
aS'getegid'
p3484
aS'getenv'
p3485
aS'geteuid'
p3486
aS'getgid'
p3487
aS'getgroups'
p3488
aS'getloadavg'
p3489
aS'getlogin'
p3490
aS'getpgid'
p3491
aS'getpgrp'
p3492
aS'getpid'
p3493
aS'getppid'
p3494
aS'getsid'
p3495
aS'getuid'
p3496
aS'initgroups'
p3497
aS'isatty'
p3498
aS'kill'
p3499
aS'killpg'
p3500
aS'lchflags'
p3501
aS'lchmod'
p3502
aS'lchown'
p3503
aS'linesep'
p3504
aS'link'
p3505
aS'listdir'
p3506
aS'lseek'
p3507
aS'lstat'
p3508
aS'major'
p3509
aS'makedev'
p3510
aS'makedirs'
p3511
aS'minor'
p3512
aS'mkdir'
p3513
aS'mkfifo'
p3514
aS'mknod'
p3515
aS'name'
p3516
aS'nice'
p3517
aS'open'
p3518
aS'openpty'
p3519
aS'pardir'
p3520
aS'path'
p3521
aS'pathconf'
p3522
aS'pathconf_names'
p3523
aS'pathsep'
p3524
aS'pipe'
p3525
aS'popen'
p3526
aS'popen2'
p3527
aS'popen3'
p3528
aS'popen4'
p3529
aS'putenv'
p3530
aS'read'
p3531
aS'readlink'
p3532
aS'remove'
p3533
aS'removedirs'
p3534
aS'rename'
p3535
aS'renames'
p3536
aS'rmdir'
p3537
aS'sep'
p3538
aS'setegid'
p3539
aS'seteuid'
p3540
aS'setgid'
p3541
aS'setgroups'
p3542
aS'setpgid'
p3543
aS'setpgrp'
p3544
aS'setregid'
p3545
aS'setreuid'
p3546
aS'setsid'
p3547
aS'setuid'
p3548
aS'spawnl'
p3549
aS'spawnle'
p3550
aS'spawnlp'
p3551
aS'spawnlpe'
p3552
aS'spawnv'
p3553
aS'spawnve'
p3554
aS'spawnvp'
p3555
aS'spawnvpe'
p3556
aS'stat'
p3557
aS'stat_float_times'
p3558
aS'statvfs'
p3559
aS'strerror'
p3560
aS'symlink'
p3561
aS'sys'
p3562
aS'sysconf'
p3563
aS'sysconf_names'
p3564
aS'system'
p3565
aS'tcgetpgrp'
p3566
aS'tcsetpgrp'
p3567
aS'tempnam'
p3568
aS'times'
p3569
aS'tmpfile'
p3570
aS'tmpnam'
p3571
aS'ttyname'
p3572
aS'umask'
p3573
aS'uname'
p3574
aS'unlink'
p3575
aS'unsetenv'
p3576
aS'urandom'
p3577
aS'utime'
p3578
aS'wait'
p3579
aS'wait3'
p3580
aS'wait4'
p3581
aS'waitpid'
p3582
aS'walk'
p3583
aS'write'
p3584
asS'awscli'
p3585
(lp3586
S'EnvironmentVariables'
p3587
asg1807
(lp3588
S'b16decode'
p3589
aS'b16encode'
p3590
aS'b32decode'
p3591
aS'b32encode'
p3592
aS'b64decode'
p3593
aS'b64encode'
p3594
ag2586
ag2476
ag2477
ag2478
ag2479
aS'k'
ag925
aS'standard_b64decode'
p3595
aS'standard_b64encode'
p3596
ag1680
ag779
ag2842
aS'urlsafe_b64decode'
p3597
aS'urlsafe_b64encode'
p3598
aS'v'
asS'debugger'
p3599
(lp3600
g2180
aS'merge_debug_metaclass_with'
p3601
ag925
ag946
ag20
asS'antigravity'
p3602
(lp3603
S'webbrowser'
p3604
asS'CoreFunctions'
p3605
(lp3606
S'download'
p3607
ag1702
aS'urllib2'
p3608
asS'aifc'
p3609
(lp3610
g2011
ag1680
asg2586
(lp3611
S'a2b_base64'
p3612
aS'a2b_hex'
p3613
aS'a2b_hqx'
p3614
ag2474
aS'a2b_uu'
p3615
aS'b2a_base64'
p3616
aS'b2a_hex'
p3617
aS'b2a_hqx'
p3618
ag2475
aS'b2a_uu'
p3619
ag2549
aS'crc_hqx'
p3620
aS'hexlify'
p3621
aS'rlecode_hqx'
p3622
aS'rledecode_hqx'
p3623
aS'unhexlify'
p3624
asg3398
(lp3625
g2459
aS'defaultTestLoader'
p3626
aS'expectedFailure'
p3627
aS'findTestCases'
p3628
aS'getTestCaseNames'
p3629
aS'installHandler'
p3630
ag1776
aS'makeSuite'
p3631
aS'registerResult'
p3632
aS'removeHandler'
p3633
aS'removeResult'
p3634
ag2302
aS'runner'
p3635
ag1720
aS'skip'
p3636
aS'skipIf'
p3637
aS'skipUnless'
p3638
ag2469
ag64
asS'codeop'
p3639
(lp3640
S'PyCF_DONT_IMPLY_DEDENT'
p3641
ag17
aS'fname'
p3642
asS'pygments'
p3643
(lp3644
S'BytesIO'
p3645
ag2028
ag2112
ag2569
ag2946
aS'formatters'
p3646
aS'highlight'
p3647
aS'lex'
p3648
ag1654
aS'lexers'
p3649
aS'modeline'
p3650
aS'plugin'
p3651
aS'regexopt'
p3652
ag759
aS'styles'
p3653
ag948
aS'unistring'
p3654
ag64
asg922
(lp3655
S'architecture'
p3656
ag53
aS'java_ver'
p3657
aS'libc_ver'
p3658
aS'linux_distribution'
p3659
aS'mac_ver'
p3660
aS'machine'
p3661
aS'node'
p3662
ag922
aS'processor'
p3663
aS'python_branch'
p3664
aS'python_build'
p3665
aS'python_compiler'
p3666
aS'python_implementation'
p3667
aS'python_revision'
p3668
aS'python_version'
p3669
aS'python_version_tuple'
p3670
ag925
ag1551
aS'system_alias'
p3671
aS'win32_ver'
p3672
asS'fileinput'
p3673
(lp3674
S'filelineno'
p3675
aS'filename'
p3676
aS'fileno'
p3677
aS'hook_compressed'
p3678
aS'hook_encoded'
p3679
aS'input'
p3680
aS'isfirstline'
p3681
aS'isstdin'
p3682
aS'lineno'
p3683
aS'nextfile'
p3684
asg915
(lp3685
S'abs'
p3686
ag67
aS'and_'
p3687
aS'concat'
p3688
aS'contains'
p3689
aS'countOf'
p3690
aS'delitem'
p3691
aS'delslice'
p3692
aS'div'
p3693
aS'eq'
p3694
aS'floordiv'
p3695
aS'ge'
p3696
aS'getitem'
p3697
aS'getslice'
p3698
aS'gt'
p3699
aS'iadd'
p3700
aS'iand'
p3701
aS'iconcat'
p3702
aS'idiv'
p3703
aS'ifloordiv'
p3704
aS'ilshift'
p3705
aS'imod'
p3706
aS'imul'
p3707
aS'indexOf'
p3708
ag430
ag431
aS'ior'
p3709
aS'ipow'
p3710
aS'irepeat'
p3711
aS'irshift'
p3712
aS'isCallable'
p3713
aS'isMappingType'
p3714
aS'isNumberType'
p3715
aS'isSequenceType'
p3716
aS'is_'
p3717
aS'is_not'
p3718
aS'isub'
p3719
aS'itruediv'
p3720
aS'ixor'
p3721
aS'le'
p3722
aS'lshift'
p3723
aS'lt'
p3724
ag528
ag85
aS'ne'
p3725
aS'neg'
p3726
aS'not_'
p3727
aS'or_'
p3728
aS'pos'
p3729
ag2992
ag667
aS'rshift'
p3730
aS'sequenceIncludes'
p3731
aS'setitem'
p3732
aS'setslice'
p3733
ag2868
aS'truediv'
p3734
aS'truth'
p3735
aS'xor'
p3736
asS'asyncore'
p3737
(lp3738
S'close_all'
p3739
aS'compact_traceback'
p3740
aS'errorcode'
p3741
ag2153
aS'loop'
p3742
aS'poll'
p3743
aS'poll2'
p3744
aS'poll3'
p3745
ag1544
ag706
ag1985
aS'socket_map'
p3746
ag946
ag829
asS'botocore'
p3747
(lp3748
S'ScalarTypes'
p3749
ag59
ag2180
ag925
aS'xform_name'
p3750
asg2522
(lp3751
S'Abs'
p3752
aS'AbsDiff'
p3753
aS'AbsDiffS'
p3754
aS'Acc'
p3755
aS'AdaptiveThreshold'
p3756
aS'Add'
p3757
aS'AddS'
p3758
aS'AddWeighted'
p3759
aS'And'
p3760
aS'AndS'
p3761
aS'ApproxChains'
p3762
aS'ApproxPoly'
p3763
aS'ArcLength'
p3764
aS'Avg'
p3765
aS'AvgSdv'
p3766
aS'BackProjectPCA'
p3767
aS'BoundingRect'
p3768
aS'BoxPoints'
p3769
aS'CV_BGR2Lab'
p3770
aS'CV_BGR2Luv'
p3771
aS'CV_BGR2YCrCb'
p3772
aS'CV_BayerBG2BGR'
p3773
aS'CV_BayerBG2BGR_VNG'
p3774
aS'CV_BayerBG2RGB'
p3775
aS'CV_BayerGB2BGR'
p3776
aS'CV_BayerGB2BGR_VNG'
p3777
aS'CV_BayerGB2RGB'
p3778
aS'CV_BayerGR2BGR'
p3779
aS'CV_BayerGR2BGR_VNG'
p3780
aS'CV_BayerGR2RGB'
p3781
aS'CV_BayerRG2BGR'
p3782
aS'CV_BayerRG2BGR_VNG'
p3783
aS'CV_BayerRG2RGB'
p3784
aS'CV_ErrModeLeaf'
p3785
aS'CV_ErrModeParent'
p3786
aS'CV_ErrModeSilent'
p3787
aS'CV_GAUSSIAN_5x5'
p3788
aS'CV_Lab2BGR'
p3789
aS'CV_Lab2RGB'
p3790
aS'CV_Luv2BGR'
p3791
aS'CV_Luv2RGB'
p3792
aS'CV_RGB2Lab'
p3793
aS'CV_RGB2Luv'
p3794
aS'CV_RGB2YCrCb'
p3795
aS'CV_YCrCb2BGR'
p3796
aS'CV_YCrCb2RGB'
p3797
aS'CalcArrBackProject'
p3798
aS'CalcArrHist'
p3799
aS'CalcBackProject'
p3800
aS'CalcBackProjectPatch'
p3801
aS'CalcCovarMatrix'
p3802
aS'CalcEMD2'
p3803
aS'CalcGlobalOrientation'
p3804
aS'CalcHist'
p3805
aS'CalcMotionGradient'
p3806
aS'CalcOpticalFlowBM'
p3807
aS'CalcOpticalFlowFarneback'
p3808
aS'CalcOpticalFlowHS'
p3809
aS'CalcOpticalFlowLK'
p3810
aS'CalcOpticalFlowPyrLK'
p3811
aS'CalcPCA'
p3812
aS'CalcProbDensity'
p3813
aS'CalcSubdivVoronoi2D'
p3814
aS'CalibrateCamera2'
p3815
aS'CalibrationMatrixValues'
p3816
aS'CamShift'
p3817
aS'Canny'
p3818
aS'CaptureFromCAM'
p3819
aS'CaptureFromFile'
p3820
aS'CartToPolar'
p3821
aS'Cbrt'
p3822
aS'Ceil'
p3823
aS'CheckArr'
p3824
aS'CheckContourConvexity'
p3825
aS'Circle'
p3826
aS'ClearHist'
p3827
aS'ClearND'
p3828
aS'ClearSeq'
p3829
aS'ClearSubdivVoronoi2D'
p3830
aS'ClipLine'
p3831
aS'CloneImage'
p3832
aS'CloneMat'
p3833
aS'CloneMatND'
p3834
aS'CloneSeq'
p3835
aS'Cmp'
p3836
aS'CmpS'
p3837
aS'CompareHist'
p3838
aS'ComputeCorrespondEpilines'
p3839
aS'ContourArea'
p3840
aS'Convert'
p3841
aS'ConvertImage'
p3842
aS'ConvertMaps'
p3843
aS'ConvertPointsHomogeneous'
p3844
aS'ConvertScale'
p3845
aS'ConvertScaleAbs'
p3846
aS'ConvexHull2'
p3847
aS'ConvexityDefects'
p3848
aS'Copy'
p3849
aS'CopyMakeBorder'
p3850
aS'CornerEigenValsAndVecs'
p3851
aS'CornerHarris'
p3852
aS'CornerMinEigenVal'
p3853
aS'CountNonZero'
p3854
aS'CreateCameraCapture'
p3855
aS'CreateData'
p3856
aS'CreateFileCapture'
p3857
aS'CreateHist'
p3858
aS'CreateImage'
p3859
aS'CreateImageHeader'
p3860
aS'CreateKalman'
p3861
aS'CreateMat'
p3862
aS'CreateMatHeader'
p3863
aS'CreateMatND'
p3864
aS'CreateMatNDHeader'
p3865
aS'CreateMemStorage'
p3866
aS'CreatePOSITObject'
p3867
aS'CreateStereoBMState'
p3868
aS'CreateStereoGCState'
p3869
aS'CreateStructuringElementEx'
p3870
aS'CreateSubdivDelaunay2D'
p3871
aS'CreateTrackbar'
p3872
aS'CreateVideoWriter'
p3873
aS'CrossProduct'
p3874
aS'CvtColor'
p3875
aS'CvtPixToPlane'
p3876
aS'CvtScale'
p3877
aS'DecodeImage'
p3878
aS'DecodeImageM'
p3879
aS'DecomposeProjectionMatrix'
p3880
aS'DestroyAllWindows'
p3881
aS'DestroyWindow'
p3882
aS'Det'
p3883
aS'Dilate'
p3884
aS'DistTransform'
p3885
aS'Div'
p3886
aS'DotProduct'
p3887
aS'DrawChessboardCorners'
p3888
aS'DrawContours'
p3889
aS'EigenVV'
p3890
aS'Ellipse'
p3891
aS'EllipseBox'
p3892
aS'EncodeImage'
p3893
aS'EqualizeHist'
p3894
aS'Erode'
p3895
aS'EstimateRigidTransform'
p3896
aS'Exp'
p3897
aS'ExtractSURF'
p3898
aS'FastArctan'
p3899
aS'FillConvexPoly'
p3900
aS'FillPoly'
p3901
aS'Filter2D'
p3902
aS'FindChessboardCorners'
p3903
aS'FindContours'
p3904
aS'FindCornerSubPix'
p3905
aS'FindDataMatrix'
p3906
aS'FindExtrinsicCameraParams2'
p3907
aS'FindFundamentalMat'
p3908
aS'FindHomography'
p3909
aS'FindNearestPoint2D'
p3910
aS'FindStereoCorrespondenceBM'
p3911
aS'FindStereoCorrespondenceGC'
p3912
aS'FitEllipse2'
p3913
aS'FitLine'
p3914
aS'Flip'
p3915
aS'FloodFill'
p3916
aS'Floor'
p3917
aS'Get1D'
p3918
aS'Get2D'
p3919
aS'Get3D'
p3920
aS'GetAffineTransform'
p3921
aS'GetCaptureProperty'
p3922
aS'GetCentralMoment'
p3923
aS'GetCol'
p3924
aS'GetCols'
p3925
aS'GetDiag'
p3926
aS'GetDims'
p3927
aS'GetElemType'
p3928
aS'GetHuMoments'
p3929
aS'GetImage'
p3930
aS'GetImageCOI'
p3931
aS'GetImageROI'
p3932
aS'GetMat'
p3933
aS'GetMinMaxHistValue'
p3934
aS'GetND'
p3935
aS'GetNormalizedCentralMoment'
p3936
aS'GetOptimalDFTSize'
p3937
aS'GetOptimalNewCameraMatrix'
p3938
aS'GetPerspectiveTransform'
p3939
aS'GetQuadrangleSubPix'
p3940
aS'GetReal1D'
p3941
aS'GetReal2D'
p3942
aS'GetReal3D'
p3943
aS'GetRealND'
p3944
aS'GetRectSubPix'
p3945
aS'GetRotationMatrix2D'
p3946
aS'GetRow'
p3947
aS'GetRows'
p3948
aS'GetSize'
p3949
aS'GetSpatialMoment'
p3950
aS'GetStarKeypoints'
p3951
aS'GetSubRect'
p3952
aS'GetTextSize'
p3953
aS'GetTickCount'
p3954
aS'GetTickFrequency'
p3955
aS'GetTrackbarPos'
p3956
aS'GetWindowProperty'
p3957
aS'GoodFeaturesToTrack'
p3958
aS'GrabCut'
p3959
aS'GrabFrame'
p3960
aS'HOGDetectMultiScale'
p3961
aS'HaarDetectObjects'
p3962
aS'HoughCircles'
p3963
aS'HoughLines2'
p3964
aS'InRange'
p3965
aS'InRangeS'
p3966
aS'InitFont'
p3967
aS'InitIntrinsicParams2D'
p3968
aS'InitLineIterator'
p3969
aS'InitUndistortMap'
p3970
aS'InitUndistortRectifyMap'
p3971
aS'Inpaint'
p3972
aS'Integral'
p3973
aS'InvSqrt'
p3974
aS'Invert'
p3975
aS'IsInf'
p3976
aS'IsNaN'
p3977
aS'KMeans2'
p3978
aS'KalmanCorrect'
p3979
aS'KalmanPredict'
p3980
aS'Laplace'
p3981
aS'Line'
p3982
aS'Load'
p3983
aS'LoadImage'
p3984
aS'LoadImageM'
p3985
aS'Log'
p3986
aS'LogPolar'
p3987
aS'Mahalonobis'
p3988
aS'MatMul'
p3989
aS'MatMulAdd'
p3990
aS'MatchShapes'
p3991
aS'MatchTemplate'
p3992
aS'Max'
p3993
aS'MaxRect'
p3994
aS'MaxS'
p3995
aS'MeanShift'
p3996
aS'Merge'
p3997
aS'Min'
p3998
aS'MinAreaRect2'
p3999
aS'MinEnclosingCircle'
p4000
aS'MinMaxLoc'
p4001
aS'MinS'
p4002
aS'MixChannels'
p4003
aS'Moments'
p4004
aS'MorphologyEx'
p4005
aS'MoveWindow'
p4006
aS'Mul'
p4007
aS'MulSpectrums'
p4008
aS'MulTransposed'
p4009
aS'MultiplyAcc'
p4010
aS'NamedWindow'
p4011
aS'Norm'
p4012
aS'Normalize'
p4013
aS'NormalizeHist'
p4014
aS'Not'
p4015
aS'Or'
p4016
aS'OrS'
p4017
aS'PerspectiveTransform'
p4018
aS'PointPolygonTest'
p4019
aS'PolarToCart'
p4020
aS'PolyLine'
p4021
aS'Pow'
p4022
aS'PreCornerDetect'
p4023
aS'ProjectPCA'
p4024
aS'ProjectPoints2'
p4025
aS'PutText'
p4026
aS'PyrDown'
p4027
aS'PyrMeanShiftFiltering'
p4028
aS'PyrSegmentation'
p4029
aS'PyrUp'
p4030
aS'QueryFrame'
p4031
aS'QueryHistValue_1D'
p4032
aS'QueryHistValue_2D'
p4033
aS'QueryHistValue_3D'
p4034
aS'QueryHistValue_nD'
p4035
aS'RQDecomp3x3'
p4036
aS'RandArr'
p4037
aS'RandInt'
p4038
aS'RandReal'
p4039
aS'RandShuffle'
p4040
aS'Range'
p4041
aS'RealScalar'
p4042
aS'Rectangle'
p4043
aS'Reduce'
p4044
aS'Remap'
p4045
aS'Repeat'
p4046
aS'ReprojectImageTo3D'
p4047
aS'ResetImageROI'
p4048
aS'Reshape'
p4049
aS'ReshapeMatND'
p4050
aS'Resize'
p4051
aS'ResizeWindow'
p4052
aS'RetrieveFrame'
p4053
aS'Rodrigues2'
p4054
aS'Round'
p4055
aS'RunningAvg'
p4056
aS'SVBkSb'
p4057
aS'Save'
p4058
aS'SaveImage'
p4059
aS'Scalar'
p4060
aS'ScalarAll'
p4061
aS'Scale'
p4062
aS'ScaleAdd'
p4063
aS'SegmentMotion'
p4064
aS'SeqInvert'
p4065
aS'SeqRemove'
p4066
aS'SeqRemoveSlice'
p4067
aS'Set'
p4068
aS'Set1D'
p4069
aS'Set2D'
p4070
aS'Set3D'
p4071
aS'SetCaptureProperty'
p4072
aS'SetData'
p4073
aS'SetIdentity'
p4074
aS'SetImageCOI'
p4075
aS'SetImageROI'
p4076
aS'SetMouseCallback'
p4077
aS'SetND'
p4078
aS'SetReal1D'
p4079
aS'SetReal2D'
p4080
aS'SetReal3D'
p4081
aS'SetRealND'
p4082
aS'SetTrackbarPos'
p4083
aS'SetWindowProperty'
p4084
aS'SetZero'
p4085
aS'ShowImage'
p4086
aS'Smooth'
p4087
aS'SnakeImage'
p4088
aS'Sobel'
p4089
aS'Solve'
p4090
aS'SolveCubic'
p4091
aS'SolvePoly'
p4092
aS'Sort'
p4093
aS'Split'
p4094
aS'Sqrt'
p4095
aS'SquareAcc'
p4096
aS'StartWindowThread'
p4097
aS'StereoCalibrate'
p4098
aS'StereoRectify'
p4099
aS'StereoRectifyUncalibrated'
p4100
aS'Sub'
p4101
aS'SubRS'
p4102
aS'SubS'
p4103
aS'Subdiv2DEdgeDst'
p4104
aS'Subdiv2DEdgeOrg'
p4105
aS'Subdiv2DGetEdge'
p4106
aS'Subdiv2DLocate'
p4107
aS'Subdiv2DNextEdge'
p4108
aS'Subdiv2DRotateEdge'
p4109
aS'SubdivDelaunay2DInsert'
p4110
aS'Sum'
p4111
aS'ThreshHist'
p4112
aS'Threshold'
p4113
aS'Trace'
p4114
aS'Transform'
p4115
aS'Transpose'
p4116
aS'Undistort2'
p4117
aS'UndistortPoints'
p4118
aS'UpdateMotionHistory'
p4119
aS'WaitKey'
p4120
aS'WarpAffine'
p4121
aS'WarpPerspective'
p4122
aS'Watershed'
p4123
aS'WriteFrame'
p4124
aS'Xor'
p4125
aS'XorS'
p4126
aS'Zero'
p4127
aS'fromarray'
p4128
aS'mGet'
p4129
aS'mSet'
p4130
aS'temp_test'
p4131
asg706
(lp4132
g706
asS'tox'
p4133
(lp4134
S'cmdline'
p4135
ag47
aS'hookimpl'
p4136
aS'hookspec'
p4137
aS'hookspecs'
p4138
aS'interpreters'
p4139
ag2302
ag1718
aS'venv'
p4140
asg921
(lp4141
S'extend_path'
p4142
aS'find_loader'
p4143
aS'get_data'
p4144
ag901
ag1037
ag1038
aS'iter_importer_modules'
p4145
aS'iter_importers'
p4146
aS'iter_modules'
p4147
aS'iter_zipimport_modules'
p4148
ag1039
aS'simplegeneric'
p4149
aS'walk_packages'
p4150
ag954
asg1038
(lp4151
S'acquire_lock'
p4152
aS'find_module'
p4153
aS'get_frozen_object'
p4154
aS'get_magic'
p4155
aS'get_suffixes'
p4156
aS'init_builtin'
p4157
aS'init_frozen'
p4158
aS'is_builtin'
p4159
ag1377
aS'load_compiled'
p4160
aS'load_dynamic'
p4161
aS'load_module'
p4162
aS'load_package'
p4163
aS'load_source'
p4164
aS'lock_held'
p4165
aS'new_module'
p4166
aS'release_lock'
p4167
aS'reload'
p4168
asg3461
(lp4169
g3741
asS'py'
p4170
(lp4171
S'apipkg'
p4172
aS'builtin'
p4173
ag15
aS'iniconfig'
p4174
ag906
ag59
ag2516
ag754
ag779
aS'xml'
p4175
asg2523
(lp4176
S'Algorithm__create'
p4177
aS'Algorithm_getList'
p4178
aS'BFMatcher'
p4179
aS'BOWImgDescriptorExtractor'
p4180
aS'BOWKMeansTrainer'
p4181
aS'BackgroundSubtractorMOG'
p4182
aS'BackgroundSubtractorMOG2'
p4183
aS'Boost'
p4184
ag3817
ag3818
aS'CascadeClassifier'
p4185
aS'DMatch'
p4186
aS'DTree'
p4187
aS'DescriptorExtractor_create'
p4188
aS'DescriptorMatcher_create'
p4189
aS'ERTrees'
p4190
aS'FastFeatureDetector'
p4191
aS'Feature2D_create'
p4192
aS'FeatureDetector_create'
p4193
aS'FileNode'
p4194
aS'FileStorage'
p4195
aS'FlannBasedMatcher'
p4196
aS'GBTrees'
p4197
aS'GFTTDetector'
p4198
aS'GaussianBlur'
p4199
aS'GridAdaptedFeatureDetector'
p4200
aS'HOGDescriptor'
p4201
aS'HOGDescriptor_getDaimlerPeopleDetector'
p4202
aS'HOGDescriptor_getDefaultPeopleDetector'
p4203
ag3963
aS'HoughLines'
p4204
aS'HoughLinesP'
p4205
aS'HuMoments'
p4206
aS'KDTree'
p4207
aS'KNearest'
p4208
aS'KalmanFilter'
p4209
aS'KeyPoint'
p4210
aS'Laplacian'
p4211
aS'Mahalanobis'
p4212
aS'NormalBayesClassifier'
p4213
aS'PCABackProject'
p4214
aS'PCACompute'
p4215
aS'PCAComputeVar'
p4216
aS'PCAProject'
p4217
aS'PyramidAdaptedFeatureDetector'
p4218
ag4036
aS'RTrees'
p4219
aS'Rodrigues'
p4220
aS'SVBackSubst'
p4221
aS'SVDecomp'
p4222
aS'Scharr'
p4223
aS'SimpleBlobDetector'
p4224
aS'SimpleBlobDetector_Params'
p4225
ag4089
aS'StarDetector'
p4226
aS'StereoBM'
p4227
aS'StereoSGBM'
p4228
aS'StereoVar'
p4229
aS'Subdiv2D'
p4230
aS'VideoCapture'
p4231
aS'VideoWriter'
p4232
aS'absdiff'
p4233
aS'accumulate'
p4234
aS'accumulateProduct'
p4235
aS'accumulateSquare'
p4236
aS'accumulateWeighted'
p4237
aS'adaptiveBilateralFilter'
p4238
aS'adaptiveThreshold'
p4239
ag67
aS'addWeighted'
p4240
aS'applyColorMap'
p4241
aS'approxPolyDP'
p4242
aS'arcLength'
p4243
aS'arrowedLine'
p4244
aS'batchDistance'
p4245
aS'bilateralFilter'
p4246
ag181
ag182
ag183
ag184
aS'blur'
p4247
aS'borderInterpolate'
p4248
aS'boundingRect'
p4249
aS'boxFilter'
p4250
aS'buildOpticalFlowPyramid'
p4251
aS'calcBackProject'
p4252
aS'calcCovarMatrix'
p4253
aS'calcGlobalOrientation'
p4254
aS'calcHist'
p4255
aS'calcMotionGradient'
p4256
aS'calcOpticalFlowFarneback'
p4257
aS'calcOpticalFlowPyrLK'
p4258
aS'calcOpticalFlowSF'
p4259
aS'calibrateCamera'
p4260
aS'calibrationMatrixValues'
p4261
aS'cartToPolar'
p4262
aS'chamerMatching'
p4263
aS'checkHardwareSupport'
p4264
aS'checkRange'
p4265
aS'circle'
p4266
aS'clipLine'
p4267
aS'compare'
p4268
aS'compareHist'
p4269
aS'completeSymm'
p4270
aS'composeRT'
p4271
aS'computeCorrespondEpilines'
p4272
aS'contourArea'
p4273
aS'convertMaps'
p4274
aS'convertPointsFromHomogeneous'
p4275
aS'convertPointsToHomogeneous'
p4276
aS'convertScaleAbs'
p4277
aS'convexHull'
p4278
aS'convexityDefects'
p4279
aS'copyMakeBorder'
p4280
aS'cornerEigenValsAndVecs'
p4281
aS'cornerHarris'
p4282
aS'cornerMinEigenVal'
p4283
aS'cornerSubPix'
p4284
aS'correctMatches'
p4285
aS'countNonZero'
p4286
aS'createCLAHE'
p4287
aS'createEigenFaceRecognizer'
p4288
aS'createFisherFaceRecognizer'
p4289
aS'createHanningWindow'
p4290
aS'createLBPHFaceRecognizer'
p4291
aS'createTrackbar'
p4292
aS'cubeRoot'
p4293
ag2522
aS'cvtColor'
p4294
aS'dct'
p4295
aS'decomposeProjectionMatrix'
p4296
aS'destroyAllWindows'
p4297
aS'destroyWindow'
p4298
aS'determinant'
p4299
aS'dft'
p4300
aS'dilate'
p4301
aS'distanceTransform'
p4302
aS'distanceTransformWithLabels'
p4303
ag274
aS'drawChessboardCorners'
p4304
aS'drawContours'
p4305
aS'drawDataMatrixCodes'
p4306
aS'drawKeypoints'
p4307
aS'eigen'
p4308
aS'ellipse'
p4309
aS'ellipse2Poly'
p4310
aS'equalizeHist'
p4311
aS'erode'
p4312
aS'estimateAffine3D'
p4313
aS'estimateRigidTransform'
p4314
ag299
aS'extractChannel'
p4315
aS'fastAtan2'
p4316
aS'fastNlMeansDenoising'
p4317
aS'fastNlMeansDenoisingColored'
p4318
aS'fastNlMeansDenoisingColoredMulti'
p4319
aS'fastNlMeansDenoisingMulti'
p4320
aS'fillConvexPoly'
p4321
aS'fillPoly'
p4322
aS'filter2D'
p4323
aS'filterSpeckles'
p4324
aS'findChessboardCorners'
p4325
aS'findCirclesGrid'
p4326
aS'findCirclesGridDefault'
p4327
aS'findContours'
p4328
aS'findDataMatrix'
p4329
aS'findFundamentalMat'
p4330
aS'findHomography'
p4331
aS'findNonZero'
p4332
aS'fitEllipse'
p4333
aS'fitLine'
p4334
aS'flann_Index'
p4335
aS'flip'
p4336
aS'floodFill'
p4337
aS'gemm'
p4338
aS'getAffineTransform'
p4339
aS'getBuildInformation'
p4340
aS'getCPUTickCount'
p4341
aS'getDefaultNewCameraMatrix'
p4342
aS'getDerivKernels'
p4343
aS'getGaborKernel'
p4344
aS'getGaussianKernel'
p4345
aS'getNumberOfCPUs'
p4346
aS'getOptimalDFTSize'
p4347
aS'getOptimalNewCameraMatrix'
p4348
aS'getPerspectiveTransform'
p4349
aS'getRectSubPix'
p4350
aS'getRotationMatrix2D'
p4351
aS'getStructuringElement'
p4352
aS'getTextSize'
p4353
aS'getTickCount'
p4354
aS'getTickFrequency'
p4355
aS'getTrackbarPos'
p4356
aS'getValidDisparityROI'
p4357
aS'getWindowProperty'
p4358
aS'goodFeaturesToTrack'
p4359
aS'grabCut'
p4360
aS'groupRectangles'
p4361
aS'hconcat'
p4362
aS'idct'
p4363
aS'idft'
p4364
aS'imdecode'
p4365
aS'imencode'
p4366
ag414
ag416
aS'imwrite'
p4367
aS'inRange'
p4368
aS'initCameraMatrix2D'
p4369
aS'initModule_nonfree'
p4370
aS'initUndistortRectifyMap'
p4371
aS'initWideAngleProjMap'
p4372
aS'inpaint'
p4373
aS'insertChannel'
p4374
aS'integral'
p4375
aS'integral2'
p4376
aS'integral3'
p4377
aS'intersectConvexConvex'
p4378
ag431
aS'invertAffineTransform'
p4379
aS'isContourConvex'
p4380
aS'kmeans'
p4381
ag1418
ag59
aS'magnitude'
p4382
aS'matMulDeriv'
p4383
aS'matchShapes'
p4384
aS'matchTemplate'
p4385
ag82
ag517
aS'meanShift'
p4386
aS'meanStdDev'
p4387
aS'medianBlur'
p4388
ag12
aS'min'
p4389
aS'minAreaRect'
p4390
aS'minEnclosingCircle'
p4391
aS'minMaxLoc'
p4392
aS'mixChannels'
p4393
aS'moments'
p4394
aS'morphologyEx'
p4395
aS'moveWindow'
p4396
aS'mulSpectrums'
p4397
aS'mulTransposed'
p4398
ag534
aS'namedWindow'
p4399
ag562
ag565
aS'patchNaNs'
p4400
aS'perspectiveTransform'
p4401
aS'phase'
p4402
aS'phaseCorrelate'
p4403
aS'phaseCorrelateRes'
p4404
aS'pointPolygonTest'
p4405
aS'polarToCart'
p4406
aS'polylines'
p4407
ag2992
aS'preCornerDetect'
p4408
aS'projectPoints'
p4409
aS'putText'
p4410
aS'pyrDown'
p4411
aS'pyrMeanShiftFiltering'
p4412
aS'pyrUp'
p4413
aS'randShuffle'
p4414
ag640
aS'randu'
p4415
aS'rectangle'
p4416
aS'rectify3Collinear'
p4417
ag95
aS'remap'
p4418
ag667
aS'reprojectImageTo3D'
p4419
ag670
aS'resizeWindow'
p4420
aS'scaleAdd'
p4421
aS'segmentMotion'
p4422
aS'sepFilter2D'
p4423
aS'setIdentity'
p4424
aS'setMouseCallback'
p4425
aS'setTrackbarPos'
p4426
aS'setUseOptimized'
p4427
aS'setWindowProperty'
p4428
ag734
aS'solveCubic'
p4429
aS'solvePnP'
p4430
aS'solvePnPRansac'
p4431
aS'solvePoly'
p4432
ag736
aS'sortIdx'
p4433
ag742
ag745
aS'startWindowThread'
p4434
aS'stereoCalibrate'
p4435
aS'stereoRectify'
p4436
aS'stereoRectifyUncalibrated'
p4437
ag765
aS'sumElems'
p4438
ag1596
ag787
aS'transform'
p4439
ag788
aS'triangulatePoints'
p4440
aS'undistort'
p4441
aS'undistortPoints'
p4442
aS'updateMotionHistory'
p4443
aS'useOptimized'
p4444
aS'validateDisparity'
p4445
aS'vconcat'
p4446
aS'waitKey'
p4447
aS'warpAffine'
p4448
aS'warpPerspective'
p4449
aS'watershed'
p4450
asS'BeautifulSoup'
p4451
(lp4452
S'buildTagMap'
p4453
aS'chardet'
p4454
ag2651
ag1316
aS'markupbase'
p4455
aS'name2codepoint'
p4456
ag925
aS'sgmllib'
p4457
asS'sre_constants'
p4458
(lp4459
S'makedict'
p4460
asS'poplib'
p4461
(lp4462
g925
ag1985
ag2451
asg1702
(lp4463
S'decoder'
p4464
ag1658
ag1659
aS'encoder'
p4465
ag481
ag482
ag1786
asS'os.path'
p4466
(lp4467
g2590
ag2591
ag2592
ag2593
ag2594
ag2595
ag2596
ag2597
ag2598
ag2599
ag2600
ag2601
ag2602
ag907
ag2603
ag2604
ag2605
ag1887
ag2606
ag2607
ag2608
ag2609
ag2882
aS'samefile'
p4468
aS'sameopenfile'
p4469
aS'samestat'
p4470
ag742
ag2610
ag2611
ag2612
ag829
asg1977
(lp4471
S'Binnumber'
p4472
aS'Bracket'
p4473
aS'Comment'
p4474
aS'ContStr'
p4475
aS'Decnumber'
p4476
aS'Double'
p4477
aS'Double3'
p4478
aS'Expfloat'
p4479
aS'Exponent'
p4480
aS'Floatnumber'
p4481
aS'Funny'
p4482
aS'Hexnumber'
p4483
aS'Ignore'
p4484
aS'Imagnumber'
p4485
aS'Intnumber'
p4486
aS'Name'
p4487
aS'Number'
p4488
aS'Octnumber'
p4489
aS'Operator'
p4490
aS'PlainToken'
p4491
aS'Pointfloat'
p4492
aS'PseudoExtras'
p4493
aS'PseudoToken'
p4494
aS'Single'
p4495
aS'Single3'
p4496
aS'Special'
p4497
aS'String'
p4498
aS'Token'
p4499
aS'Triple'
p4500
aS'Whitespace'
p4501
ag125
aS'double3prog'
p4502
aS'endprogs'
p4503
aS'generate_tokens'
p4504
aS'group'
p4505
ag1802
ag2266
aS'printtoken'
p4506
aS'pseudoprog'
p4507
ag925
aS'single3prog'
p4508
aS'single_quoted'
p4509
aS't'
aS'tabsize'
p4510
ag2445
ag1977
aS'tokenize_loop'
p4511
aS'tokenprog'
p4512
aS'triple_quoted'
p4513
ag1982
asS'certifi'
p4514
(lp4515
g48
ag831
asg3076
(lp4516
g101
ag102
ag103
ag104
ag105
ag106
ag3686
ag107
ag108
ag67
ag110
ag111
ag112
ag113
ag114
ag115
ag116
ag117
ag118
ag120
ag121
ag122
ag125
ag126
ag127
ag128
ag129
ag130
ag131
ag132
ag133
ag134
ag135
ag136
ag137
ag138
ag139
ag140
ag141
ag142
ag143
ag144
ag145
ag146
ag147
ag148
ag149
ag151
ag152
ag153
ag154
ag155
ag156
ag157
ag158
ag159
ag160
ag161
ag164
ag174
ag175
ag176
ag178
ag179
ag181
ag182
ag183
ag184
ag186
ag187
ag191
ag193
ag194
ag195
ag196
ag197
ag198
ag200
ag202
ag205
ag210
ag216
ag217
ag218
ag1651
ag219
ag220
ag222
ag223
ag227
ag230
ag231
ag232
ag48
ag233
ag234
ag235
ag236
ag237
ag238
ag73
ag241
ag242
ag243
ag244
ag248
ag249
ag251
ag252
ag254
ag256
ag257
ag263
ag264
ag265
ag266
ag267
ag268
ag269
ag271
ag41
ag274
ag275
ag277
ag281
ag282
aS'dual'
p4517
aS'e'
ag283
ag288
ag289
ag290
ag291
ag294
ag296
ag299
ag300
ag302
ag303
ag305
ag306
ag307
ag308
ag309
ag326
ag328
ag330
ag332
ag334
ag335
ag336
ag337
ag338
ag339
ag340
ag342
ag343
ag344
ag345
ag346
ag347
ag348
ag349
ag350
ag351
ag352
ag357
ag360
ag366
ag368
ag374
ag375
ag376
ag377
ag378
ag381
ag383
ag384
ag388
ag389
ag395
ag396
ag397
ag401
ag402
ag405
ag406
ag407
ag413
ag417
ag418
ag419
ag420
ag421
ag422
ag423
ag424
ag426
ag428
ag429
ag431
ag434
ag438
ag439
ag443
ag444
ag445
ag446
ag447
ag449
ag451
ag452
ag453
ag455
ag456
ag457
ag458
ag459
ag460
ag461
ag463
ag464
ag466
ag467
ag472
ag473
ag475
ag476
ag477
aS'lib'
p4518
ag478
ag479
ag480
ag481
ag482
ag483
ag59
ag485
ag486
ag487
ag488
ag489
ag490
ag491
ag492
ag493
ag498
ag501
ag503
ag504
ag507
ag508
ag509
aS'matrixlib'
p4519
ag82
ag514
ag515
ag516
ag517
ag518
ag519
ag520
ag4389
ag521
ag522
ag525
ag526
ag528
ag529
ag532
ag534
ag537
ag538
ag539
ag540
ag541
ag542
ag543
ag544
ag545
ag546
ag547
ag548
ag549
ag550
ag551
ag552
ag554
ag556
ag557
ag558
ag561
ag567
ag569
ag570
aS'numarray'
p4520
ag573
ag574
aS'oldnumeric'
p4521
ag575
ag576
ag577
ag579
ag580
ag582
ag587
ag590
ag592
ag595
ag596
ag602
ag605
ag608
ag609
ag610
ag611
ag612
ag613
aS'polynomial'
p4522
ag614
ag615
ag616
ag617
ag621
ag623
ag624
ag625
ag627
ag628
ag629
ag630
ag635
ag636
ag637
ag641
ag645
ag646
ag647
ag648
ag655
ag656
ag657
ag662
ag663
ag664
ag666
ag667
ag668
ag669
ag670
ag671
ag672
ag678
ag679
ag682
ag683
ag684
ag685
aS'round'
p4523
ag686
ag687
ag688
ag689
ag691
ag693
ag694
ag695
ag699
ag700
ag701
ag702
ag703
ag706
ag710
ag711
ag713
ag714
ag715
ag716
ag717
ag718
ag720
ag721
ag723
ag725
ag726
ag727
ag728
ag729
ag731
ag735
ag736
ag737
ag738
ag739
ag742
ag745
ag746
ag747
ag754
ag765
ag766
ag770
ag773
ag774
ag775
ag776
ag779
aS'testing'
p4524
ag785
ag787
ag788
ag789
ag790
ag794
ag795
ag796
ag797
ag800
ag801
ag802
ag803
ag804
ag807
ag808
ag809
ag810
ag813
ag814
ag815
ag816
ag817
ag818
ag819
ag820
ag825
ag826
ag829
ag831
ag832
ag846
ag847
asS'sleekxmpp'
p4525
(lp4526
g2873
aS'basexmpp'
p4527
aS'clientxmpp'
p4528
aS'componentxmpp'
p4529
ag1653
aS'jid'
p4530
ag2180
ag2465
aS'register_stanza_plugin'
p4531
aS'roster'
p4532
aS'stanza'
p4533
aS'thirdparty'
p4534
ag64
aS'xmlstream'
p4535
asS'gzip'
p4536
(lp4537
g906
aS'read32'
p4538
ag1680
ag946
aS'write32u'
p4539
ag1820
asg1797
(lp4540
g2376
aS'cleandoc'
p4541
aS'currentframe'
p4542
ag2538
aS'findsource'
p4543
aS'formatargspec'
p4544
aS'formatargvalues'
p4545
aS'getabsfile'
p4546
aS'getargs'
p4547
aS'getargspec'
p4548
aS'getargvalues'
p4549
aS'getblock'
p4550
aS'getcallargs'
p4551
aS'getclasstree'
p4552
aS'getcomments'
p4553
ag2383
aS'getfile'
p4554
aS'getframeinfo'
p4555
aS'getinnerframes'
p4556
aS'getlineno'
p4557
aS'getmembers'
p4558
aS'getmodule'
p4559
aS'getmoduleinfo'
p4560
aS'getmodulename'
p4561
aS'getmro'
p4562
aS'getouterframes'
p4563
aS'getsource'
p4564
aS'getsourcefile'
p4565
aS'getsourcelines'
p4566
ag1038
aS'indentsize'
p4567
aS'isabstract'
p4568
aS'isbuiltin'
p4569
aS'isclass'
p4570
aS'iscode'
p4571
aS'isdatadescriptor'
p4572
aS'isframe'
p4573
aS'isfunction'
p4574
aS'isgenerator'
p4575
aS'isgeneratorfunction'
p4576
aS'isgetsetdescriptor'
p4577
aS'ismemberdescriptor'
p4578
aS'ismethod'
p4579
aS'ismethoddescriptor'
p4580
aS'ismodule'
p4581
aS'isroutine'
p4582
aS'istraceback'
p4583
aS'joinseq'
p4584
ag3199
aS'modulesbyfile'
p4585
ag1792
ag925
aS'stack'
p4586
aS'strseq'
p4587
ag1977
ag787
aS'walktree'
p4588
asS'imaplib'
p4589
(lp4590
S'AllowedVersions'
p4591
aS'Commands'
p4592
aS'Continuation'
p4593
aS'Debug'
p4594
aS'Flags'
p4595
aS'Int2AP'
p4596
aS'InternalDate'
p4597
aS'Internaldate2tuple'
p4598
aS'Literal'
p4599
aS'MapCRLF'
p4600
aS'Mon2num'
p4601
aS'ParseFlags'
p4602
aS'Response_code'
p4603
aS'Time2Internaldate'
p4604
aS'Untagged_response'
p4605
aS'Untagged_status'
p4606
ag2586
ag641
ag925
ag1985
ag2451
ag2149
ag946
asS'poster'
p4607
(lp4608
g2478
ag4607
aS'streaminghttp'
p4609
asS'pylint'
p4610
(lp4611
S'run_epylint'
p4612
aS'run_pylint'
p4613
aS'run_pylint_gui'
p4614
aS'run_pyreverse'
p4615
aS'run_symilar'
p4616
asS'rsa'
p4617
(lp4618
g2875
ag48
aS'decrypt'
p4619
aS'encrypt'
p4620
ag3072
aS'newkeys'
p4621
aS'pem'
p4622
aS'pkcs1'
p4623
aS'prime'
p4624
aS'randnum'
p4625
ag725
ag4439
aS'varblock'
p4626
aS'verify'
p4627
asS'xxsubtype'
p4628
(lp4629
g176
asS'macurl2path'
p4630
(lp4631
g2826
ag2847
ag2689
asg2434
(lp4632
S'getpwall'
p4633
aS'getpwnam'
p4634
aS'getpwuid'
p4635
asS'pytz'
p4636
(lp4637
S'FixedOffset'
p4638
aS'all_timezones'
p4639
aS'all_timezones_set'
p4640
ag2650
aS'build_tzinfo'
p4641
aS'common_timezones'
p4642
aS'common_timezones_set'
p4643
aS'country_names'
p4644
aS'country_timezones'
p4645
ag247
ag1653
ag3043
aS'lazy'
p4646
aS'open_resource'
p4647
ag929
ag933
aS'timezone'
p4648
aS'tzfile'
p4649
aS'tzinfo'
p4650
aS'unpickler'
p4651
aS'utc'
p4652
asg3604
(lp4653
g359
ag1802
aS'open_new'
p4654
aS'open_new_tab'
p4655
ag3141
aS'register_X_browsers'
p4656
ag2993
ag2149
ag946
asg1936
(lp4657
S'Math'
p4658
ag2015
ag1653
ag55
aS'grep'
p4659
aS'increase'
p4660
aS'is_dir'
p4661
aS'is_file'
p4662
aS'ls'
p4663
aS'match_path'
p4664
aS'puts'
p4665
ag925
aS'say'
p4666
ag2753
asS'nturl2path'
p4667
(lp4668
g2826
ag2847
asS'functools32'
p4669
(lp4670
g94
ag4669
aS'lru_cache'
p4671
ag95
aS'reprlib32'
p4672
ag96
ag97
ag98
asg2180
(lp4673
S'addLevelName'
p4674
aS'atexit'
p4675
aS'basicConfig'
p4676
aS'cStringIO'
p4677
aS'captureWarnings'
p4678
ag2651
ag879
ag47
aS'critical'
p4679
ag4542
ag50
ag1045
ag1276
aS'fatal'
p4680
aS'getLevelName'
p4681
aS'getLogger'
p4682
aS'getLoggerClass'
p4683
aS'handlers'
p4684
ag421
ag59
aS'logMultiprocessing'
p4685
aS'logProcesses'
p4686
aS'logThreads'
p4687
aS'makeLogRecord'
p4688
aS'raiseExceptions'
p4689
aS'root'
p4690
aS'setLoggerClass'
p4691
aS'shutdown'
p4692
ag3264
ag2135
ag946
ag20
ag2323
aS'warning'
p4693
ag829
aS'weakref'
p4694
asg3077
(lp4695
S'alphanums'
p4696
aS'alphas'
p4697
aS'alphas8bit'
p4698
aS'anyCloseTag'
p4699
aS'anyOpenTag'
p4700
aS'cStyleComment'
p4701
aS'col'
p4702
aS'commaSeparatedList'
p4703
aS'commonHTMLEntity'
p4704
aS'countedArray'
p4705
aS'cppStyleComment'
p4706
aS'dblQuotedString'
p4707
aS'dblSlashComment'
p4708
aS'delimitedList'
p4709
aS'dictOf'
p4710
aS'downcaseTokens'
p4711
ag3642
aS'getTokensEndLoc'
p4712
aS'hexnums'
p4713
aS'htmlComment'
p4714
aS'indentedBlock'
p4715
aS'infixNotation'
p4716
aS'javaStyleComment'
p4717
aS'keepOriginalText'
p4718
aS'lineEnd'
p4719
aS'lineStart'
p4720
ag3683
aS'locatedExpr'
p4721
aS'makeHTMLTags'
p4722
aS'makeXMLTags'
p4723
aS'matchOnlyAtCol'
p4724
aS'matchPreviousExpr'
p4725
aS'matchPreviousLiteral'
p4726
aS'nestedExpr'
p4727
aS'nullDebugAction'
p4728
aS'nums'
p4729
aS'oneOf'
p4730
aS'opAssoc'
p4731
aS'operatorPrecedence'
p4732
aS'originalTextFor'
p4733
aS'printables'
p4734
aS'punc8bit'
p4735
aS'pythonStyleComment'
p4736
aS'quotedString'
p4737
aS'removeQuotes'
p4738
aS'replaceHTMLEntity'
p4739
aS'replaceWith'
p4740
aS'restOfLine'
p4741
aS'sglQuotedString'
p4742
aS'singleArgBuiltins'
p4743
aS'srange'
p4744
ag4458
aS'stringEnd'
p4745
aS'stringStart'
p4746
aS'traceParseAction'
p4747
aS'ungroup'
p4748
aS'unicodeString'
p4749
aS'upcaseTokens'
p4750
aS'withAttribute'
p4751
asg230
(lp4752
S'PyStringMap'
p4753
ag230
aS'deepcopy'
p4754
aS'dispatch_table'
p4755
ag4694
asg1462
(lp4756
g2205
ag1650
ag2211
ag2212
ag1145
ag1733
ag2223
ag2224
ag2225
ag2226
ag2227
ag2228
ag2229
ag2230
ag2231
ag50
ag2232
ag2234
ag1773
ag2240
ag1936
ag2244
ag2245
ag2246
ag2247
ag2250
ag2251
ag2254
ag2256
ag25
ag2257
ag2258
ag2260
ag2261
ag2262
ag2265
ag2269
ag2270
ag2271
ag2272
ag2273
ag2274
ag2278
ag2282
ag1462
ag2283
ag2287
ag2288
ag2289
ag920
ag2293
ag2302
ag2303
ag2304
ag2308
ag2309
ag2310
ag2311
ag2314
ag1609
ag2315
ag2316
ag2317
ag2318
ag2319
ag2321
ag2322
asS'pickletools'
p4757
(lp4758
S'anyobject'
p4759
aS'code2op'
p4760
aS'decimalnl_long'
p4761
aS'decimalnl_short'
p4762
aS'decode_long'
p4763
ag2538
aS'float8'
p4764
aS'floatnl'
p4765
aS'genops'
p4766
aS'int4'
p4767
aS'long1'
p4768
aS'long4'
p4769
aS'markobject'
p4770
aS'opcodes'
p4771
ag2095
aS'pybool'
p4772
aS'pydict'
p4773
aS'pyfloat'
p4774
aS'pyint'
p4775
aS'pyinteger_or_bool'
p4776
aS'pylist'
p4777
aS'pylong'
p4778
aS'pynone'
p4779
aS'pystring'
p4780
aS'pytuple'
p4781
aS'pyunicode'
p4782
aS'read_decimalnl_long'
p4783
aS'read_decimalnl_short'
p4784
aS'read_float8'
p4785
aS'read_floatnl'
p4786
aS'read_int4'
p4787
aS'read_long1'
p4788
aS'read_long4'
p4789
aS'read_string1'
p4790
aS'read_string4'
p4791
aS'read_stringnl'
p4792
aS'read_stringnl_noescape'
p4793
aS'read_stringnl_noescape_pair'
p4794
aS'read_uint1'
p4795
aS'read_uint2'
p4796
aS'read_unicodestring4'
p4797
aS'read_unicodestringnl'
p4798
aS'stackslice'
p4799
aS'string1'
p4800
aS'string4'
p4801
aS'stringnl'
p4802
aS'stringnl_noescape'
p4803
aS'stringnl_noescape_pair'
p4804
aS'uint1'
p4805
aS'uint2'
p4806
aS'unicodestring4'
p4807
aS'unicodestringnl'
p4808
asg1813
(lp4809
g1068
aS'algorithms_available'
p4810
aS'algorithms_guaranteed'
p4811
aS'md5'
p4812
aS'new'
p4813
aS'pbkdf2_hmac'
p4814
aS'sha1'
p4815
aS'sha224'
p4816
aS'sha256'
p4817
aS'sha384'
p4818
aS'sha512'
p4819
asS'english_parser'
p4820
(lp4821
g4658
ag2204
ag1914
aS'action'
p4822
aS'action_if'
p4823
aS'action_n_times'
p4824
aS'action_once'
p4825
aS'action_or_block'
p4826
aS'action_or_expression'
p4827
aS'addLongname'
p4828
aS'adjective'
p4829
ag2205
ag2206
ag2207
aS'adverb'
p4830
ag1915
aS'algebra'
p4831
aS'all_methods'
p4832
ag1916
ag1917
ag2208
ag122
ag125
ag1918
aS'any_ruby_line'
p4833
ag2209
aS'applescript'
p4834
aS'apply_op'
p4835
aS'arguments'
p4836
aS'article'
p4837
ag1919
aS'as_adverb_as'
p4838
aS'as_long_condition_block'
p4839
ag2210
aS'assert_that'
p4840
aS'assure_same_type'
p4841
aS'assure_same_type_overwrite'
p4842
ag1650
aS'ast_operator'
p4843
aS'attribute'
p4844
ag1920
ag1921
aS'bash_action'
p4845
ag1922
aS'be'
p4846
ag1923
ag2015
aS'bla'
p4847
ag1924
ag1128
aS'boolean'
p4848
ag1925
aS'bracelet'
p4849
aS'breaks'
p4850
aS'builtin_method'
p4851
ag2211
aS'c_method'
p4852
ag2212
aS'call_arg'
p4853
aS'call_cast'
p4854
ag2213
ag2214
ag2215
ag2216
ag2217
ag2218
ag2219
aS'check_condition'
p4855
aS'check_end_of_statement'
p4856
aS'check_list_condition'
p4857
ag2220
aS'classConstDefined'
p4858
aS'class_constant'
p4859
ag1926
ag1145
aS'close_bracket'
p4860
aS'close_tag'
p4861
aS'collection'
p4862
ag2221
aS'comparation'
p4863
aS'comparative'
p4864
aS'compareNode'
p4865
aS'comparison'
p4866
ag1927
ag2222
aS'condition'
p4867
aS'condition_tree'
p4868
ag1928
aS'const_defined'
p4869
ag1929
aS'constant'
p4870
ag1825
ag1769
ag1733
ag1930
ag2223
ag1931
aS'current_context'
p4871
ag2224
ag2225
ag2226
ag2227
ag2228
ag2229
ag2230
ag2231
ag247
ag50
aS'declaration'
p4872
ag2232
ag2233
ag2234
aS'do_call_function'
p4873
aS'do_cast'
p4874
aS'do_compare'
p4875
aS'do_evaluate'
p4876
aS'do_evaluate_property'
p4877
aS'do_execute_block'
p4878
aS'do_get_class_constant'
p4879
ag2235
aS'do_math'
p4880
aS'do_send'
p4881
ag2236
aS'done'
p4882
ag1932
ag2237
aS'either_or'
p4883
aS'element_in'
p4884
ag1773
aS'emitters'
p4885
aS'endNode'
p4886
aS'endNode_'
p4887
aS'endNoun'
p4888
aS'end_block'
p4889
aS'end_expression'
p4890
aS'end_of_statement'
p4891
ag1933
aS'english_to_math'
p4892
ag1912
ag2238
ag2239
aS'eval_ast'
p4893
ag1934
aS'eval_string'
p4894
ag2877
aS'evaluate_index'
p4895
aS'evaluate_property'
p4896
ag1935
ag1653
aS'execute'
p4897
aS'expression'
p4898
aS'expression_or_block'
p4899
ag55
ag2240
ag1936
aS'extern_method_call'
p4900
ag1937
ag1938
aS'fileName'
p4901
ag1939
ag2028
ag2241
aS'findMethod'
p4902
ag333
ag1940
aS'fold_algebra'
p4903
aS'for_i_in_collection'
p4904
aS'forever'
p4905
ag2242
aS'functionalselector'
p4906
aS'future_event'
p4907
aS'gerund'
p4908
aS'gerundium'
p4909
aS'get_class'
p4910
aS'get_module'
p4911
aS'get_obj'
p4912
aS'get_type'
p4913
ag4659
aS'has_args'
p4914
aS'has_object'
p4915
aS'html_block'
p4916
aS'if_then'
p4917
aS'if_then_else'
p4918
ag1941
ag2243
aS'immediate_json_hash'
p4919
ag1942
aS'import_module'
p4920
aS'imports'
p4921
ag2244
ag2245
ag2246
ag2247
aS'includes'
p4922
ag4660
ag421
ag2248
aS'inside_list'
p4923
ag1797
aS'instance'
p4924
ag2249
ag1943
ag2250
ag2251
aS'interpretation'
p4925
ag2252
ag2253
ag1944
aS'isType'
p4926
aS'isUnary'
p4927
aS'is_a'
p4928
aS'is_comparator'
p4929
ag4661
ag4662
aS'is_math'
p4930
aS'is_method'
p4931
ag2254
aS'is_object_method'
p4932
aS'isbound'
p4933
ag2255
aS'it'
p4934
ag2256
aS'javascript_block'
p4935
aS'javascript_require'
p4936
aS'jeannie'
p4937
aS'json_hash'
p4938
ag25
ag1945
ag1946
ag1947
ag2257
ag2258
ag2259
ag1948
ag2260
ag2261
aS'linuxPath'
p4939
aS'liste'
p4940
ag2262
aS'listselector'
p4941
ag2263
ag1949
ag1950
ag2264
aS'looped_action'
p4942
aS'looped_action_until'
p4943
aS'loops'
p4944
aS'loveHateTo'
p4945
ag4663
aS'mapType'
p4946
ag4664
ag2265
ag2266
aS'maybe_algebra'
p4947
aS'maybe_cast'
p4948
ag2267
aS'maybe_param'
p4949
aS'maybe_token'
p4950
ag2268
ag2269
aS'method_call'
p4951
aS'method_definition'
p4952
aS'method_dir'
p4953
ag2270
ag1951
ag2271
aS'minusMinus'
p4954
aS'modifier'
p4955
ag1952
ag2272
ag2273
ag2274
aS'more_comparative'
p4956
ag2275
ag2276
ag2277
aS'must_contain_substring'
p4957
aS'must_not_start_with'
p4958
aS'n_times_action'
p4959
ag2278
ag4813
ag2279
ag1953
ag2280
ag2281
aS'nill'
p4960
ag1954
aS'no_keyword'
p4961
aS'no_keyword_except'
p4962
ag1955
ag2282
aS'nod'
p4963
ag1462
ag561
ag1956
aS'noun'
p4964
ag2283
aS'nth_item'
p4965
aS'null_comparative'
p4966
ag2284
aS'number_or_word'
p4967
ag2285
ag1957
aS'once'
p4968
aS'once_trigger'
p4969
ag1958
ag2286
ag915
ag1483
ag2287
ag1959
ag1960
aS'otherwise'
p4970
aS'package'
p4971
aS'package_version'
p4972
ag1961
aS'param'
p4973
ag2288
ag2289
ag1777
ag2290
ag920
aS'piped_actions'
p4974
aS'plusEqual'
p4975
aS'plusPlus'
p4976
ag2291
ag2292
ag1962
aS'postjective'
p4977
aS'postoperations'
p4978
ag1963
ag2202
aS'prepare_named_args'
p4979
aS'preposition'
p4980
ag1964
ag2293
ag621
ag2294
aS'print_variables'
p4981
aS'pronoun'
p4982
ag1965
aS'property'
p4983
ag4665
ag1966
ag1967
aS'quick_expression'
p4984
ag2482
ag2295
ag2296
aS'raiseSyntaxError'
p4985
ag2297
aS'ranger'
p4986
ag925
aS'read_block'
p4987
ag2298
ag655
ag1968
aS'regexp'
p4988
aS'regular_json_hash'
p4989
aS'remove_from_list'
p4990
ag2299
aS'repeat_action_while'
p4991
aS'repeat_every_times'
p4992
aS'repeat_n_times'
p4993
aS'repeat_with'
p4994
ag1969
ag2399
aS'resolve_netbase'
p4995
ag2300
ag2301
ag2302
ag1970
aS'returns'
p4996
ag2303
ag2304
aS'rooty'
p4997
aS'ruby_action'
p4998
aS'ruby_block'
p4999
ag4666
aS'selectable'
p5000
ag2468
aS'selfModify'
p5001
aS'self_modifying'
p5002
ag1971
aS'set_context'
p5003
ag2305
aS'setter'
p5004
aS'should_not_contain'
p5005
aS'should_not_start_with'
p5006
ag2753
aS'simpleProperty'
p5007
aS'special_blocks'
p5008
ag1972
ag1973
aS'spo'
p5009
ag2306
aS'start_block'
p5010
ag1974
aS'start_shell'
p5011
ag2307
aS'starts_with_'
p5012
aS'startup'
p5013
aS'statement'
p5014
aS'subProperty'
p5015
ag2308
aS'swift_hash'
p5016
ag1975
aS'than_comparative'
p5017
aS'that'
p5018
aS'that_are'
p5019
aS'that_do'
p5020
aS'that_object_predicate'
p5021
ag28
aS'the_'
p5022
aS'the_noun_that'
p5023
ag2309
ag1976
ag2197
aS'todo'
p5024
ag948
ag2310
ag2311
ag2312
ag1977
ag1790
aS'tokens_'
p5025
ag2313
ag2314
ag20
ag1609
ag1978
aS'true_method'
p5026
aS'true_param'
p5027
aS'true_variable'
p5028
ag1979
aS'typeName'
p5029
aS'typeNameMapped'
p5030
ag1980
ag1981
aS'until_loop'
p5031
ag1982
ag2315
ag2316
aS'value'
p5032
aS'variable'
p5033
ag2317
ag2318
ag2319
aS'verb'
p5034
aS'verb_comparison'
p5035
aS'verb_node'
p5036
aS'verbium'
p5037
ag2320
ag2321
ag2322
ag2323
ag831
aS'while_loop'
p5038
aS'whose'
p5039
aS'word'
p5040
aS'word_regex'
p5041
aS'wordnet_is_adverb'
p5042
asS'coloredlogs'
p5043
(lp5044
S'ansi_color_codes'
p5045
aS'ansi_text'
p5046
ag230
aS'decrease_verbosity'
p5047
aS'find_defined_levels'
p5048
aS'get_level'
p5049
aS'increase_verbosity'
p5050
aS'install'
p5051
aS'is_verbose'
p5052
ag2180
ag925
aS'root_handler'
p5053
aS'set_level'
p5054
ag1985
ag946
asg3198
(lp5055
S'iskeyword'
p5056
aS'kwlist'
p5057
ag1802
asg4675
(lp5058
g3141
asS'rospkg'
p5059
(lp5060
g2875
ag2107
aS'expand_to_packages'
p5061
aS'get_etc_ros_dir'
p5062
aS'get_log_dir'
p5063
aS'get_package_name'
p5064
aS'get_ros_home'
p5065
aS'get_ros_package_path'
p5066
aS'get_ros_paths'
p5067
aS'get_ros_root'
p5068
aS'get_stack_version_by_dir'
p5069
aS'get_test_results_dir'
p5070
aS'list_by_path'
p5071
aS'manifest'
p5072
aS'on_ros_path'
p5073
aS'parse_manifest_file'
p5074
aS'rospack'
p5075
ag4586
asS'imghdr'
p5076
(lp5077
g779
aS'test_bmp'
p5078
aS'test_exif'
p5079
aS'test_gif'
p5080
aS'test_jpeg'
p5081
aS'test_pbm'
p5082
aS'test_pgm'
p5083
aS'test_png'
p5084
aS'test_ppm'
p5085
aS'test_rast'
p5086
aS'test_rgb'
p5087
aS'test_tiff'
p5088
aS'test_xbm'
p5089
ag2172
ag1594
ag2173
asS'modulefinder'
p5090
(lp5091
S'AddPackagePath'
p5092
aS'ReplacePackage'
p5093
ag2538
ag1316
ag1038
ag1656
aS'packagePathMap'
p5094
aS'replacePackageMap'
p5095
ag1680
ag779
asS'stringprep'
p5096
(lp5097
S'b1_set'
p5098
aS'b3_exceptions'
p5099
aS'c22_specials'
p5100
aS'c6_set'
p5101
aS'c7_set'
p5102
aS'c8_set'
p5103
aS'c9_set'
p5104
aS'in_table_a1'
p5105
aS'in_table_b1'
p5106
aS'in_table_c11'
p5107
aS'in_table_c11_c12'
p5108
aS'in_table_c12'
p5109
aS'in_table_c21'
p5110
aS'in_table_c21_c22'
p5111
aS'in_table_c22'
p5112
aS'in_table_c3'
p5113
aS'in_table_c4'
p5114
aS'in_table_c5'
p5115
aS'in_table_c6'
p5116
aS'in_table_c7'
p5117
aS'in_table_c8'
p5118
aS'in_table_c9'
p5119
aS'in_table_d1'
p5120
aS'in_table_d2'
p5121
aS'map_table_b2'
p5122
aS'map_table_b3'
p5123
ag1986
asS'rosinstall'
p5124
(lp5125
S'wstool'
p5126
asS'colorsys'
p5127
(lp5128
S'hls_to_rgb'
p5129
aS'hsv_to_rgb'
p5130
aS'rgb_to_hls'
p5131
aS'rgb_to_hsv'
p5132
aS'rgb_to_yiq'
p5133
aS'yiq_to_rgb'
p5134
asg2359
(lp5135
S'bootstrap_install_from'
p5136
ag1651
aS'convert_path'
p5137
aS'depends'
p5138
ag53
ag41
ag55
aS'find_packages'
p5139
ag2862
aS'fnmatchcase'
p5140
aS'lib2to3_fixer_packages'
p5141
aS'msvc9_support'
p5142
aS'run_2to3_on_doctests'
p5143
ag3361
ag2359
aS'windows_support'
p5144
asS'shelve'
p5145
(lp5146
S'Pickler'
p5147
ag2764
aS'Unpickler'
p5148
asS'theanets'
p5149
(lp5150
S'activations'
p5151
aS'feedforward'
p5152
ag1332
aS'layers'
p5153
ag1802
aS'recurrent'
p5154
aS'trainer'
p5155
ag64
asg2156
(lp5156
g4753
ag2764
aS'StringTypes'
p5157
aS'classmap'
p5158
aS'compatible_formats'
p5159
ag4763
ag4755
ag1658
ag1659
aS'encode_long'
p5160
aS'format_version'
p5161
ag481
ag482
ag1656
aS'mloads'
p5162
ag925
ag1680
aS'whichmodule'
p5163
asS'sklearn'
p5164
(lp5165
g2855
aS'clone'
p5166
aS'externals'
p5167
ag925
aS'setup_module'
p5168
ag829
asS'configobj'
p5169
(lp5170
g2103
aS'dquot'
p5171
aS'flatten_errors'
p5172
aS'getObj'
p5173
aS'get_extra_values'
p5174
aS'interpolation_engines'
p5175
aS'match_utf8'
p5176
aS'noquot'
p5177
ag925
ag730
aS'squot'
p5178
aS'tdquot'
p5179
aS'tsquot'
p5180
aS'unrepr'
p5181
aS'wspace_plus'
p5182
asS'Cython'
p5183
(lp5184
S'Py_UCS4'
p5185
aS'Py_UNICODE'
p5186
aS'Py_ssize_t'
p5187
aS'Shadow'
p5188
aS'address'
p5189
aS'bint'
p5190
aS'ccall'
p5191
aS'cclass'
p5192
aS'cdiv'
p5193
aS'cfunc'
p5194
aS'cmod'
p5195
aS'compiled'
p5196
ag2222
aS'complex_types'
p5197
aS'declare'
p5198
aS'double'
p5199
aS'doublecomplex'
p5200
aS'final'
p5201
aS'float'
p5202
aS'float_types'
p5203
aS'floatcomplex'
p5204
aS'floating'
p5205
aS'fused_type'
p5206
aS'gil'
p5207
aS'gs'
p5208
aS'index_type'
p5209
aS'inline'
p5210
aS'int'
p5211
aS'internal'
p5212
aS'load_ipython_extension'
p5213
aS'locals'
p5214
aS'long'
p5215
aS'longdouble'
p5216
aS'longdoublecomplex'
p5217
aS'longlong'
p5218
aS'no_gc_clear'
p5219
aS'nogil'
p5220
ag1997
aS'other_types'
p5221
ag2291
aS'py_complex'
p5222
aS'py_float'
p5223
aS'py_int'
p5224
aS'py_long'
p5225
aS'reprname'
p5226
ag4996
aS'schar'
p5227
aS'short'
p5228
aS'sint'
p5229
aS'size_t'
p5230
ag3231
aS'slong'
p5231
aS'slonglong'
p5232
aS'sshort'
p5233
aS'test_assert_path_exists'
p5234
aS'test_fail_if_path_exists'
p5235
aS'to_repr'
p5236
aS'type_ordering'
p5237
aS'type_version_tag'
p5238
aS'typeof'
p5239
aS'uchar'
p5240
aS'uint'
p5241
aS'ulong'
p5242
aS'ulonglong'
p5243
aS'unicode'
p5244
aS'ushort'
p5245
aS'void'
p5246
asg2861
(lp5247
S'add_extension'
p5248
aS'clear_extension_cache'
p5249
ag1769
ag4755
ag2156
aS'pickle_complex'
p5250
aS'remove_extension'
p5251
asg1991
(lp5252
S'BasicContext'
p5253
aS'DefaultContext'
p5254
aS'ExtendedContext'
p5255
aS'getcontext'
p5256
aS'localcontext'
p5257
aS'setcontext'
p5258
asg920
(lp5259
S'ast2list'
p5260
aS'ast2tuple'
p5261
aS'compileast'
p5262
aS'compilest'
p5263
aS'expr'
p5264
aS'isexpr'
p5265
aS'issuite'
p5266
aS'sequence2ast'
p5267
aS'sequence2st'
p5268
aS'st2list'
p5269
aS'st2tuple'
p5270
ag2469
aS'tuple2ast'
p5271
aS'tuple2st'
p5272
asS'site'
p5273
(lp5274
S'abs__file__'
p5275
aS'addpackage'
p5276
aS'addsitedir'
p5277
aS'addsitepackages'
p5278
aS'addusersitepackages'
p5279
aS'aliasmbcs'
p5280
aS'check_enableusersite'
p5281
aS'execsitecustomize'
p5282
aS'execusercustomize'
p5283
aS'getsitepackages'
p5284
aS'getuserbase'
p5285
aS'getusersitepackages'
p5286
aS'makepath'
p5287
aS'removeduppaths'
p5288
aS'setBEGINLIBPATH'
p5289
aS'setcopyright'
p5290
aS'setencoding'
p5291
aS'sethelper'
p5292
aS'setquit'
p5293
ag20
asS'netrc'
p5294
(lp5295
g2434
ag2993
asS'getpass'
p5296
(lp5297
S'fallback_getpass'
p5298
ag5296
aS'getuser'
p5299
aS'termios'
p5300
aS'unix_getpass'
p5301
ag829
aS'win_getpass'
p5302
asS'unirest'
p5303
(lp5304
g1807
aS'clear_default_headers'
p5305
aS'default_header'
p5306
ag254
ag359
aS'get_parameters'
p5307
ag4536
ag1702
aS'multipart_encode'
p5308
ag3422
ag3423
ag628
aS'register_openers'
p5309
ag2135
ag2633
ag2689
ag3608
asg3058
(lp5310
g1795
aS'nested'
p5311
ag2323
ag98
asg1957
(lp5312
g2762
ag275
asg906
(lp5313
S'OpenWrapper'
p5314
ag2760
asS'pip'
p5315
(lp5316
g108
aS'autocomplete'
p5317
aS'basecommand'
p5318
aS'baseparser'
p5319
aS'bazaar'
p5320
aS'check_isolated'
p5321
aS'cmdoptions'
p5322
aS'commands'
p5323
aS'commands_dict'
p5324
ag1651
aS'create_main_parser'
p5325
aS'deprecation'
p5326
ag3607
ag1653
aS'get_installed_distributions'
p5327
aS'get_prog'
p5328
aS'get_similar_commands'
p5329
aS'get_summaries'
p5330
aS'git'
p5331
ag1886
aS'locations'
p5332
ag2179
ag2180
ag1802
aS'mercurial'
p5333
ag2182
aS'operations'
p5334
ag2746
aS'parseopts'
p5335
aS'pep425tags'
p5336
ag5315
ag925
aS'req'
p5337
ag3424
aS'subversion'
p5338
ag1620
aS'vcs'
p5339
ag829
aS'wheel'
p5340
asg24
(lp5341
g4820
ag2655
ag946
asS'serial'
p5342
(lp5343
S'TIOCM_DTR_str'
p5344
aS'TIOCM_RTS_str'
p5345
aS'TIOCM_zero_str'
p5346
aS'baudrate_constants'
p5347
ag1829
ag2153
ag906
aS'plat'
p5348
aS'portNotOpenError'
p5349
aS'protocol_handler_packages'
p5350
ag706
aS'serial_for_url'
p5351
aS'serialposix'
p5352
aS'serialutil'
p5353
aS'set_special_baudrate'
p5354
ag1680
ag5300
ag946
aS'to_bytes'
p5355
aS'writeTimeoutError'
p5356
asg2753
(lp5357
S'WindowsError'
p5358
ag2590
ag879
ag230
aS'copy2'
p5359
ag2710
ag2797
aS'copymode'
p5360
aS'copystat'
p5361
aS'copytree'
p5362
ag2775
aS'get_archive_formats'
p5363
aS'getgrnam'
p5364
ag4634
aS'ignore_patterns'
p5365
aS'make_archive'
p5366
aS'move'
p5367
aS'register_archive_format'
p5368
ag2752
aS'unregister_archive_format'
p5369
asS'pyexpat'
p5370
(lp5371
S'ErrorString'
p5372
aS'ParserCreate'
p5373
ag54
aS'expat_CAPI'
p5374
aS'features'
p5375
aS'model'
p5376
aS'native_encoding'
p5377
ag2440
asS'paramiko'
p5378
(lp5379
S'GSSAuth'
p5380
aS'agent'
p5381
aS'auth_handler'
p5382
aS'ber'
p5383
aS'buffered_pipe'
p5384
aS'channel'
p5385
aS'client'
p5386
ag2875
ag219
ag47
aS'dsskey'
p5387
aS'ecdsakey'
p5388
aS'file'
p5389
aS'hostkeys'
p5390
aS'io_sleep'
p5391
aS'kex_gex'
p5392
aS'kex_group1'
p5393
aS'kex_group14'
p5394
aS'kex_gss'
p5395
ag2973
aS'packet'
p5396
aS'pkey'
p5397
aS'primes'
p5398
ag1835
aS'py3compat'
p5399
ag2143
aS'rsakey'
p5400
aS'server'
p5401
aS'sftp'
p5402
aS'sftp_attr'
p5403
aS'sftp_client'
p5404
aS'sftp_file'
p5405
aS'sftp_handle'
p5406
aS'sftp_server'
p5407
aS'sftp_si'
p5408
aS'ssh_exception'
p5409
aS'ssh_gss'
p5410
aS'transport'
p5411
ag64
asS'mako'
p5412
(lp5413
g1650
ag2874
ag2187
ag1651
ag1653
aS'ext'
p5414
ag2112
ag1654
aS'parsetree'
p5415
aS'pygen'
p5416
aS'pyparser'
p5417
ag2116
ag2870
ag64
asS'leveldb'
p5418
(lp5419
S'DestroyDB'
p5420
aS'RepairDB'
p5421
asS'bz2'
p5422
(lp5423
g219
ag2550
asg2800
(lp5424
S'getgrall'
p5425
aS'getgrgid'
p5426
ag5364
asS'crypt'
p5427
(lp5428
g5427
asg730
(lp5429
g108
aS'add_metaclass'
p5430
aS'add_move'
p5431
aS'advance_iterator'
p5432
aS'assertCountEqual'
p5433
aS'assertRaisesRegex'
p5434
aS'assertRegex'
p5435
aS'b'
aS'byte2int'
p5436
ag2416
aS'class_types'
p5437
aS'create_bound_method'
p5438
aS'exec_'
p5439
ag92
aS'get_function_closure'
p5440
aS'get_function_code'
p5441
aS'get_function_defaults'
p5442
aS'get_function_globals'
p5443
aS'get_method_function'
p5444
aS'get_method_self'
p5445
aS'get_unbound_function'
p5446
aS'indexbytes'
p5447
aS'int2byte'
p5448
aS'integer_types'
p5449
aS'iterbytes'
p5450
ag910
aS'iterkeys'
p5451
aS'iterlists'
p5452
ag2555
aS'itervalues'
p5453
aS'moves'
p5454
ag915
aS'print_'
p5455
aS'python_2_unicode_compatible'
p5456
aS'raise_from'
p5457
aS'remove_move'
p5458
aS'reraise'
p5459
ag942
aS'u'
aS'unichr'
p5460
aS'viewitems'
p5461
aS'viewkeys'
p5462
aS'viewvalues'
p5463
aS'with_metaclass'
p5464
asg3043
(lp5465
S'Catalog'
p5466
aS'bind_textdomain_codeset'
p5467
aS'bindtextdomain'
p5468
aS'c2py'
p5469
ag230
aS'dgettext'
p5470
aS'dngettext'
p5471
ag327
ag3043
ag5051
aS'ldgettext'
p5472
aS'ldngettext'
p5473
aS'lgettext'
p5474
aS'lngettext'
p5475
ag2391
aS'ngettext'
p5476
ag925
ag1680
ag779
aS'textdomain'
p5477
aS'translation'
p5478
asS'pytools'
p5479
(lp5480
S'FunctionValueCache'
p5481
aS'a_star'
p5482
ag108
aS'add_python_path_relative_to_script'
p5483
aS'add_tuples'
p5484
ag115
aS'all_equal'
p5485
aS'all_roughly_equal'
p5486
ag125
ag137
aS'argmax2'
p5487
ag138
aS'argmin2'
p5488
aS'assert_not_a_file'
p5489
ag164
ag1134
aS'cartesian_product_sum'
p5490
aS'comb'
p5491
aS'common_dtype'
p5492
aS'common_prefix'
p5493
aS'decorate'
p5494
ag1793
aS'decorator_module'
p5495
aS'delta'
p5496
aS'distinct_pairs'
p5497
aS'div_ceil'
p5498
ag275
aS'enumerate_basic_directions'
p5499
ag2989
aS'find_max_where'
p5500
ag333
aS'general_sum'
p5501
aS'generate_all_integer_tuples'
p5502
aS'generate_all_integer_tuples_below'
p5503
aS'generate_all_nonnegative_integer_tuples'
p5504
aS'generate_all_positive_integer_tuples'
p5505
aS'generate_decreasing_nonnegative_tuples_summing_to'
p5506
aS'generate_nonnegative_integer_tuples_below'
p5507
aS'generate_nonnegative_integer_tuples_summing_to_at_most'
p5508
aS'generate_permutations'
p5509
aS'generate_positive_integer_tuples_below'
p5510
aS'generate_unique_names'
p5511
aS'generate_unique_permutations'
p5512
aS'generate_unique_possibilities'
p5513
aS'get_read_from_map_from_permutation'
p5514
aS'get_write_to_map_from_permutation'
p5515
aS'indices_in_shape'
p5516
ag3680
ag2809
aS'invoke_editor'
p5517
aS'is_single_valued'
p5518
aS'len_iterable'
p5519
aS'levi_civita'
p5520
aS'linear_combination'
p5521
aS'match_precision'
p5522
aS'memoize'
p5523
aS'memoize_method'
p5524
aS'memoize_method_nested'
p5525
aS'memoize_method_with_uncached'
p5526
aS'memoize_on_first_arg'
p5527
aS'monkeypatch_class'
p5528
aS'monkeypatch_method'
p5529
aS'my_decorator'
p5530
aS'negate_tuple'
p5531
aS'norm_1'
p5532
aS'norm_2'
p5533
aS'norm_inf'
p5534
aS'norm_p'
p5535
aS'one'
p5536
ag915
ag582
aS'partition2'
p5537
aS'perm'
p5538
ag621
ag624
ag95
aS'reverse_dictionary'
p5539
aS'set_sum'
p5540
aS'shift'
p5541
aS'single_valued'
p5542
ag730
aS'std_deviation'
p5543
aS'string_histogram'
p5544
aS'to_uncomplex_dtype'
p5545
aS'typedump'
p5546
aS'uniform_interval_splitting'
p5547
aS'variance'
p5548
aS'wandering_element'
p5549
aS'word_wrap'
p5550
asS'interpy.codec'
p5551
(lp5552
g3141
aS'tokenizer'
p5553
ag1620
asS'sqlite3'
p5554
(lp5555
S'DateFromTicks'
p5556
aS'TimeFromTicks'
p5557
aS'TimestampFromTicks'
p5558
aS'adapt'
p5559
ag3414
aS'apilevel'
p5560
ag879
aS'complete_statement'
p5561
ag224
aS'converters'
p5562
ag247
aS'dbapi2'
p5563
aS'enable_callback_tracebacks'
p5564
aS'enable_shared_cache'
p5565
aS'paramstyle'
p5566
aS'register_adapter'
p5567
aS'register_converter'
p5568
aS'sqlite_version'
p5569
aS'sqlite_version_info'
p5570
aS'threadsafety'
p5571
ag946
ag2440
aS'x'
asS'asteval'
p5572
(lp5573
g5572
aS'astutils'
p5574
aS'valid_symbol_name'
p5575
asS'csv'
p5576
(lp5577
g2764
aS'field_size_limit'
p5578
aS'get_dialect'
p5579
aS'list_dialects'
p5580
ag925
ag1778
ag95
aS'register_dialect'
p5581
aS'unregister_dialect'
p5582
aS'writer'
p5583
asS'mailbox'
p5584
(lp5585
g2764
ag2657
ag230
ag883
ag2153
ag3015
ag1985
ag946
ag829
asS'pandas'
p5586
(lp5587
S'NaT'
p5588
aS'algos'
p5589
aS'bdate_range'
p5590
ag1651
aS'computation'
p5591
ag3688
ag48
aS'crosstab'
p5592
aS'cut'
p5593
aS'date_range'
p5594
aS'datetools'
p5595
aS'describe_option'
p5596
aS'eval'
p5597
aS'ewma'
p5598
aS'ewmcorr'
p5599
aS'ewmcov'
p5600
aS'ewmstd'
p5601
aS'ewmvar'
p5602
aS'ewmvol'
p5603
aS'expanding_apply'
p5604
aS'expanding_corr'
p5605
aS'expanding_corr_pairwise'
p5606
aS'expanding_count'
p5607
aS'expanding_cov'
p5608
aS'expanding_kurt'
p5609
aS'expanding_max'
p5610
aS'expanding_mean'
p5611
aS'expanding_median'
p5612
aS'expanding_min'
p5613
aS'expanding_quantile'
p5614
aS'expanding_skew'
p5615
aS'expanding_std'
p5616
aS'expanding_sum'
p5617
aS'expanding_var'
p5618
aS'factorize'
p5619
aS'fama_macbeth'
p5620
aS'get_dummies'
p5621
aS'get_option'
p5622
aS'get_store'
p5623
aS'groupby'
p5624
aS'hashtable'
p5625
ag1886
aS'infer_freq'
p5626
ag421
ag906
aS'isnull'
p5627
ag1702
ag4518
ag481
aS'lreshape'
p5628
ag2864
aS'melt'
p5629
ag12
aS'msgpack'
p5630
aS'notnull'
p5631
ag568
aS'offsets'
p5632
aS'ols'
p5633
ag1003
aS'ordered_merge'
p5634
ag5586
ag920
aS'period_range'
p5635
aS'pivot'
p5636
aS'pivot_table'
p5637
aS'plot_params'
p5638
aS'pnow'
p5639
aS'qcut'
p5640
aS'read_clipboard'
p5641
aS'read_csv'
p5642
aS'read_excel'
p5643
aS'read_fwf'
p5644
aS'read_hdf'
p5645
aS'read_html'
p5646
aS'read_json'
p5647
aS'read_msgpack'
p5648
aS'read_pickle'
p5649
aS'read_sql'
p5650
aS'read_stata'
p5651
aS'read_table'
p5652
aS'reset_option'
p5653
aS'rolling_apply'
p5654
aS'rolling_corr'
p5655
aS'rolling_corr_pairwise'
p5656
aS'rolling_count'
p5657
aS'rolling_cov'
p5658
aS'rolling_kurt'
p5659
aS'rolling_max'
p5660
aS'rolling_mean'
p5661
aS'rolling_median'
p5662
aS'rolling_min'
p5663
aS'rolling_quantile'
p5664
aS'rolling_skew'
p5665
aS'rolling_std'
p5666
aS'rolling_sum'
p5667
aS'rolling_var'
p5668
aS'rolling_window'
p5669
ag691
aS'scatter_matrix'
p5670
aS'set_eng_float_format'
p5671
aS'set_option'
p5672
aS'sparse'
p5673
aS'stats'
p5674
aS'to_datetime'
p5675
aS'to_msgpack'
p5676
aS'to_pickle'
p5677
aS'to_timedelta'
p5678
ag2470
aS'tseries'
p5679
aS'tslib'
p5680
ag814
ag64
aS'value_counts'
p5681
aS'value_range'
p5682
aS'wide_to_long'
p5683
asS'mock'
p5684
(lp5685
S'BaseExceptions'
p5686
aS'ClassTypes'
p5687
aS'DescriptorTypes'
p5688
aS'FunctionAttributes'
p5689
aS'FunctionTypes'
p5690
ag4173
aS'create_autospec'
p5691
aS'extra'
p5692
aS'file_spec'
p5693
aS'inPy3k'
p5694
aS'inplace'
p5695
ag1797
ag3198
aS'magic_methods'
p5696
aS'mock_open'
p5697
aS'numerics'
p5698
aS'original_wraps'
p5699
ag3422
ag2362
ag925
aS'regex'
p5700
aS'right'
p5701
aS'self'
p5702
aS'sentinel'
p5703
ag98
asS'profile'
p5704
(lp5705
S'Stats'
p5706
ag1800
ag1802
ag1656
aS'resgetrusage'
p5707
ag2143
ag1803
ag1804
ag946
asS'interpy.codec.utils'
p5708
(lp5709
S'next'
p5710
ag730
asS'mimetypes'
p5711
(lp5712
S'add_type'
p5713
aS'common_types'
p5714
aS'encodings_map'
p5715
aS'guess_all_extensions'
p5716
aS'guess_extension'
p5717
aS'guess_type'
p5718
ag2248
aS'inited'
p5719
aS'knownfiles'
p5720
ag2812
aS'read_mime_types'
p5721
aS'suffix_map'
p5722
aS'types_map'
p5723
ag2689
asS'execnet'
p5724
(lp5725
S'PopenGateway'
p5726
aS'SocketGateway'
p5727
aS'SshGateway'
p5728
aS'default_group'
p5729
aS'deprecated'
p5730
ag1659
aS'gateway'
p5731
aS'gateway_base'
p5732
aS'gateway_bootstrap'
p5733
aS'gateway_io'
p5734
ag482
aS'makegateway'
p5735
aS'multi'
p5736
aS'rsync'
p5737
aS'rsync_remote'
p5738
aS'threadpool'
p5739
aS'xspec'
p5740
asS'word2vec'
p5741
(lp5742
g906
aS'joblib'
p5743
ag481
aS'load_clusters'
p5744
ag568
aS'scripts_interface'
p5745
ag2149
aS'unitvec'
p5746
ag1620
aS'word2clusters'
p5747
aS'word2phrase'
p5748
ag5741
aS'wordclusters'
p5749
aS'wordvectors'
p5750
asg829
(lp5751
S'default_action'
p5752
aS'defaultaction'
p5753
ag2112
ag2998
aS'formatwarning'
p5754
ag3199
aS'once_registry'
p5755
aS'onceregistry'
p5756
aS'resetwarnings'
p5757
aS'showwarning'
p5758
aS'simplefilter'
p5759
ag2323
aS'warn_explicit'
p5760
aS'warnpy3k'
p5761
asS'pyopencl'
p5762
(lp5763
S'bitlog2'
p5764
aS'compiler_output'
p5765
aS'create_program_with_built_in_kernels'
p5766
aS'create_some_context'
p5767
aS'enable_debugging'
p5768
aS'enqueue_barrier'
p5769
aS'enqueue_copy'
p5770
aS'enqueue_copy_buffer'
p5771
aS'enqueue_copy_buffer_rect'
p5772
aS'enqueue_copy_buffer_to_image'
p5773
aS'enqueue_copy_image'
p5774
aS'enqueue_copy_image_to_buffer'
p5775
aS'enqueue_fill_buffer'
p5776
aS'enqueue_fill_image'
p5777
aS'enqueue_map_buffer'
p5778
aS'enqueue_map_image'
p5779
aS'enqueue_marker'
p5780
aS'enqueue_migrate_mem_objects'
p5781
aS'enqueue_nd_range_kernel'
p5782
aS'enqueue_read_buffer'
p5783
aS'enqueue_read_buffer_rect'
p5784
aS'enqueue_read_image'
p5785
aS'enqueue_task'
p5786
aS'enqueue_write_buffer'
p5787
aS'enqueue_write_buffer_rect'
p5788
aS'enqueue_write_image'
p5789
aS'get_cl_header_version'
p5790
aS'get_supported_image_formats'
p5791
aS'have_gl'
p5792
aS'image_from_array'
p5793
aS'link_program'
p5794
aS'unload_platform_compiler'
p5795
aS'wait_for_events'
p5796
asg2727
(lp5797
g2775
ag2727
aS'glob0'
p5798
aS'glob1'
p5799
aS'has_magic'
p5800
aS'iglob'
p5801
aS'magic_check'
p5802
ag925
asS'scikits.audiolab'
p5803
(lp5804
S'aiffread'
p5805
aS'aiffwrite'
p5806
aS'auread'
p5807
aS'auwrite'
p5808
aS'available_encodings'
p5809
aS'available_file_formats'
p5810
ag176
aS'flacread'
p5811
aS'flacwrite'
p5812
aS'i'
aS'oggread'
p5813
aS'oggwrite'
p5814
aS'play'
p5815
aS'pysndfile'
p5816
aS'sdifread'
p5817
aS'sdifwrite'
p5818
aS'sndfile_version'
p5819
aS'soundio'
p5820
aS'supported_encoding'
p5821
aS'supported_endianness'
p5822
aS'supported_format'
p5823
ag779
aS'wavread'
p5824
aS'wavwrite'
p5825
asg3562
(lp5826
S'api_version'
p5827
aS'argv'
p5828
aS'builtin_module_names'
p5829
aS'byteorder'
p5830
aS'call_tracing'
p5831
aS'callstats'
p5832
aS'copyright'
p5833
aS'displayhook'
p5834
aS'dont_write_bytecode'
p5835
aS'exc_clear'
p5836
aS'exc_info'
p5837
aS'exc_type'
p5838
aS'excepthook'
p5839
aS'exec_prefix'
p5840
aS'executable'
p5841
ag3268
ag3210
aS'float_info'
p5842
aS'float_repr_style'
p5843
aS'getcheckinterval'
p5844
aS'getdefaultencoding'
p5845
aS'getdlopenflags'
p5846
aS'getfilesystemencoding'
p5847
aS'getprofile'
p5848
aS'getrecursionlimit'
p5849
aS'getrefcount'
p5850
aS'getsizeof'
p5851
ag2456
aS'hexversion'
p5852
aS'long_info'
p5853
ag2744
aS'maxsize'
p5854
aS'maxunicode'
p5855
aS'meta_path'
p5856
aS'modules'
p5857
aS'path_hooks'
p5858
aS'path_importer_cache'
p5859
ag922
aS'prefix'
p5860
aS'py3kwarning'
p5861
aS'setcheckinterval'
p5862
aS'setdlopenflags'
p5863
ag2132
aS'setrecursionlimit'
p5864
ag2133
ag2452
aS'stdin'
p5865
aS'stdout'
p5866
ag5338
ag2440
aS'warnoptions'
p5867
asS'rosdistro'
p5868
(lp5869
g2764
aS'aptdistro'
p5870
ag2875
aS'develdistro'
p5871
aS'distribution'
p5872
aS'distribution_cache'
p5873
aS'distribution_file'
p5874
aS'doc_build_file'
p5875
aS'doc_file'
p5876
aS'doc_repository_specification'
p5877
ag1278
aS'get_cached_distribution'
p5878
aS'get_cached_release'
p5879
ag898
aS'get_distribution_cache'
p5880
aS'get_distribution_file'
p5881
aS'get_doc_build_files'
p5882
aS'get_doc_file'
p5883
aS'get_index'
p5884
aS'get_index_url'
p5885
aS'get_release'
p5886
aS'get_release_build_files'
p5887
aS'get_release_builds'
p5888
aS'get_release_cache'
p5889
aS'get_release_file'
p5890
aS'get_source_build_files'
p5891
aS'get_source_file'
p5892
ag4536
ag1886
aS'load_url'
p5893
ag1776
ag2179
ag2180
aS'manifest_provider'
p5894
ag4971
ag621
ag1551
aS'release_build'
p5895
aS'release_build_file'
p5896
aS'release_cache'
p5897
aS'release_file'
p5898
aS'release_repository_specification'
p5899
aS'repository'
p5900
aS'repository_specification'
p5901
ag5868
aS'site_config_dir'
p5902
aS'source_build_file'
p5903
aS'source_file'
p5904
aS'status'
p5905
aS'user_config_dir'
p5906
aS'walks'
p5907
ag1760
asS'lxml'
p5908
(lp5909
g366
asS'colorama'
p5910
(lp5911
S'Back'
p5912
aS'Cursor'
p5913
aS'Fore'
p5914
aS'Style'
p5915
aS'ansi'
p5916
aS'ansitowin32'
p5917
aS'deinit'
p5918
ag2248
aS'initialise'
p5919
ag2629
aS'win32'
p5920
aS'winterm'
p5921
asS'asynchat'
p5922
(lp5923
g3737
ag2998
aS'find_prefix_at_end'
p5924
ag5861
ag1985
asS'smtpd'
p5925
(lp5926
g5922
ag3737
ag2136
aS'parseargs'
p5927
ag1745
ag1985
ag946
aS'usage'
p5928
asg3213
(lp5929
S'annotations'
p5930
aS'argparse'
p5931
aS'default_help'
p5932
ag4548
aS'import_main'
p5933
ag1797
aS'is_annotation'
p5934
ag463
aS'parser_from'
p5935
aS'pconf'
p5936
ag925
aS'runp'
p5937
ag5866
asS'nis'
p5938
(lp5939
S'cat'
p5940
aS'get_default_domain'
p5941
aS'maps'
p5942
ag2864
asS'readline'
p5943
(lp5944
S'add_history'
p5945
aS'clear_history'
p5946
aS'get_begidx'
p5947
aS'get_completer'
p5948
aS'get_completer_delims'
p5949
aS'get_completion_type'
p5950
aS'get_current_history_length'
p5951
aS'get_endidx'
p5952
aS'get_history_item'
p5953
aS'get_history_length'
p5954
aS'get_line_buffer'
p5955
aS'insert_text'
p5956
aS'parse_and_bind'
p5957
aS'read_history_file'
p5958
aS'read_init_file'
p5959
aS'redisplay'
p5960
aS'remove_history_item'
p5961
aS'replace_history_item'
p5962
aS'set_completer'
p5963
aS'set_completer_delims'
p5964
aS'set_completion_display_matches_hook'
p5965
aS'set_history_length'
p5966
aS'set_pre_input_hook'
p5967
aS'set_startup_hook'
p5968
aS'write_history_file'
p5969
asS'pygpu'
p5970
(lp5971
S'dtypes'
p5972
aS'elemwise'
p5973
aS'get_default_context'
p5974
aS'gpuarray'
p5975
aS'reduction'
p5976
aS'register_dtype'
p5977
aS'set_default_context'
p5978
asS'types'
p5979
(lp5980
g5157
asS'vcstools'
p5981
(lp5982
g108
aS'bzr'
p5983
ag2875
aS'get_vcs_client'
p5984
ag5331
aS'hg'
p5985
ag2180
ag621
aS'register_vcs'
p5986
aS'setup_logger'
p5987
aS'svn'
p5988
aS'tar'
p5989
ag811
aS'vcs_abstraction'
p5990
aS'vcs_base'
p5991
asS'sitecustomize'
p5992
(lp5993
S'build_time_vars'
p5994
aS'e'
aS'opt_executable'
p5995
aS'p'
ag5273
asS'sphinx'
p5996
(lp5997
S'addnodes'
p5998
aS'build_main'
p5999
aS'directives'
p6000
aS'domains'
p6001
ag54
ag2391
ag1802
aS'make_main'
p6002
aS'package_dir'
p6003
aS'roles'
p6004
ag64
ag2440
asS'markupsafe'
p6005
(lp6006
g1693
aS'escape_silent'
p6007
ag1742
ag910
ag925
aS'soft_unicode'
p6008
ag942
ag5460
asS'pyasn1'
p6009
(lp6010
g2201
ag1651
ag50
aS'type'
p6011
asg3224
(lp6012
g874
ag621
asg3388
(lp6013
S'context_diff'
p6014
aS'get_close_matches'
p6015
ag4
aS'ndiff'
p6016
ag95
aS'restore'
p6017
aS'unified_diff'
p6018
asg3390
(lp6019
g2771
ag45
aS'find_function'
p6020
ag1800
aS'line_prefix'
p6021
ag3199
ag1802
aS'pm'
p6022
aS'post_mortem'
p6023
ag2362
ag925
ag1803
aS'runcall'
p6024
ag1804
aS'runeval'
p6025
ag2777
ag779
ag20
asg3199
(lp6026
g2874
aS'checkcache'
p6027
aS'clearcache'
p6028
aS'getline'
p6029
aS'getlines'
p6030
aS'updatecache'
p6031
asg5126
(lp6032
g2875
aS'config_elements'
p6033
aS'config_yaml'
p6034
ag1701
aS'ui'
p6035
asS'cmath'
p6036
(lp6037
g2980
ag2981
ag2982
ag2983
ag2984
ag2986
ag235
ag236
aS'e'
ag299
ag449
ag451
ag59
ag485
ag4402
ag590
ag604
aS'rect'
p6038
ag727
ag729
ag745
ag774
ag775
asS'shedskin'
p6039
(lp6040
S'analyze'
p6041
ag124
ag47
aS'cpp'
p6042
aS'extmod'
p6043
aS'generate_code'
p6044
ag2136
ag1332
aS'infer'
p6045
ag1802
aS'makefile'
p6046
aS'parse_command_line_options'
p6047
aS'print_errors'
p6048
aS'python'
p6049
aS'start'
p6050
ag1680
ag946
ag20
aS'typestr'
p6051
ag5928
aS'virtual'
p6052
asg946
(lp6053
S'accept2dyear'
p6054
aS'altzone'
p6055
aS'asctime'
p6056
aS'clock'
p6057
aS'ctime'
p6058
aS'daylight'
p6059
aS'gmtime'
p6060
aS'localtime'
p6061
aS'mktime'
p6062
ag2630
aS'strftime'
p6063
aS'strptime'
p6064
ag946
ag4648
aS'tzname'
p6065
aS'tzset'
p6066
asg5743
(lp6067
g2417
aS'delayed'
p6068
aS'disk'
p6069
ag1658
ag3349
aS'func_inspect'
p6070
aS'hash'
p6071
aS'hashing'
p6072
ag481
ag2179
aS'memory'
p6073
aS'my_exceptions'
p6074
aS'numpy_pickle'
p6075
aS'parallel'
p6076
ag2515
asS'theano'
p6077
(lp6078
S'Lop'
p6079
aS'Rop'
p6080
aS'Updates'
p6081
ag5166
ag1651
ag1652
ag47
aS'configdefaults'
p6082
aS'configparser'
p6083
ag277
aS'foldl'
p6084
aS'foldr'
p6085
ag1304
aS'generated_version'
p6086
ag1317
aS'get_scalar_constant_value'
p6087
aS'gof'
p6088
aS'grad'
p6089
ag381
ag2180
aS'logging_default_formatter'
p6090
aS'logging_default_handler'
p6091
aS'map'
p6092
ag2195
ag3076
aS'opt'
p6093
aS'pp'
p6094
ag2362
aS'predefined_linkers'
p6095
aS'predefined_modes'
p6096
aS'predefined_optimizers'
p6097
aS'printing'
p6098
ag95
aS'scalar'
p6099
ag1785
aS'scan_module'
p6100
aS'shared'
p6101
aS'sparse_grad'
p6102
aS'tensor'
p6103
ag779
ag1594
aS'theano'
p6104
aS'theano_logger'
p6105
aS'toolbox'
p6106
aS'updates'
p6107
ag1620
asg2451
(lp6108
S'DER_cert_to_PEM_cert'
p6109
aS'OP_NO_SSLv2'
p6110
aS'OP_NO_SSLv3'
p6111
aS'OP_NO_TLSv1'
p6112
aS'OP_NO_TLSv1_1'
p6113
aS'OP_NO_TLSv1_2'
p6114
aS'PEM_cert_to_DER_cert'
p6115
aS'PROTOCOL_SSLv23'
p6116
aS'PROTOCOL_SSLv3'
p6117
aS'PROTOCOL_TLSv1'
p6118
aS'PROTOCOL_TLSv1_1'
p6119
aS'PROTOCOL_TLSv1_2'
p6120
ag3236
ag3237
ag3238
ag1807
aS'cert_time_to_seconds'
p6121
ag3239
aS'create_default_context'
p6122
aS'get_default_verify_paths'
p6123
aS'get_protocol_name'
p6124
aS'get_server_certificate'
p6125
aS'match_hostname'
p6126
ag1792
ag925
aS'sslwrap_simple'
p6127
ag945
aS'wrap_socket'
p6128
asS'rlcompleter'
p6129
(lp6130
S'get_class_members'
p6131
ag5943
asg1814
(lp6132
S'compare_digest'
p6133
aS'digest_size'
p6134
ag4813
aS'trans_36'
p6135
aS'trans_5C'
p6136
aS'x'
asS'grizzled'
p6137
(lp6138
S'author'
p6139
ag4135
ag883
aS'license'
p6140
ag786
aS'url'
p6141
as.